
MisProyectos/protocolosFinalProject/out/protocolosFinalProject.elf:     file format elf32-littlearm
MisProyectos/protocolosFinalProject/out/protocolosFinalProject.elf
architecture: arm, flags 0x00000112:
EXEC_P, HAS_SYMS, D_PAGED
start address 0x1a0044e1

Program Header:
0x70000001 off    0x00015554 vaddr 0x1a005554 paddr 0x1a005554 align 2**2
         filesz 0x00000008 memsz 0x00000008 flags r--
    LOAD off    0x00010090 vaddr 0x10000090 paddr 0x10000090 align 2**16
         filesz 0x00000000 memsz 0x00000964 flags rw-
    LOAD off    0x00010000 vaddr 0x1a000000 paddr 0x1a000000 align 2**16
         filesz 0x0000555c memsz 0x0000555c flags r-x
    LOAD off    0x00020000 vaddr 0x10000000 paddr 0x1a00555c align 2**16
         filesz 0x0000008c memsz 0x0000008c flags rw-
private flags = 5000400: [Version5 EABI] [hard-float ABI]

Sections:
Idx Name          Size      VMA       LMA       File off  Algn
  0 .text         00005554  1a000000  1a000000  00010000  2**2
                  CONTENTS, ALLOC, LOAD, READONLY, CODE
  1 .data         0000008c  10000000  1a00555c  00020000  2**2
                  CONTENTS, ALLOC, LOAD, DATA
  2 .data_RAM2    00000000  10080000  10080000  0002008c  2**2
                  CONTENTS
  3 .data_RAM3    00000000  20000000  20000000  0002008c  2**2
                  CONTENTS
  4 .data_RAM4    00000000  20008000  20008000  0002008c  2**2
                  CONTENTS
  5 .data_RAM5    00000000  2000c000  2000c000  0002008c  2**2
                  CONTENTS
  6 .bss          00000964  10000090  10000090  00010090  2**3
                  ALLOC
  7 .bss_RAM2     00000000  10080000  10080000  0002008c  2**2
                  CONTENTS
  8 .bss_RAM3     00000000  20000000  20000000  0002008c  2**2
                  CONTENTS
  9 .bss_RAM4     00000000  20008000  20008000  0002008c  2**2
                  CONTENTS
 10 .bss_RAM5     00000000  2000c000  2000c000  0002008c  2**2
                  CONTENTS
 11 .ARM.exidx    00000008  1a005554  1a005554  00015554  2**2
                  CONTENTS, ALLOC, LOAD, READONLY, DATA
 12 .uninit_RESERVED 00000000  10000000  10000000  0002008c  2**2
                  CONTENTS
 13 .noinit_RAM2  00000000  10080000  10080000  0002008c  2**2
                  CONTENTS
 14 .noinit_RAM3  00000000  20000000  20000000  0002008c  2**2
                  CONTENTS
 15 .noinit_RAM4  00000000  20008000  20008000  0002008c  2**2
                  CONTENTS
 16 .noinit_RAM5  00000000  2000c000  2000c000  0002008c  2**2
                  CONTENTS
 17 .noinit       00000000  100009f4  100009f4  0002008c  2**2
                  CONTENTS
 18 .debug_info   0001b5b5  00000000  00000000  0002008c  2**0
                  CONTENTS, READONLY, DEBUGGING
 19 .debug_abbrev 00004782  00000000  00000000  0003b641  2**0
                  CONTENTS, READONLY, DEBUGGING
 20 .debug_loc    0000d487  00000000  00000000  0003fdc3  2**0
                  CONTENTS, READONLY, DEBUGGING
 21 .debug_aranges 00000ea8  00000000  00000000  0004d250  2**3
                  CONTENTS, READONLY, DEBUGGING
 22 .debug_ranges 00000dc8  00000000  00000000  0004e0f8  2**0
                  CONTENTS, READONLY, DEBUGGING
 23 .debug_macro  0000ceb0  00000000  00000000  0004eec0  2**0
                  CONTENTS, READONLY, DEBUGGING
 24 .debug_line   00010a29  00000000  00000000  0005bd70  2**0
                  CONTENTS, READONLY, DEBUGGING
 25 .debug_str    0002067c  00000000  00000000  0006c799  2**0
                  CONTENTS, READONLY, DEBUGGING
 26 .comment      00000070  00000000  00000000  0008ce15  2**0
                  CONTENTS, READONLY
 27 .ARM.attributes 00000039  00000000  00000000  0008ce85  2**0
                  CONTENTS, READONLY
 28 .debug_frame  0000244c  00000000  00000000  0008cec0  2**2
                  CONTENTS, READONLY, DEBUGGING
SYMBOL TABLE:
1a000000 l    d  .text	00000000 .text
10000000 l    d  .data	00000000 .data
10080000 l    d  .data_RAM2	00000000 .data_RAM2
20000000 l    d  .data_RAM3	00000000 .data_RAM3
20008000 l    d  .data_RAM4	00000000 .data_RAM4
2000c000 l    d  .data_RAM5	00000000 .data_RAM5
10000090 l    d  .bss	00000000 .bss
10080000 l    d  .bss_RAM2	00000000 .bss_RAM2
20000000 l    d  .bss_RAM3	00000000 .bss_RAM3
20008000 l    d  .bss_RAM4	00000000 .bss_RAM4
2000c000 l    d  .bss_RAM5	00000000 .bss_RAM5
1a005554 l    d  .ARM.exidx	00000000 .ARM.exidx
10000000 l    d  .uninit_RESERVED	00000000 .uninit_RESERVED
10080000 l    d  .noinit_RAM2	00000000 .noinit_RAM2
20000000 l    d  .noinit_RAM3	00000000 .noinit_RAM3
20008000 l    d  .noinit_RAM4	00000000 .noinit_RAM4
2000c000 l    d  .noinit_RAM5	00000000 .noinit_RAM5
100009f4 l    d  .noinit	00000000 .noinit
00000000 l    d  .debug_info	00000000 .debug_info
00000000 l    d  .debug_abbrev	00000000 .debug_abbrev
00000000 l    d  .debug_loc	00000000 .debug_loc
00000000 l    d  .debug_aranges	00000000 .debug_aranges
00000000 l    d  .debug_ranges	00000000 .debug_ranges
00000000 l    d  .debug_macro	00000000 .debug_macro
00000000 l    d  .debug_line	00000000 .debug_line
00000000 l    d  .debug_str	00000000 .debug_str
00000000 l    d  .comment	00000000 .comment
00000000 l    d  .ARM.attributes	00000000 .ARM.attributes
00000000 l    d  .debug_frame	00000000 .debug_frame
00000000 l    df *ABS*	00000000 cr_startup_lpc43xx.c
00000000 l    df *ABS*	00000000 sapi_uart.c
1a002c64 l     F .text	000000ac uartProcessIRQ
10000550 l     O .bss	00000004 rxIsrCallbackUART0
10000554 l     O .bss	00000004 txIsrCallbackUART0
10000558 l     O .bss	00000004 txIsrCallbackUART2
1000055c l     O .bss	00000004 txIsrCallbackUART3
10000560 l     O .bss	00000004 i.10511
1a005368 l     O .text	00000048 lpcUarts
10000564 l     O .bss	00000004 rxIsrCallbackUART2
10000568 l     O .bss	00000004 rxIsrCallbackUART3
00000000 l    df *ABS*	00000000 crp.c
00000000 l    df *ABS*	00000000 ESP8266_ESP01.c
10000090 l     O .bss	00000001 consolePrint
10000091 l     O .bss	00000001 debugPrint
00000000 l    df *ABS*	00000000 main.c
100000a0 l     O .bss	00000228 fp
100002c8 l     O .bss	00000230 fs
100004f8 l     O .bss	00000032 fileBuff
00000000 l    df *ABS*	00000000 ff.c
1a000e94 l     F .text	0000000a ld_word
1a000ea0 l     F .text	00000016 ld_dword
1a000eb8 l     F .text	00000008 st_word
1a000ec0 l     F .text	00000014 st_dword
1a000ed4 l     F .text	00000012 mem_cpy
1a000ee8 l     F .text	0000000a mem_set
1a000ef4 l     F .text	0000001e mem_cmp
1a000f14 l     F .text	00000010 chk_chr
1a000f24 l     F .text	00000018 clust2sect
1a000f3c l     F .text	00000024 ld_clust
1a000f60 l     F .text	00000024 st_clust
1a000f84 l     F .text	000000d0 create_name
1a001054 l     F .text	00000056 get_ldnumber
1a0010ac l     F .text	00000034 validate
1a0010e0 l     F .text	00000054 sync_window
1a001134 l     F .text	00000034 move_window
1a001168 l     F .text	0000007c check_fs
1a0011e4 l     F .text	000002d4 find_volume
1a0014b8 l     F .text	0000010a put_fat
1a0015c4 l     F .text	000000d0 get_fat
1a001694 l     F .text	000000b0 dir_sdi
1a001744 l     F .text	000000ca create_chain
1a001810 l     F .text	0000007c remove_chain
1a00188c l     F .text	00000126 dir_next
1a0019b4 l     F .text	00000054 dir_find
1a001a08 l     F .text	0000008c follow_path
1a001a94 l     F .text	0000004c dir_alloc
1a001ae0 l     F .text	0000003a dir_register
1a001b1c l     F .text	0000008c sync_fs
1000052a l     O .bss	00000002 Fsid
1000052c l     O .bss	00000004 FatFs
00000000 l    df *ABS*	00000000 mmc.c
1a002044 l     F .text	00000004 chk_power
1a002048 l     F .text	00000024 SSPSend
1a00206c l     F .text	00000018 xmit_spi
1a0020a8 l     F .text	0000001c rcvr_spi
1a0020c4 l     F .text	00000024 wait_ready
1a0020e8 l     F .text	00000018 deselect
1a002100 l     F .text	00000024 select_
1a002124 l     F .text	0000007e send_cmd
1a0021a4 l     F .text	0000005c xmit_datablock
1a002200 l     F .text	00000064 rcvr_datablock
10000530 l     O .bss	00000001 Timer1
10000531 l     O .bss	00000001 Timer2
10000532 l     O .bss	00000001 CardType
10000009 l     O .data	00000001 Stat
00000000 l    df *ABS*	00000000 sapi_rtc.c
10000533 l     O .bss	00000001 init.10200
00000000 l    df *ABS*	00000000 sapi_convert.c
10000534 l     O .bss	00000014 result.10091
00000000 l    df *ABS*	00000000 sapi_cyclesCounter.c
10000010 l     O .data	00000004 ClockSpeed
00000000 l    df *ABS*	00000000 sapi_gpio.c
1a0028e0 l     F .text	0000002c gpioObtainPinInit
00000000 l    df *ABS*	00000000 sapi_sleep.c
00000000 l    df *ABS*	00000000 sapi_tick.c
00000000 l    df *ABS*	00000000 sapi_spi.c
00000000 l    df *ABS*	00000000 sapi_delay.c
00000000 l    df *ABS*	00000000 sapi_timer.c
1a0030f4 l     F .text	00000002 errorOcurred
1a0030f8 l     F .text	00000002 doNothing
10000014 l     O .data	00000040 timer_dd
00000000 l    df *ABS*	00000000 sapi_adc.c
00000000 l    df *ABS*	00000000 sapi_print.c
00000000 l    df *ABS*	00000000 sapi_board.c
00000000 l    df *ABS*	00000000 board.c
1a00341c l     F .text	00000040 Board_LED_Init
1a00345c l     F .text	0000003c Board_TEC_Init
1a003498 l     F .text	0000003c Board_GPIO_Init
1a0034d4 l     F .text	00000038 Board_SPI_Init
1a00350c l     F .text	00000024 Board_I2C_Init
1a003530 l     F .text	00000030 Board_ADC_Init
1a0053b0 l     O .text	00000012 GpioPorts
1a0053cc l     O .text	00000008 GpioButtons
1a0053d4 l     O .text	0000000c GpioLeds
00000000 l    df *ABS*	00000000 sysinit.c
00000000 l    df *ABS*	00000000 board_sysinit.c
1a0053e0 l     O .text	0000000c InitClkStates
1a0053ec l     O .text	00000098 pinmuxing
00000000 l    df *ABS*	00000000 i2c_18xx_43xx.c
10000054 l     O .data	00000038 i2c
00000000 l    df *ABS*	00000000 uart_18xx_43xx.c
1a0036fc l     F .text	0000002c Chip_UART_GetIndex
1a005484 l     O .text	00000008 UART_BClock
1a00548c l     O .text	00000008 UART_PClock
00000000 l    df *ABS*	00000000 adc_18xx_43xx.c
1a0038a0 l     F .text	00000014 Chip_ADC_GetClockIndex
1a0038b4 l     F .text	00000030 getClkDiv
00000000 l    df *ABS*	00000000 chip_18xx_43xx.c
00000000 l    df *ABS*	00000000 clock_18xx_43xx.c
1a003a84 l     F .text	000000a8 pll_calc_divs
1a003b2c l     F .text	00000104 pll_get_frac
1a003c30 l     F .text	00000048 Chip_Clock_FindBaseClock
1a003e9c l     F .text	00000022 Chip_Clock_GetDivRate
1000056c l     O .bss	00000008 audio_usb_pll_freq
1a0054a0 l     O .text	0000006c periph_to_base
00000000 l    df *ABS*	00000000 fpu_init.c
00000000 l    df *ABS*	00000000 rtc_18xx_43xx.c
00000000 l    df *ABS*	00000000 gpio_18xx_43xx.c
00000000 l    df *ABS*	00000000 sysinit_18xx_43xx.c
1a00550c l     O .text	00000048 InitClkStates
00000000 l    df *ABS*	00000000 ssp_18xx_43xx.c
1a0042ec l     F .text	0000001a SSP_Write2BFifo
1a004308 l     F .text	00000018 SSP_Write1BFifo
1a004320 l     F .text	0000002a SSP_Read2BFifo
1a00434c l     F .text	0000002a SSP_Read1BFifo
1a004378 l     F .text	00000014 Chip_SSP_GetClockIndex
1a00438c l     F .text	00000018 Chip_SSP_GetPeriphClockIndex
00000000 l    df *ABS*	00000000 _aeabi_ldivmod.o
00000000 l    df *ABS*	00000000 _aeabi_uldivmod.o
00000000 l    df *ABS*	00000000 bpabi.c
00000000 l    df *ABS*	00000000 _dvmd_tls.o
00000000 l    df *ABS*	00000000 libgcc2.c
00000000 l    df *ABS*	00000000 libgcc2.c
00000000 l    df *ABS*	00000000 init.c
00000000 l    df *ABS*	00000000 memset.c
00000000 l    df *ABS*	00000000 strcat.c
00000000 l    df *ABS*	00000000 strlen.c
00000000 l    df *ABS*	00000000 strncat.c
00000000 l    df *ABS*	00000000 strstr.c
00000000 l    df *ABS*	00000000 
00000000 l       *UND*	00000000 enableGPIOIrq
00000000 l       *UND*	00000000 _printf_float
1a005554 l       .bss_RAM5	00000000 __init_array_end
1a005554 l       .bss_RAM5	00000000 __preinit_array_end
00000000 l       *UND*	00000000 disableGPIOIrq
1a005554 l       .bss_RAM5	00000000 __init_array_start
1a005554 l       .bss_RAM5	00000000 __preinit_array_start
1a003cc4 g     F .text	0000001c Chip_Clock_GetDividerSource
1a004600 g     F .text	0000002e .hidden __gnu_uldivmod_helper
1a002eb8 g     F .text	000000c4 receiveBytesUntilReceiveStringOrTimeout
1a003178 g     F .text	00000040 TIMER2_IRQHandler
1a002d40 g     F .text	00000014 uartRxRead
1a00019c  w    F .text	00000002 DebugMon_Handler
1a0001a8  w    F .text	00000002 RIT_IRQHandler
1a00394c g     F .text	00000016 Chip_ADC_DeInit
1a080000 g       *ABS*	00000000 __top_MFlashA512
1a0001a8  w    F .text	00000002 ADCHS_IRQHandler
1a004634 g     F .text	0000029c .hidden __divdi3
1a000114 g       .text	00000000 __section_table_start
1a0001a8  w    F .text	00000002 FLASH_EEPROM_IRQHandler
1a002820 g     F .text	0000008c int64ToString
1a0001a8  w    F .text	00000002 I2C0_IRQHandler
1a002de4 g     F .text	0000001c uartReadByte
1a004100 g     F .text	00000030 Chip_RTC_GetFullTime
1a0030b4 g     F .text	0000003e delayRead
1000054c g     O .bss	00000004 callBackFuncParams
1a000188  w    F .text	00000002 HardFault_Handler
1a000000 g       *ABS*	00000000 __vectors_start__
1a003a18 g     F .text	0000000c Chip_ADC_SetResolution
1a002c34 g     F .text	00000030 SysTick_Handler
100009d8 g     O .bss	00000006 dataLogger
1a00377c g     F .text	00000040 Chip_UART_SetBaud
10000000 g     O .data	00000001 uartDebug
1a0032ec g     F .text	00000008 printString
1a0001a8  w    F .text	00000002 SDIO_IRQHandler
1a0001a8  w    F .text	00000002 ATIMER_IRQHandler
1a0001a0  w    F .text	00000002 PendSV_Handler
1a000184  w    F .text	00000002 NMI_Handler
1a00555c g       .ARM.exidx	00000000 __exidx_end
1a000150 g       .text	00000000 __data_section_table_end
1a0001a8  w    F .text	00000002 I2C1_IRQHandler
1a0001a8  w    F .text	00000002 UART1_IRQHandler
1a0001a8  w    F .text	00000002 GPIO5_IRQHandler
1a0001a8  w    F .text	00000002 CAN1_IRQHandler
1a000300 g     F .text	0000001c esp01CleanRxBuffer
53ff335e g       *ABS*	00000000 __valid_user_code_checksum
1a00555c g       .ARM.exidx	00000000 _etext
1a002788 g     F .text	00000034 rtcRead
1a0001a8  w    F .text	00000002 USB1_IRQHandler
1a0001a8  w    F .text	00000002 I2S0_IRQHandler
1a002e00 g     F .text	0000007c waitForReceiveStringOrTimeout
1a000664 g     F .text	000000a4 esp01SendTPCIPDataToServer
1a0031b8 g     F .text	00000040 TIMER3_IRQHandler
1a003f28 g     F .text	0000000c Chip_Clock_GetBaseClocktHz
1a000178 g     F .text	0000000a UART0_IRQHandler
1a0001c8 g     F .text	00000012 bss_init
1a0001a8  w    F .text	00000002 SGPIO_IRQHandler
1a002264 g     F .text	00000158 disk_initialize
1a0045a0 g     F .text	00000000 .hidden __aeabi_uldivmod
100009f4 g       .noinit	00000000 _noinit
1a002f7c g     F .text	00000042 receiveBytesUntilReceiveStringOrTimeoutBlocking
1a002fdc g     F .text	00000018 uartWriteString
100009f0 g     O .bss	00000004 SystemCoreClock
1a003728 g     F .text	00000054 Chip_UART_Init
1a0001a8  w    F .text	00000002 ADC0_IRQHandler
1a0038f4 g     F .text	00000018 readAdcVal
1a000194  w    F .text	00000002 UsageFault_Handler
1a003ff0 g     F .text	0000004c Chip_Clock_GetRate
1a0001a8  w    F .text	00000002 GPIO6_IRQHandler
1a0032dc g     F .text	0000000e printInitUart
100009e0 g     O .bss	00000008 tickCounter
1a0023bc g     F .text	00000014 disk_status
1a003610 g     F .text	0000006c Board_SetupClocking
20008000 g       *ABS*	00000000 __top_RamAHB32
1a000964 g     F .text	00000064 itoa
1a0053c8 g     O .text	00000004 ExtRateIn
1a0001a8  w    F .text	00000002 IntDefaultHandler
1a000300 g       .text	00000000 __CRP_WORD_END__
1a00031c g     F .text	000001f8 esp01SendTCPIPData
1a002504 g     F .text	00000284 disk_ioctl
1a0001a8  w    F .text	00000002 GPIO1_IRQHandler
1a0001a8  w    F .text	00000002 SSP0_IRQHandler
1a002d10 g     F .text	00000018 uartRxReady
1a005554 g       .ARM.exidx	00000000 __exidx_start
1a0027ec g     F .text	00000034 rtcInit
1a0002fc g     O .text	00000004 CRP_WORD
1a0038e4 g     F .text	0000000e setStartMode
1a004b3c g     F .text	0000004c __libc_init_array
1a0048d0 g     F .text	0000026a .hidden __udivdi3
1a0031f8 g     F .text	0000008c adcInit
1a0001a8  w    F .text	00000002 ADC1_IRQHandler
10000004 g     O .data	00000004 espResponseBufferSize
1a003584 g     F .text	0000003c Board_Init
1a004564 g     F .text	00000002 _init
1a000114 g       .text	00000000 __data_section_table
1a0043b8 g     F .text	000000b0 Chip_SSP_RWFrames_Blocking
1a0001a8  w    F .text	00000002 RTC_IRQHandler
100009f4 g       .bss	00000000 _ebss
1a003a24 g     F .text	00000026 Chip_ADC_EnableChannel
1a0030fc g     F .text	0000003c TIMER0_IRQHandler
1a002bb8 g     F .text	0000007c tickInit
20010000 g       *ABS*	00000000 __top_RamAHB_ETB16
1a0001a8  w    F .text	00000002 SPI_IRQHandler
1a0036cc g     F .text	00000030 Chip_I2C_SetClockRate
1a0001a8  w    F .text	00000002 LCD_IRQHandler
1a003c78 g     F .text	0000004c Chip_Clock_EnableCrystal
1a0040d0 g     F .text	0000002e Chip_RTC_SetFullTime
1a003964 g     F .text	00000008 Chip_ADC_ReadValue
10008000 g       *ABS*	00000000 __top_RamLoc32
10000008 g     O .data	00000001 uartEsp01
1a0001ac g     F .text	0000001a data_init
1a004b98 g     F .text	0000001e strcat
1a0040b8 g     F .text	00000018 Chip_RTC_Enable
1a0039c4 g     F .text	00000020 Chip_ADC_SetStartMode
1a003138 g     F .text	00000040 TIMER1_IRQHandler
1a0036a8 g     F .text	00000024 Chip_I2C_Init
1a002ff4 g     F .text	0000000a UART2_IRQHandler
1a0032f4 g     F .text	00000010 printEnter
1a003e34 g     F .text	00000068 Chip_Clock_GetMainPLLHz
1a004094 g     F .text	00000022 Chip_RTC_ResetClockTickCounter
1a005230 g     O .text	00000136 gpioPinsInit
1a002fc0 g     F .text	0000001a uartWriteByte
1a0043a4 g     F .text	00000012 Chip_SSP_SetClockRate
1a002b58 g     F .text	00000016 gpioToggle
1a0001a8  w    F .text	00000002 GPIO2_IRQHandler
1a003284 g     F .text	00000058 adcRead
1a003f04 g     F .text	00000024 Chip_Clock_GetBaseClock
10000090 g       .bss	00000000 _bss
1a00396c g     F .text	00000038 Chip_ADC_ReadStatus
1a0039e4 g     F .text	00000032 Chip_ADC_SetSampleRate
1a002020 g     F .text	00000024 f_close
1a004bee g     F .text	00000030 strstr
1a003094 g     F .text	00000020 delayInit
1a002084 g     F .text	00000024 SSPReceive
1a0001a8  w    F .text	00000002 I2S1_IRQHandler
1a004468 g     F .text	0000003e Chip_SSP_SetBitRate
1a004198 g     F .text	00000002 Chip_GPIO_Init
1a0053c4 g     O .text	00000004 OscRateIn
1a002d68 g     F .text	0000007c uartInit
100009f4 g       .noinit	00000000 _end_noinit
10008000 g       *ABS*	00000000 _vStackTop
1a000960 g     F .text	00000002 diskTickHook
1a0001a8  w    F .text	00000002 SSP1_IRQHandler
1a000178 g       .text	00000000 __bss_section_table_end
1a00290c g     F .text	0000019c gpioInit
1a002b70 g     F .text	00000004 sleepUntilNextInterrupt
1a004150 g     F .text	00000048 Chip_RTC_Init
1a004630  w    F .text	00000002 .hidden __aeabi_ldiv0
1a004bc6 g     F .text	00000028 strncat
1a0009d8 g     F .text	0000025c formatSdBuffer
1a0001a8  w    F .text	00000002 USB0_IRQHandler
1a003fbc g     F .text	00000034 Chip_Clock_Disable
1a0001a8  w    F .text	00000002 GPIO3_IRQHandler
1a0001a8  w    F .text	00000002 SCT_IRQHandler
1a003ce0 g     F .text	0000001c Chip_Clock_GetDividerDivisor
1a0002fc g       .text	00000000 __CRP_WORD_START__
1a00080c g     F .text	00000088 esp01ShowWiFiNetworks
1a004b88 g     F .text	00000010 memset
1a00018c  w    F .text	00000002 MemManage_Handler
1a000c8c g     F .text	00000208 main
1a001f84 g     F .text	0000009c f_sync
1a0001a8  w    F .text	00000002 WDT_IRQHandler
1a00300c g     F .text	00000050 spiInit
1a000708 g     F .text	00000104 esp01ConnectToWifiAP
2000c000 g       *ABS*	00000000 __top_RamAHB16
1008a000 g       *ABS*	00000000 __top_RamLoc40
1a000198  w    F .text	00000002 SVC_Handler
1000000c g     O .data	00000004 DWT_CTRL
1a002d28 g     F .text	00000018 uartTxReady
1a001ba8 g     F .text	00000058 f_mount
1a0001a8  w    F .text	00000002 GPIO7_IRQHandler
1a003f34 g     F .text	0000003c Chip_Clock_EnableOpts
1a0009c8 g     F .text	00000010 adcStructConfig
1a003cfc g     F .text	000000b8 Chip_Clock_GetClockInputHz
1a00403c g     F .text	00000058 fpuInit
1a003db4 g     F .text	00000080 Chip_Clock_CalcMainPLLValue
1a0035c0 g     F .text	0000001c SystemInit
1a0001a8  w    F .text	00000002 SPIFI_IRQHandler
1a00305c g     F .text	00000038 delay
1a0001a8  w    F .text	00000002 QEI_IRQHandler
1a000150 g       .text	00000000 __bss_section_table
1a003fa4 g     F .text	00000018 Chip_Clock_RTCEnable
1a002aa8 g     F .text	00000058 gpioWrite
1a00390c g     F .text	00000040 Chip_ADC_Init
1a0035dc g     F .text	00000034 Board_SetupMuxing
1a0027bc g     F .text	00000030 rtcWrite
1a0037bc g     F .text	000000e4 Chip_UART_SetBaudFDR
1a002b74 g     F .text	0000000c tickRead
100009e8 g     O .bss	00000008 tickRateMS
1a003a4c g     F .text	00000022 Chip_ADC_SetBurstCmd
1a0001a8  w    F .text	00000002 ETH_IRQHandler
10000548 g     O .bss	00000004 tickHookFunction
10000000 g       .uninit_RESERVED	00000000 _end_uninit_RESERVED
1a002e7c g     F .text	0000003a waitForReceiveStringOrTimeoutBlocking
1a002d54 g     F .text	00000014 uartTxWrite
10000098 g     O .bss	00000008 sensorValue
1a0001a8  w    F .text	00000002 CAN0_IRQHandler
1a000c34 g     F .text	00000058 recordStringInSdCard
10000000 g       .data	00000000 _data
1a002b80 g     F .text	00000020 tickCallbackSet
100009f4 g       .bss	00000000 _pvHeapStart
1a000178 g       .text	00000000 __section_table_end
1a000514 g     F .text	00000150 esp01ConnectToServer
1a0044a8 g     F .text	00000038 Chip_SSP_Init
1a003304 g     F .text	00000022 printIntFormat
1a0001a8  w    F .text	00000002 GINT0_IRQHandler
1a0001a8  w    F .text	00000002 DAC_IRQHandler
1a003560 g     F .text	00000024 Board_Debug_Init
10000574 g     O .bss	00000064 tcpIpDataToSend
1a0039a4 g     F .text	0000001e Chip_ADC_Int_SetChannelCmd
1000008c g       .data	00000000 _edata
1a003688 g     F .text	00000020 Chip_I2C_EventHandler
1a0001a8  w    F .text	00000002 M0SUB_IRQHandler
1a001ddc g     F .text	000001a8 f_write
1a00419c g     F .text	00000150 Chip_SetupCoreClock
1a0001a8  w    F .text	00000002 GPIO0_IRQHandler
1a001c00 g     F .text	000001dc f_open
1a002458 g     F .text	000000ac disk_write
1a000000 g     O .text	00000114 g_pfnVectors
1a0044e0 g     F .text	00000084 ResetISR
1a003a70 g     F .text	00000014 SystemCoreClockUpdate
1a004130 g     F .text	00000020 Chip_RTC_CalibCounterCmd
1a0001a8  w    F .text	00000002 DMA_IRQHandler
1a0001a8  w    F .text	00000002 EVRT_IRQHandler
1b080000 g       *ABS*	00000000 __top_MFlashB512
1a000894 g     F .text	000000c4 esp01Init
1a004630  w    F .text	00000002 .hidden __aeabi_idiv0
1a000190  w    F .text	00000002 BusFault_Handler
1a004bb6 g     F .text	00000010 strlen
1a0023d0 g     F .text	00000088 disk_read
1a003f70 g     F .text	00000034 Chip_Clock_Enable
1a003000 g     F .text	0000000a UART3_IRQHandler
1a0001a8  w    F .text	00000002 MCPWM_IRQHandler
1a0045d0 g     F .text	0000002e .hidden __gnu_ldivmod_helper
1a0001a8  w    F .text	00000002 M0APP_IRQHandler
1a002b00 g     F .text	00000058 gpioRead
1a003328 g     F .text	000000f4 boardInit
1a0028ac g     F .text	00000018 intToString
1a0001a8  w    F .text	00000002 GINT1_IRQHandler
1a004568 g     F .text	00000000 .hidden __aeabi_ldivmod
1a002ba0 g     F .text	00000018 tickPowerSet
1a000958 g     F .text	00000008 stopProgramError
100005d8 g     O .bss	00000400 espResponseBuffer
1a003ec0 g     F .text	00000044 Chip_Clock_SetBaseClock
1a0028c4 g     F .text	0000001c cyclesCounterInit
1a0001a8  w    F .text	00000002 GPIO4_IRQHandler
1a00367c g     F .text	0000000c Board_SystemInit



Disassembly of section .text:

1a000000 <g_pfnVectors>:
1a000000:	00 80 00 10 e1 44 00 1a 85 01 00 1a 89 01 00 1a     .....D..........
1a000010:	8d 01 00 1a 91 01 00 1a 95 01 00 1a 5e 33 ff 53     ............^3.S
	...
1a00002c:	99 01 00 1a 9d 01 00 1a 00 00 00 00 a1 01 00 1a     ................
1a00003c:	35 2c 00 1a a9 01 00 1a a9 01 00 1a a9 01 00 1a     5,..............
1a00004c:	00 00 00 00 a9 01 00 1a a9 01 00 1a a9 01 00 1a     ................
1a00005c:	a9 01 00 1a a9 01 00 1a a9 01 00 1a a9 01 00 1a     ................
1a00006c:	a9 01 00 1a fd 30 00 1a 39 31 00 1a 79 31 00 1a     .....0..91..y1..
1a00007c:	b9 31 00 1a a9 01 00 1a a9 01 00 1a a9 01 00 1a     .1..............
1a00008c:	a9 01 00 1a a9 01 00 1a a9 01 00 1a a9 01 00 1a     ................
1a00009c:	a9 01 00 1a 79 01 00 1a a9 01 00 1a f5 2f 00 1a     ....y......../..
1a0000ac:	01 30 00 1a a9 01 00 1a a9 01 00 1a a9 01 00 1a     .0..............
1a0000bc:	a9 01 00 1a a9 01 00 1a a9 01 00 1a a9 01 00 1a     ................
1a0000cc:	a9 01 00 1a a9 01 00 1a a9 01 00 1a a9 01 00 1a     ................
1a0000dc:	a9 01 00 1a a9 01 00 1a a9 01 00 1a a9 01 00 1a     ................
1a0000ec:	a9 01 00 1a 00 00 00 00 a9 01 00 1a a9 01 00 1a     ................
1a0000fc:	a9 01 00 1a 00 00 00 00 a9 01 00 1a a9 01 00 1a     ................
1a00010c:	a9 01 00 1a a9 01 00 1a                             ........

1a000114 <__data_section_table>:
1a000114:	1a00555c 	.word	0x1a00555c
1a000118:	10000000 	.word	0x10000000
1a00011c:	0000008c 	.word	0x0000008c
1a000120:	1a00555c 	.word	0x1a00555c
1a000124:	10080000 	.word	0x10080000
1a000128:	00000000 	.word	0x00000000
1a00012c:	1a00555c 	.word	0x1a00555c
1a000130:	20000000 	.word	0x20000000
1a000134:	00000000 	.word	0x00000000
1a000138:	1a00555c 	.word	0x1a00555c
1a00013c:	20008000 	.word	0x20008000
1a000140:	00000000 	.word	0x00000000
1a000144:	1a00555c 	.word	0x1a00555c
1a000148:	2000c000 	.word	0x2000c000
1a00014c:	00000000 	.word	0x00000000

1a000150 <__bss_section_table>:
1a000150:	10000090 	.word	0x10000090
1a000154:	00000964 	.word	0x00000964
1a000158:	10080000 	.word	0x10080000
1a00015c:	00000000 	.word	0x00000000
1a000160:	20000000 	.word	0x20000000
1a000164:	00000000 	.word	0x00000000
1a000168:	20008000 	.word	0x20008000
1a00016c:	00000000 	.word	0x00000000
1a000170:	2000c000 	.word	0x2000c000
1a000174:	00000000 	.word	0x00000000

1a000178 <UART0_IRQHandler>:
__attribute__ ((section(".after_vectors")))

// UART0 (GPIO1 y GPIO2 or RS485/Profibus)
// 0x28 0x000000A0 - Handler for ISR UART0 (IRQ 24)
void UART0_IRQHandler(void)
{
1a000178:	b508      	push	{r3, lr}
   uartProcessIRQ( UART_GPIO );
1a00017a:	2000      	movs	r0, #0
1a00017c:	f002 fd72 	bl	1a002c64 <uartProcessIRQ>
1a000180:	bd08      	pop	{r3, pc}
1a000182:	bf00      	nop

1a000184 <NMI_Handler>:
// handler routines in your application code.
//*****************************************************************************
__attribute__ ((section(".after_vectors")))
void NMI_Handler(void) {
    while (1) {
    }
1a000184:	e7fe      	b.n	1a000184 <NMI_Handler>
1a000186:	bf00      	nop

1a000188 <HardFault_Handler>:
}
__attribute__ ((section(".after_vectors")))
void HardFault_Handler(void) {
    while (1) {
    }
1a000188:	e7fe      	b.n	1a000188 <HardFault_Handler>
1a00018a:	bf00      	nop

1a00018c <MemManage_Handler>:
}
__attribute__ ((section(".after_vectors")))
void MemManage_Handler(void) {
    while (1) {
    }
1a00018c:	e7fe      	b.n	1a00018c <MemManage_Handler>
1a00018e:	bf00      	nop

1a000190 <BusFault_Handler>:
}
__attribute__ ((section(".after_vectors")))
void BusFault_Handler(void) {
    while (1) {
    }
1a000190:	e7fe      	b.n	1a000190 <BusFault_Handler>
1a000192:	bf00      	nop

1a000194 <UsageFault_Handler>:
}
__attribute__ ((section(".after_vectors")))
void UsageFault_Handler(void) {
    while (1) {
    }
1a000194:	e7fe      	b.n	1a000194 <UsageFault_Handler>
1a000196:	bf00      	nop

1a000198 <SVC_Handler>:
}
__attribute__ ((section(".after_vectors")))
void SVC_Handler(void) {
    while (1) {
    }
1a000198:	e7fe      	b.n	1a000198 <SVC_Handler>
1a00019a:	bf00      	nop

1a00019c <DebugMon_Handler>:
}
__attribute__ ((section(".after_vectors")))
void DebugMon_Handler(void) {
    while (1) {
    }
1a00019c:	e7fe      	b.n	1a00019c <DebugMon_Handler>
1a00019e:	bf00      	nop

1a0001a0 <PendSV_Handler>:
}
__attribute__ ((section(".after_vectors")))
void PendSV_Handler(void) {
    while (1) {
    }
1a0001a0:	e7fe      	b.n	1a0001a0 <PendSV_Handler>
1a0001a2:	bf00      	nop
}
__attribute__ ((section(".after_vectors")))
void SysTick_Handler(void) {
    while (1) {
    }
1a0001a4:	e7fe      	b.n	1a0001a4 <PendSV_Handler+0x4>
1a0001a6:	bf00      	nop

1a0001a8 <ADC0_IRQHandler>:
//
//*****************************************************************************
__attribute__ ((section(".after_vectors")))
void IntDefaultHandler(void) {
    while (1) {
    }
1a0001a8:	e7fe      	b.n	1a0001a8 <ADC0_IRQHandler>
1a0001aa:	bf00      	nop

1a0001ac <data_init>:
// ResetISR() function in order to cope with MCUs with multiple banks of
// memory.
//*****************************************************************************
        __attribute__((section(".after_vectors"
)))
void data_init(unsigned int romstart, unsigned int start, unsigned int len) {
1a0001ac:	b410      	push	{r4}
    unsigned int *pulDest = (unsigned int*) start;
    unsigned int *pulSrc = (unsigned int*) romstart;
    unsigned int loop;
    for (loop = 0; loop < len; loop = loop + 4)
1a0001ae:	2300      	movs	r3, #0
1a0001b0:	e004      	b.n	1a0001bc <data_init+0x10>
        *pulDest++ = *pulSrc++;
1a0001b2:	6804      	ldr	r4, [r0, #0]
1a0001b4:	600c      	str	r4, [r1, #0]
)))
void data_init(unsigned int romstart, unsigned int start, unsigned int len) {
    unsigned int *pulDest = (unsigned int*) start;
    unsigned int *pulSrc = (unsigned int*) romstart;
    unsigned int loop;
    for (loop = 0; loop < len; loop = loop + 4)
1a0001b6:	3304      	adds	r3, #4
        *pulDest++ = *pulSrc++;
1a0001b8:	3004      	adds	r0, #4
1a0001ba:	3104      	adds	r1, #4
)))
void data_init(unsigned int romstart, unsigned int start, unsigned int len) {
    unsigned int *pulDest = (unsigned int*) start;
    unsigned int *pulSrc = (unsigned int*) romstart;
    unsigned int loop;
    for (loop = 0; loop < len; loop = loop + 4)
1a0001bc:	4293      	cmp	r3, r2
1a0001be:	d3f8      	bcc.n	1a0001b2 <data_init+0x6>
        *pulDest++ = *pulSrc++;
}
1a0001c0:	f85d 4b04 	ldr.w	r4, [sp], #4
1a0001c4:	4770      	bx	lr
1a0001c6:	bf00      	nop

1a0001c8 <bss_init>:

__attribute__ ((section(".after_vectors")))
void bss_init(unsigned int start, unsigned int len) {
    unsigned int *pulDest = (unsigned int*) start;
    unsigned int loop;
    for (loop = 0; loop < len; loop = loop + 4)
1a0001c8:	2300      	movs	r3, #0
1a0001ca:	e003      	b.n	1a0001d4 <bss_init+0xc>
        *pulDest++ = 0;
1a0001cc:	2200      	movs	r2, #0
1a0001ce:	6002      	str	r2, [r0, #0]

__attribute__ ((section(".after_vectors")))
void bss_init(unsigned int start, unsigned int len) {
    unsigned int *pulDest = (unsigned int*) start;
    unsigned int loop;
    for (loop = 0; loop < len; loop = loop + 4)
1a0001d0:	3304      	adds	r3, #4
        *pulDest++ = 0;
1a0001d2:	3004      	adds	r0, #4

__attribute__ ((section(".after_vectors")))
void bss_init(unsigned int start, unsigned int len) {
    unsigned int *pulDest = (unsigned int*) start;
    unsigned int loop;
    for (loop = 0; loop < len; loop = loop + 4)
1a0001d4:	428b      	cmp	r3, r1
1a0001d6:	d3f9      	bcc.n	1a0001cc <bss_init+0x4>
        *pulDest++ = 0;
}
1a0001d8:	4770      	bx	lr
1a0001da:	bf00      	nop
1a0001dc:	ffff ffff 			; <UNDEFINED> instruction: 0xffffffff
1a0001e0:	ffff ffff 			; <UNDEFINED> instruction: 0xffffffff
1a0001e4:	ffff ffff 			; <UNDEFINED> instruction: 0xffffffff
1a0001e8:	ffff ffff 			; <UNDEFINED> instruction: 0xffffffff
1a0001ec:	ffff ffff 			; <UNDEFINED> instruction: 0xffffffff
1a0001f0:	ffff ffff 			; <UNDEFINED> instruction: 0xffffffff
1a0001f4:	ffff ffff 			; <UNDEFINED> instruction: 0xffffffff
1a0001f8:	ffff ffff 			; <UNDEFINED> instruction: 0xffffffff
1a0001fc:	ffff ffff 			; <UNDEFINED> instruction: 0xffffffff
1a000200:	ffff ffff 			; <UNDEFINED> instruction: 0xffffffff
1a000204:	ffff ffff 			; <UNDEFINED> instruction: 0xffffffff
1a000208:	ffff ffff 			; <UNDEFINED> instruction: 0xffffffff
1a00020c:	ffff ffff 			; <UNDEFINED> instruction: 0xffffffff
1a000210:	ffff ffff 			; <UNDEFINED> instruction: 0xffffffff
1a000214:	ffff ffff 			; <UNDEFINED> instruction: 0xffffffff
1a000218:	ffff ffff 			; <UNDEFINED> instruction: 0xffffffff
1a00021c:	ffff ffff 			; <UNDEFINED> instruction: 0xffffffff
1a000220:	ffff ffff 			; <UNDEFINED> instruction: 0xffffffff
1a000224:	ffff ffff 			; <UNDEFINED> instruction: 0xffffffff
1a000228:	ffff ffff 			; <UNDEFINED> instruction: 0xffffffff
1a00022c:	ffff ffff 			; <UNDEFINED> instruction: 0xffffffff
1a000230:	ffff ffff 			; <UNDEFINED> instruction: 0xffffffff
1a000234:	ffff ffff 			; <UNDEFINED> instruction: 0xffffffff
1a000238:	ffff ffff 			; <UNDEFINED> instruction: 0xffffffff
1a00023c:	ffff ffff 			; <UNDEFINED> instruction: 0xffffffff
1a000240:	ffff ffff 			; <UNDEFINED> instruction: 0xffffffff
1a000244:	ffff ffff 			; <UNDEFINED> instruction: 0xffffffff
1a000248:	ffff ffff 			; <UNDEFINED> instruction: 0xffffffff
1a00024c:	ffff ffff 			; <UNDEFINED> instruction: 0xffffffff
1a000250:	ffff ffff 			; <UNDEFINED> instruction: 0xffffffff
1a000254:	ffff ffff 			; <UNDEFINED> instruction: 0xffffffff
1a000258:	ffff ffff 			; <UNDEFINED> instruction: 0xffffffff
1a00025c:	ffff ffff 			; <UNDEFINED> instruction: 0xffffffff
1a000260:	ffff ffff 			; <UNDEFINED> instruction: 0xffffffff
1a000264:	ffff ffff 			; <UNDEFINED> instruction: 0xffffffff
1a000268:	ffff ffff 			; <UNDEFINED> instruction: 0xffffffff
1a00026c:	ffff ffff 			; <UNDEFINED> instruction: 0xffffffff
1a000270:	ffff ffff 			; <UNDEFINED> instruction: 0xffffffff
1a000274:	ffff ffff 			; <UNDEFINED> instruction: 0xffffffff
1a000278:	ffff ffff 			; <UNDEFINED> instruction: 0xffffffff
1a00027c:	ffff ffff 			; <UNDEFINED> instruction: 0xffffffff
1a000280:	ffff ffff 			; <UNDEFINED> instruction: 0xffffffff
1a000284:	ffff ffff 			; <UNDEFINED> instruction: 0xffffffff
1a000288:	ffff ffff 			; <UNDEFINED> instruction: 0xffffffff
1a00028c:	ffff ffff 			; <UNDEFINED> instruction: 0xffffffff
1a000290:	ffff ffff 			; <UNDEFINED> instruction: 0xffffffff
1a000294:	ffff ffff 			; <UNDEFINED> instruction: 0xffffffff
1a000298:	ffff ffff 			; <UNDEFINED> instruction: 0xffffffff
1a00029c:	ffff ffff 			; <UNDEFINED> instruction: 0xffffffff
1a0002a0:	ffff ffff 			; <UNDEFINED> instruction: 0xffffffff
1a0002a4:	ffff ffff 			; <UNDEFINED> instruction: 0xffffffff
1a0002a8:	ffff ffff 			; <UNDEFINED> instruction: 0xffffffff
1a0002ac:	ffff ffff 			; <UNDEFINED> instruction: 0xffffffff
1a0002b0:	ffff ffff 			; <UNDEFINED> instruction: 0xffffffff
1a0002b4:	ffff ffff 			; <UNDEFINED> instruction: 0xffffffff
1a0002b8:	ffff ffff 			; <UNDEFINED> instruction: 0xffffffff
1a0002bc:	ffff ffff 			; <UNDEFINED> instruction: 0xffffffff
1a0002c0:	ffff ffff 			; <UNDEFINED> instruction: 0xffffffff
1a0002c4:	ffff ffff 			; <UNDEFINED> instruction: 0xffffffff
1a0002c8:	ffff ffff 			; <UNDEFINED> instruction: 0xffffffff
1a0002cc:	ffff ffff 			; <UNDEFINED> instruction: 0xffffffff
1a0002d0:	ffff ffff 			; <UNDEFINED> instruction: 0xffffffff
1a0002d4:	ffff ffff 			; <UNDEFINED> instruction: 0xffffffff
1a0002d8:	ffff ffff 			; <UNDEFINED> instruction: 0xffffffff
1a0002dc:	ffff ffff 			; <UNDEFINED> instruction: 0xffffffff
1a0002e0:	ffff ffff 			; <UNDEFINED> instruction: 0xffffffff
1a0002e4:	ffff ffff 			; <UNDEFINED> instruction: 0xffffffff
1a0002e8:	ffff ffff 			; <UNDEFINED> instruction: 0xffffffff
1a0002ec:	ffff ffff 			; <UNDEFINED> instruction: 0xffffffff
1a0002f0:	ffff ffff 			; <UNDEFINED> instruction: 0xffffffff
1a0002f4:	ffff ffff 			; <UNDEFINED> instruction: 0xffffffff
1a0002f8:	ffff ffff 			; <UNDEFINED> instruction: 0xffffffff

1a0002fc <CRP_WORD>:
1a0002fc:	ffff ffff                                   ....

1a000300 <esp01CleanRxBuffer>:
uartMap_t uartDebug = UART_USB;

char tcpIpDataToSend[100];
int64_t sensorValue = 0;

void esp01CleanRxBuffer( void ){
1a000300:	b508      	push	{r3, lr}
   espResponseBufferSize = ESP01_RX_BUFF_SIZE;
1a000302:	f44f 6280 	mov.w	r2, #1024	; 0x400
1a000306:	4b03      	ldr	r3, [pc, #12]	; (1a000314 <esp01CleanRxBuffer+0x14>)
1a000308:	601a      	str	r2, [r3, #0]
   memset( espResponseBuffer, 0, espResponseBufferSize );
1a00030a:	4803      	ldr	r0, [pc, #12]	; (1a000318 <esp01CleanRxBuffer+0x18>)
1a00030c:	2100      	movs	r1, #0
1a00030e:	f004 fc3b 	bl	1a004b88 <memset>
1a000312:	bd08      	pop	{r3, pc}
1a000314:	10000004 	.word	0x10000004
1a000318:	100005d8 	.word	0x100005d8

1a00031c <esp01SendTCPIPData>:



// AT+CIPSEND=39
// GET /update?key=7E7IOJ276BSDLOBA&1=69
bool_t esp01SendTCPIPData( char* strData, uint32_t strDataLen ){
1a00031c:	e92d 43f0 	stmdb	sp!, {r4, r5, r6, r7, r8, r9, lr}
1a000320:	b085      	sub	sp, #20
1a000322:	4681      	mov	r9, r0
1a000324:	460d      	mov	r5, r1
   // "GET /update?key=7E7IOJ276BS\"DL\"OBA&1=69"
   // AT+CIPSEND=strDataLen strData --------------------------

   // Limpiar Buffer (es necesario antes de usar
   // "receiveBytesUntilReceiveStringOrTimeoutBlocking")
   esp01CleanRxBuffer();
1a000326:	f7ff ffeb 	bl	1a000300 <esp01CleanRxBuffer>

   // Envio datos TCP/IP al servidor.
   debugPrintlnString( ">>>> Envio datos TCP/IP al servidor..." );
1a00032a:	4c68      	ldr	r4, [pc, #416]	; (1a0004cc <esp01SendTCPIPData+0x1b0>)
1a00032c:	7820      	ldrb	r0, [r4, #0]
1a00032e:	4968      	ldr	r1, [pc, #416]	; (1a0004d0 <esp01SendTCPIPData+0x1b4>)
1a000330:	f002 ffdc 	bl	1a0032ec <printString>
1a000334:	7820      	ldrb	r0, [r4, #0]
1a000336:	f002 ffdd 	bl	1a0032f4 <printEnter>

   debugPrintString( ">>>> AT+CIPSEND=" );
1a00033a:	7820      	ldrb	r0, [r4, #0]
1a00033c:	4965      	ldr	r1, [pc, #404]	; (1a0004d4 <esp01SendTCPIPData+0x1b8>)
1a00033e:	f002 ffd5 	bl	1a0032ec <printString>
   debugPrintInt( strDataLen + 2 ); // El mas 2 es del \r\n
1a000342:	3502      	adds	r5, #2
1a000344:	2700      	movs	r7, #0
1a000346:	7820      	ldrb	r0, [r4, #0]
1a000348:	f04f 080a 	mov.w	r8, #10
1a00034c:	f8cd 8000 	str.w	r8, [sp]
1a000350:	462a      	mov	r2, r5
1a000352:	463b      	mov	r3, r7
1a000354:	f002 ffd6 	bl	1a003304 <printIntFormat>
   debugPrintString( "\r\n" );
1a000358:	4e5f      	ldr	r6, [pc, #380]	; (1a0004d8 <esp01SendTCPIPData+0x1bc>)
1a00035a:	7820      	ldrb	r0, [r4, #0]
1a00035c:	4631      	mov	r1, r6
1a00035e:	f002 ffc5 	bl	1a0032ec <printString>

   consolePrintString( "AT+CIPSEND=" );
1a000362:	4c5e      	ldr	r4, [pc, #376]	; (1a0004dc <esp01SendTCPIPData+0x1c0>)
1a000364:	7820      	ldrb	r0, [r4, #0]
1a000366:	495e      	ldr	r1, [pc, #376]	; (1a0004e0 <esp01SendTCPIPData+0x1c4>)
1a000368:	f002 ffc0 	bl	1a0032ec <printString>
   consolePrintInt( strDataLen + 2 ); // El mas 2 es del \r\n
1a00036c:	7820      	ldrb	r0, [r4, #0]
1a00036e:	f8cd 8000 	str.w	r8, [sp]
1a000372:	462a      	mov	r2, r5
1a000374:	463b      	mov	r3, r7
1a000376:	f002 ffc5 	bl	1a003304 <printIntFormat>
   consolePrintString( "\r\n" );
1a00037a:	7820      	ldrb	r0, [r4, #0]
1a00037c:	4631      	mov	r1, r6
1a00037e:	f002 ffb5 	bl	1a0032ec <printString>

   // No poner funciones entre el envio de comando y la espera de respuesta
   retVal = receiveBytesUntilReceiveStringOrTimeoutBlocking(
1a000382:	4b58      	ldr	r3, [pc, #352]	; (1a0004e4 <esp01SendTCPIPData+0x1c8>)
1a000384:	7818      	ldrb	r0, [r3, #0]
1a000386:	4b58      	ldr	r3, [pc, #352]	; (1a0004e8 <esp01SendTCPIPData+0x1cc>)
1a000388:	9300      	str	r3, [sp, #0]
1a00038a:	f241 3288 	movw	r2, #5000	; 0x1388
1a00038e:	2300      	movs	r3, #0
1a000390:	e9cd 2302 	strd	r2, r3, [sp, #8]
1a000394:	4955      	ldr	r1, [pc, #340]	; (1a0004ec <esp01SendTCPIPData+0x1d0>)
1a000396:	2209      	movs	r2, #9
1a000398:	4b55      	ldr	r3, [pc, #340]	; (1a0004f0 <esp01SendTCPIPData+0x1d4>)
1a00039a:	f002 fdef 	bl	1a002f7c <receiveBytesUntilReceiveStringOrTimeoutBlocking>
               uartEsp01,
               "\r\n\r\nOK\r\n>", 9,
               espResponseBuffer, &espResponseBufferSize,
               5000
            );
   if( retVal ){
1a00039e:	2800      	cmp	r0, #0
1a0003a0:	d07c      	beq.n	1a00049c <esp01SendTCPIPData+0x180>

      // Imprimo todo lo recibido
      debugPrintString( espResponseBuffer );
1a0003a2:	4c53      	ldr	r4, [pc, #332]	; (1a0004f0 <esp01SendTCPIPData+0x1d4>)
1a0003a4:	4b49      	ldr	r3, [pc, #292]	; (1a0004cc <esp01SendTCPIPData+0x1b0>)
1a0003a6:	7818      	ldrb	r0, [r3, #0]
1a0003a8:	4621      	mov	r1, r4
1a0003aa:	f002 ff9f 	bl	1a0032ec <printString>

      // strData\r\n --------------------------------------------

      // Limpiar Buffer (es necesario antes de usar
      // "receiveBytesUntilReceiveStringOrTimeoutBlocking")
      esp01CleanRxBuffer();
1a0003ae:	f7ff ffa7 	bl	1a000300 <esp01CleanRxBuffer>

      // Envio los datos TCP/IP ------------------
      consolePrintString( strData );
1a0003b2:	4d4a      	ldr	r5, [pc, #296]	; (1a0004dc <esp01SendTCPIPData+0x1c0>)
1a0003b4:	7828      	ldrb	r0, [r5, #0]
1a0003b6:	4649      	mov	r1, r9
1a0003b8:	f002 ff98 	bl	1a0032ec <printString>
      consolePrintString( "\r\n" );
1a0003bc:	7828      	ldrb	r0, [r5, #0]
1a0003be:	4631      	mov	r1, r6
1a0003c0:	f002 ff94 	bl	1a0032ec <printString>

      // No poner funciones entre el envio de comando y la espera de respuesta
      retVal = receiveBytesUntilReceiveStringOrTimeoutBlocking(
1a0003c4:	4b47      	ldr	r3, [pc, #284]	; (1a0004e4 <esp01SendTCPIPData+0x1c8>)
1a0003c6:	7818      	ldrb	r0, [r3, #0]
1a0003c8:	4b47      	ldr	r3, [pc, #284]	; (1a0004e8 <esp01SendTCPIPData+0x1cc>)
1a0003ca:	9300      	str	r3, [sp, #0]
1a0003cc:	f241 3288 	movw	r2, #5000	; 0x1388
1a0003d0:	2300      	movs	r3, #0
1a0003d2:	e9cd 2302 	strd	r2, r3, [sp, #8]
1a0003d6:	4947      	ldr	r1, [pc, #284]	; (1a0004f4 <esp01SendTCPIPData+0x1d8>)
1a0003d8:	2209      	movs	r2, #9
1a0003da:	4623      	mov	r3, r4
1a0003dc:	f002 fdce 	bl	1a002f7c <receiveBytesUntilReceiveStringOrTimeoutBlocking>
                  uartEsp01,
                  "SEND OK\r\n", 9,
                  espResponseBuffer, &espResponseBufferSize,
                  5000
               );
      if( retVal ){
1a0003e0:	4605      	mov	r5, r0
1a0003e2:	2800      	cmp	r0, #0
1a0003e4:	d03f      	beq.n	1a000466 <esp01SendTCPIPData+0x14a>

         // Imprimo todo lo recibido
         debugPrintString( espResponseBuffer );
1a0003e6:	4b39      	ldr	r3, [pc, #228]	; (1a0004cc <esp01SendTCPIPData+0x1b0>)
1a0003e8:	7818      	ldrb	r0, [r3, #0]
1a0003ea:	4621      	mov	r1, r4
1a0003ec:	f002 ff7e 	bl	1a0032ec <printString>

         // Limpiar Buffer (es necesario antes de usar
         // "receiveBytesUntilReceiveStringOrTimeoutBlocking")
         esp01CleanRxBuffer();
1a0003f0:	f7ff ff86 	bl	1a000300 <esp01CleanRxBuffer>

         // Envio los datos TCP/IP ------------------
         consolePrintlnString( strData );
1a0003f4:	4d39      	ldr	r5, [pc, #228]	; (1a0004dc <esp01SendTCPIPData+0x1c0>)
1a0003f6:	7828      	ldrb	r0, [r5, #0]
1a0003f8:	4649      	mov	r1, r9
1a0003fa:	f002 ff77 	bl	1a0032ec <printString>
1a0003fe:	7828      	ldrb	r0, [r5, #0]
1a000400:	f002 ff78 	bl	1a0032f4 <printEnter>

         // No poner funciones entre el envio de comando y la espera de respuesta
         retVal = receiveBytesUntilReceiveStringOrTimeoutBlocking(
1a000404:	4b37      	ldr	r3, [pc, #220]	; (1a0004e4 <esp01SendTCPIPData+0x1c8>)
1a000406:	7818      	ldrb	r0, [r3, #0]
1a000408:	4b37      	ldr	r3, [pc, #220]	; (1a0004e8 <esp01SendTCPIPData+0x1cc>)
1a00040a:	9300      	str	r3, [sp, #0]
1a00040c:	f241 3288 	movw	r2, #5000	; 0x1388
1a000410:	2300      	movs	r3, #0
1a000412:	e9cd 2302 	strd	r2, r3, [sp, #8]
1a000416:	4938      	ldr	r1, [pc, #224]	; (1a0004f8 <esp01SendTCPIPData+0x1dc>)
1a000418:	2208      	movs	r2, #8
1a00041a:	4623      	mov	r3, r4
1a00041c:	f002 fdae 	bl	1a002f7c <receiveBytesUntilReceiveStringOrTimeoutBlocking>
                     "CLOSED\r\n", 8,
                     espResponseBuffer, &espResponseBufferSize,
                     5000
                  );

         if( retVal ){
1a000420:	4605      	mov	r5, r0
1a000422:	b128      	cbz	r0, 1a000430 <esp01SendTCPIPData+0x114>

            // DATO RECIBIDOOOOOOOOOOO -----------------

            // Imprimo todo lo recibido
            debugPrintString( espResponseBuffer );
1a000424:	4b29      	ldr	r3, [pc, #164]	; (1a0004cc <esp01SendTCPIPData+0x1b0>)
1a000426:	7818      	ldrb	r0, [r3, #0]
1a000428:	4621      	mov	r1, r4
1a00042a:	f002 ff5f 	bl	1a0032ec <printString>
1a00042e:	e049      	b.n	1a0004c4 <esp01SendTCPIPData+0x1a8>



         } else{
            debugPrintlnString( ">>>> Error al enviar los datos TCP/IP, en el envio del string" );
1a000430:	4c26      	ldr	r4, [pc, #152]	; (1a0004cc <esp01SendTCPIPData+0x1b0>)
1a000432:	7820      	ldrb	r0, [r4, #0]
1a000434:	4931      	ldr	r1, [pc, #196]	; (1a0004fc <esp01SendTCPIPData+0x1e0>)
1a000436:	f002 ff59 	bl	1a0032ec <printString>
1a00043a:	7820      	ldrb	r0, [r4, #0]
1a00043c:	f002 ff5a 	bl	1a0032f4 <printEnter>
            debugPrintlnString( ">>>> \"strData\", cuando el ESP01 pone el prompt > " );
1a000440:	7820      	ldrb	r0, [r4, #0]
1a000442:	492f      	ldr	r1, [pc, #188]	; (1a000500 <esp01SendTCPIPData+0x1e4>)
1a000444:	f002 ff52 	bl	1a0032ec <printString>
1a000448:	7820      	ldrb	r0, [r4, #0]
1a00044a:	f002 ff53 	bl	1a0032f4 <printEnter>
            debugPrintlnString( ">>>> y no se recibe la respuesta y \"CLOSED\"!!\r\n" );
1a00044e:	7820      	ldrb	r0, [r4, #0]
1a000450:	492c      	ldr	r1, [pc, #176]	; (1a000504 <esp01SendTCPIPData+0x1e8>)
1a000452:	f002 ff4b 	bl	1a0032ec <printString>
1a000456:	7820      	ldrb	r0, [r4, #0]
1a000458:	f002 ff4c 	bl	1a0032f4 <printEnter>

            // Imprimo todo lo recibido
            debugPrintString( espResponseBuffer );
1a00045c:	7820      	ldrb	r0, [r4, #0]
1a00045e:	4924      	ldr	r1, [pc, #144]	; (1a0004f0 <esp01SendTCPIPData+0x1d4>)
1a000460:	f002 ff44 	bl	1a0032ec <printString>
1a000464:	e02e      	b.n	1a0004c4 <esp01SendTCPIPData+0x1a8>
         }


      } else{
         debugPrintlnString( ">>>> Error al enviar los datos TCP/IP, en el envio del string" );
1a000466:	4c19      	ldr	r4, [pc, #100]	; (1a0004cc <esp01SendTCPIPData+0x1b0>)
1a000468:	7820      	ldrb	r0, [r4, #0]
1a00046a:	4924      	ldr	r1, [pc, #144]	; (1a0004fc <esp01SendTCPIPData+0x1e0>)
1a00046c:	f002 ff3e 	bl	1a0032ec <printString>
1a000470:	7820      	ldrb	r0, [r4, #0]
1a000472:	f002 ff3f 	bl	1a0032f4 <printEnter>
         debugPrintlnString( ">>>> \"strData\", cuando el ESP01 pone el prompt > " );
1a000476:	7820      	ldrb	r0, [r4, #0]
1a000478:	4921      	ldr	r1, [pc, #132]	; (1a000500 <esp01SendTCPIPData+0x1e4>)
1a00047a:	f002 ff37 	bl	1a0032ec <printString>
1a00047e:	7820      	ldrb	r0, [r4, #0]
1a000480:	f002 ff38 	bl	1a0032f4 <printEnter>
         debugPrintlnString( ">>>> y no se recibe \"SEND OK\"!!\r\n" );
1a000484:	7820      	ldrb	r0, [r4, #0]
1a000486:	4920      	ldr	r1, [pc, #128]	; (1a000508 <esp01SendTCPIPData+0x1ec>)
1a000488:	f002 ff30 	bl	1a0032ec <printString>
1a00048c:	7820      	ldrb	r0, [r4, #0]
1a00048e:	f002 ff31 	bl	1a0032f4 <printEnter>

         // Imprimo todo lo recibido
         debugPrintString( espResponseBuffer );
1a000492:	7820      	ldrb	r0, [r4, #0]
1a000494:	4916      	ldr	r1, [pc, #88]	; (1a0004f0 <esp01SendTCPIPData+0x1d4>)
1a000496:	f002 ff29 	bl	1a0032ec <printString>
1a00049a:	e013      	b.n	1a0004c4 <esp01SendTCPIPData+0x1a8>
1a00049c:	4605      	mov	r5, r0
      }

   } else{
      debugPrintlnString( ">>>> Error al enviar los datos TCP/IP, en comando" );
1a00049e:	4c0b      	ldr	r4, [pc, #44]	; (1a0004cc <esp01SendTCPIPData+0x1b0>)
1a0004a0:	7820      	ldrb	r0, [r4, #0]
1a0004a2:	491a      	ldr	r1, [pc, #104]	; (1a00050c <esp01SendTCPIPData+0x1f0>)
1a0004a4:	f002 ff22 	bl	1a0032ec <printString>
1a0004a8:	7820      	ldrb	r0, [r4, #0]
1a0004aa:	f002 ff23 	bl	1a0032f4 <printEnter>
      debugPrintlnString( ">>>> \"AT+CIPSEND\"!!\r\n" );
1a0004ae:	7820      	ldrb	r0, [r4, #0]
1a0004b0:	4917      	ldr	r1, [pc, #92]	; (1a000510 <esp01SendTCPIPData+0x1f4>)
1a0004b2:	f002 ff1b 	bl	1a0032ec <printString>
1a0004b6:	7820      	ldrb	r0, [r4, #0]
1a0004b8:	f002 ff1c 	bl	1a0032f4 <printEnter>
      // Imprimo todo lo recibido
      debugPrintString( espResponseBuffer );
1a0004bc:	7820      	ldrb	r0, [r4, #0]
1a0004be:	490c      	ldr	r1, [pc, #48]	; (1a0004f0 <esp01SendTCPIPData+0x1d4>)
1a0004c0:	f002 ff14 	bl	1a0032ec <printString>
   }
   return retVal;
}
1a0004c4:	4628      	mov	r0, r5
1a0004c6:	b005      	add	sp, #20
1a0004c8:	e8bd 83f0 	ldmia.w	sp!, {r4, r5, r6, r7, r8, r9, pc}
1a0004cc:	10000091 	.word	0x10000091
1a0004d0:	1a004c20 	.word	0x1a004c20
1a0004d4:	1a004c48 	.word	0x1a004c48
1a0004d8:	1a005120 	.word	0x1a005120
1a0004dc:	10000090 	.word	0x10000090
1a0004e0:	1a004c5c 	.word	0x1a004c5c
1a0004e4:	10000008 	.word	0x10000008
1a0004e8:	10000004 	.word	0x10000004
1a0004ec:	1a004c68 	.word	0x1a004c68
1a0004f0:	100005d8 	.word	0x100005d8
1a0004f4:	1a004c74 	.word	0x1a004c74
1a0004f8:	1a004c80 	.word	0x1a004c80
1a0004fc:	1a004c8c 	.word	0x1a004c8c
1a000500:	1a004ccc 	.word	0x1a004ccc
1a000504:	1a004d00 	.word	0x1a004d00
1a000508:	1a004d30 	.word	0x1a004d30
1a00050c:	1a004d54 	.word	0x1a004d54
1a000510:	1a004d88 	.word	0x1a004d88

1a000514 <esp01ConnectToServer>:


// AT+CIPSTART="TCP","api.thingspeak.com",80
bool_t esp01ConnectToServer( char* url, uint32_t port ){
1a000514:	e92d 4ff0 	stmdb	sp!, {r4, r5, r6, r7, r8, r9, sl, fp, lr}
1a000518:	b085      	sub	sp, #20
1a00051a:	4607      	mov	r7, r0
1a00051c:	468b      	mov	fp, r1

   // AT+CIPSTART="TCP","url",port ---------------------------

   // Limpiar Buffer (es necesario antes de usar
   // "receiveBytesUntilReceiveStringOrTimeoutBlocking")
   esp01CleanRxBuffer();
1a00051e:	f7ff feef 	bl	1a000300 <esp01CleanRxBuffer>

   debugPrintString( ">>>> Conectando al servidor \"" );
1a000522:	4c41      	ldr	r4, [pc, #260]	; (1a000628 <esp01ConnectToServer+0x114>)
1a000524:	7820      	ldrb	r0, [r4, #0]
1a000526:	4941      	ldr	r1, [pc, #260]	; (1a00062c <esp01ConnectToServer+0x118>)
1a000528:	f002 fee0 	bl	1a0032ec <printString>
   debugPrintString( url );
1a00052c:	7820      	ldrb	r0, [r4, #0]
1a00052e:	4639      	mov	r1, r7
1a000530:	f002 fedc 	bl	1a0032ec <printString>
   debugPrintString( "\", puerto \"" );
1a000534:	7820      	ldrb	r0, [r4, #0]
1a000536:	493e      	ldr	r1, [pc, #248]	; (1a000630 <esp01ConnectToServer+0x11c>)
1a000538:	f002 fed8 	bl	1a0032ec <printString>
   debugPrintInt( port );
1a00053c:	2500      	movs	r5, #0
1a00053e:	7820      	ldrb	r0, [r4, #0]
1a000540:	260a      	movs	r6, #10
1a000542:	9600      	str	r6, [sp, #0]
1a000544:	465a      	mov	r2, fp
1a000546:	462b      	mov	r3, r5
1a000548:	f002 fedc 	bl	1a003304 <printIntFormat>
   debugPrintlnString( "\"..." );
1a00054c:	7820      	ldrb	r0, [r4, #0]
1a00054e:	4939      	ldr	r1, [pc, #228]	; (1a000634 <esp01ConnectToServer+0x120>)
1a000550:	f002 fecc 	bl	1a0032ec <printString>
1a000554:	7820      	ldrb	r0, [r4, #0]
1a000556:	f002 fecd 	bl	1a0032f4 <printEnter>

   debugPrintString( ">>>> AT+CIPSTART=\"TCP\",\"" );
1a00055a:	7820      	ldrb	r0, [r4, #0]
1a00055c:	4936      	ldr	r1, [pc, #216]	; (1a000638 <esp01ConnectToServer+0x124>)
1a00055e:	f002 fec5 	bl	1a0032ec <printString>
   debugPrintString( url );
1a000562:	7820      	ldrb	r0, [r4, #0]
1a000564:	4639      	mov	r1, r7
1a000566:	f002 fec1 	bl	1a0032ec <printString>
   debugPrintString( "\"," );
1a00056a:	f8df a0f0 	ldr.w	sl, [pc, #240]	; 1a00065c <esp01ConnectToServer+0x148>
1a00056e:	7820      	ldrb	r0, [r4, #0]
1a000570:	4651      	mov	r1, sl
1a000572:	f002 febb 	bl	1a0032ec <printString>
   debugPrintInt( port );
1a000576:	7820      	ldrb	r0, [r4, #0]
1a000578:	9600      	str	r6, [sp, #0]
1a00057a:	465a      	mov	r2, fp
1a00057c:	462b      	mov	r3, r5
1a00057e:	f002 fec1 	bl	1a003304 <printIntFormat>
   debugPrintString( "\r\n" );
1a000582:	f8df 90dc 	ldr.w	r9, [pc, #220]	; 1a000660 <esp01ConnectToServer+0x14c>
1a000586:	7820      	ldrb	r0, [r4, #0]
1a000588:	4649      	mov	r1, r9
1a00058a:	f002 feaf 	bl	1a0032ec <printString>

   consolePrintString( "AT+CIPSTART=\"TCP\",\"" );
1a00058e:	4c2b      	ldr	r4, [pc, #172]	; (1a00063c <esp01ConnectToServer+0x128>)
1a000590:	7820      	ldrb	r0, [r4, #0]
1a000592:	492b      	ldr	r1, [pc, #172]	; (1a000640 <esp01ConnectToServer+0x12c>)
1a000594:	f002 feaa 	bl	1a0032ec <printString>
   consolePrintString( url );
1a000598:	7820      	ldrb	r0, [r4, #0]
1a00059a:	4639      	mov	r1, r7
1a00059c:	f002 fea6 	bl	1a0032ec <printString>
   consolePrintString( "\"," );
1a0005a0:	7820      	ldrb	r0, [r4, #0]
1a0005a2:	4651      	mov	r1, sl
1a0005a4:	f002 fea2 	bl	1a0032ec <printString>
   consolePrintInt( port );
1a0005a8:	7820      	ldrb	r0, [r4, #0]
1a0005aa:	9600      	str	r6, [sp, #0]
1a0005ac:	465a      	mov	r2, fp
1a0005ae:	462b      	mov	r3, r5
1a0005b0:	f002 fea8 	bl	1a003304 <printIntFormat>
   consolePrintString( "\r\n" );
1a0005b4:	7820      	ldrb	r0, [r4, #0]
1a0005b6:	4649      	mov	r1, r9
1a0005b8:	f002 fe98 	bl	1a0032ec <printString>

   // No poner funciones entre el envio de comando y la espera de respuesta
   retVal = receiveBytesUntilReceiveStringOrTimeoutBlocking(
1a0005bc:	4b21      	ldr	r3, [pc, #132]	; (1a000644 <esp01ConnectToServer+0x130>)
1a0005be:	7818      	ldrb	r0, [r3, #0]
1a0005c0:	4b21      	ldr	r3, [pc, #132]	; (1a000648 <esp01ConnectToServer+0x134>)
1a0005c2:	9300      	str	r3, [sp, #0]
1a0005c4:	f242 7210 	movw	r2, #10000	; 0x2710
1a0005c8:	2300      	movs	r3, #0
1a0005ca:	e9cd 2302 	strd	r2, r3, [sp, #8]
1a0005ce:	491f      	ldr	r1, [pc, #124]	; (1a00064c <esp01ConnectToServer+0x138>)
1a0005d0:	220f      	movs	r2, #15
1a0005d2:	4b1f      	ldr	r3, [pc, #124]	; (1a000650 <esp01ConnectToServer+0x13c>)
1a0005d4:	f002 fcd2 	bl	1a002f7c <receiveBytesUntilReceiveStringOrTimeoutBlocking>
               uartEsp01,
               "CONNECT\r\n\r\nOK\r\n", 15,
               espResponseBuffer, &espResponseBufferSize,
               10000
            );
   if( !retVal ){
1a0005d8:	4680      	mov	r8, r0
1a0005da:	b9e0      	cbnz	r0, 1a000616 <esp01ConnectToServer+0x102>
      debugPrintString( ">>>>    Error: No se puede conectar al servidor: \"" );
1a0005dc:	4c12      	ldr	r4, [pc, #72]	; (1a000628 <esp01ConnectToServer+0x114>)
1a0005de:	7820      	ldrb	r0, [r4, #0]
1a0005e0:	491c      	ldr	r1, [pc, #112]	; (1a000654 <esp01ConnectToServer+0x140>)
1a0005e2:	f002 fe83 	bl	1a0032ec <printString>
      debugPrintlnString( url );
1a0005e6:	7820      	ldrb	r0, [r4, #0]
1a0005e8:	4639      	mov	r1, r7
1a0005ea:	f002 fe7f 	bl	1a0032ec <printString>
1a0005ee:	7820      	ldrb	r0, [r4, #0]
1a0005f0:	f002 fe80 	bl	1a0032f4 <printEnter>
      debugPrintString( "\"," );
1a0005f4:	7820      	ldrb	r0, [r4, #0]
1a0005f6:	4651      	mov	r1, sl
1a0005f8:	f002 fe78 	bl	1a0032ec <printString>
      debugPrintInt( port );
1a0005fc:	7820      	ldrb	r0, [r4, #0]
1a0005fe:	9600      	str	r6, [sp, #0]
1a000600:	465a      	mov	r2, fp
1a000602:	462b      	mov	r3, r5
1a000604:	f002 fe7e 	bl	1a003304 <printIntFormat>
      debugPrintlnString( "\"!!\r\n" );
1a000608:	7820      	ldrb	r0, [r4, #0]
1a00060a:	4913      	ldr	r1, [pc, #76]	; (1a000658 <esp01ConnectToServer+0x144>)
1a00060c:	f002 fe6e 	bl	1a0032ec <printString>
1a000610:	7820      	ldrb	r0, [r4, #0]
1a000612:	f002 fe6f 	bl	1a0032f4 <printEnter>
   }
   // Imprimo todo lo recibido
   debugPrintString( espResponseBuffer );
1a000616:	4b04      	ldr	r3, [pc, #16]	; (1a000628 <esp01ConnectToServer+0x114>)
1a000618:	7818      	ldrb	r0, [r3, #0]
1a00061a:	490d      	ldr	r1, [pc, #52]	; (1a000650 <esp01ConnectToServer+0x13c>)
1a00061c:	f002 fe66 	bl	1a0032ec <printString>
   return retVal;
}
1a000620:	4640      	mov	r0, r8
1a000622:	b005      	add	sp, #20
1a000624:	e8bd 8ff0 	ldmia.w	sp!, {r4, r5, r6, r7, r8, r9, sl, fp, pc}
1a000628:	10000091 	.word	0x10000091
1a00062c:	1a004da0 	.word	0x1a004da0
1a000630:	1a004dc0 	.word	0x1a004dc0
1a000634:	1a0050b8 	.word	0x1a0050b8
1a000638:	1a004dcc 	.word	0x1a004dcc
1a00063c:	10000090 	.word	0x10000090
1a000640:	1a004dec 	.word	0x1a004dec
1a000644:	10000008 	.word	0x10000008
1a000648:	10000004 	.word	0x10000004
1a00064c:	1a004e00 	.word	0x1a004e00
1a000650:	100005d8 	.word	0x100005d8
1a000654:	1a004e10 	.word	0x1a004e10
1a000658:	1a004d98 	.word	0x1a004d98
1a00065c:	1a004de8 	.word	0x1a004de8
1a000660:	1a005120 	.word	0x1a005120

1a000664 <esp01SendTPCIPDataToServer>:
   espResponseBufferSize = ESP01_RX_BUFF_SIZE;
   memset( espResponseBuffer, 0, espResponseBufferSize );
}

// AT+CIPSTART="TCP","api.thingspeak.com",80
bool_t esp01SendTPCIPDataToServer( char* url, uint32_t port, char* strData, uint32_t strDataLen ){
1a000664:	e92d 41f0 	stmdb	sp!, {r4, r5, r6, r7, r8, lr}
1a000668:	b082      	sub	sp, #8
1a00066a:	4606      	mov	r6, r0
1a00066c:	460d      	mov	r5, r1
1a00066e:	4617      	mov	r7, r2
1a000670:	4698      	mov	r8, r3

   // Enviar dato "data" al servidor "url", puerto "port".
   debugPrintlnString( ">>>> ===========================================================" );
1a000672:	4c1f      	ldr	r4, [pc, #124]	; (1a0006f0 <esp01SendTPCIPDataToServer+0x8c>)
1a000674:	7820      	ldrb	r0, [r4, #0]
1a000676:	491f      	ldr	r1, [pc, #124]	; (1a0006f4 <esp01SendTPCIPDataToServer+0x90>)
1a000678:	f002 fe38 	bl	1a0032ec <printString>
1a00067c:	7820      	ldrb	r0, [r4, #0]
1a00067e:	f002 fe39 	bl	1a0032f4 <printEnter>
   debugPrintString( ">>>> Enviar dato: \"" );
1a000682:	7820      	ldrb	r0, [r4, #0]
1a000684:	491c      	ldr	r1, [pc, #112]	; (1a0006f8 <esp01SendTPCIPDataToServer+0x94>)
1a000686:	f002 fe31 	bl	1a0032ec <printString>
   debugPrintString( strData );
1a00068a:	7820      	ldrb	r0, [r4, #0]
1a00068c:	4639      	mov	r1, r7
1a00068e:	f002 fe2d 	bl	1a0032ec <printString>
   debugPrintString( "\"\r\n>>>> al servidor \"" );
1a000692:	7820      	ldrb	r0, [r4, #0]
1a000694:	4919      	ldr	r1, [pc, #100]	; (1a0006fc <esp01SendTPCIPDataToServer+0x98>)
1a000696:	f002 fe29 	bl	1a0032ec <printString>
   debugPrintString( url );
1a00069a:	7820      	ldrb	r0, [r4, #0]
1a00069c:	4631      	mov	r1, r6
1a00069e:	f002 fe25 	bl	1a0032ec <printString>
   debugPrintString( "\", puerto \"" );
1a0006a2:	7820      	ldrb	r0, [r4, #0]
1a0006a4:	4916      	ldr	r1, [pc, #88]	; (1a000700 <esp01SendTPCIPDataToServer+0x9c>)
1a0006a6:	f002 fe21 	bl	1a0032ec <printString>
   debugPrintInt( port );
1a0006aa:	7820      	ldrb	r0, [r4, #0]
1a0006ac:	230a      	movs	r3, #10
1a0006ae:	9300      	str	r3, [sp, #0]
1a0006b0:	462a      	mov	r2, r5
1a0006b2:	2300      	movs	r3, #0
1a0006b4:	f002 fe26 	bl	1a003304 <printIntFormat>
   debugPrintlnString( "\"..." );
1a0006b8:	7820      	ldrb	r0, [r4, #0]
1a0006ba:	4912      	ldr	r1, [pc, #72]	; (1a000704 <esp01SendTPCIPDataToServer+0xa0>)
1a0006bc:	f002 fe16 	bl	1a0032ec <printString>
1a0006c0:	7820      	ldrb	r0, [r4, #0]
1a0006c2:	f002 fe17 	bl	1a0032f4 <printEnter>
   debugPrintEnter();
1a0006c6:	7820      	ldrb	r0, [r4, #0]
1a0006c8:	f002 fe14 	bl	1a0032f4 <printEnter>

   // AT+CIPSTART="TCP","url",port ---------------------------
   if( !esp01ConnectToServer( url, port ) )
1a0006cc:	4630      	mov	r0, r6
1a0006ce:	4629      	mov	r1, r5
1a0006d0:	f7ff ff20 	bl	1a000514 <esp01ConnectToServer>
1a0006d4:	4603      	mov	r3, r0
1a0006d6:	b130      	cbz	r0, 1a0006e6 <esp01SendTPCIPDataToServer+0x82>
      return FALSE;

   // Ejemplo:
   // AT+CIPSEND=47 ------------------------------------------
   // GET /update?api_key=7E7IOJ276BSDLOBA&field1=66 ---------
   if( !esp01SendTCPIPData( strData, strDataLen ) )
1a0006d8:	4638      	mov	r0, r7
1a0006da:	4641      	mov	r1, r8
1a0006dc:	f7ff fe1e 	bl	1a00031c <esp01SendTCPIPData>
1a0006e0:	4603      	mov	r3, r0
1a0006e2:	b100      	cbz	r0, 1a0006e6 <esp01SendTPCIPDataToServer+0x82>
      return FALSE;

   return TRUE;
1a0006e4:	2301      	movs	r3, #1
}
1a0006e6:	4618      	mov	r0, r3
1a0006e8:	b002      	add	sp, #8
1a0006ea:	e8bd 81f0 	ldmia.w	sp!, {r4, r5, r6, r7, r8, pc}
1a0006ee:	bf00      	nop
1a0006f0:	10000091 	.word	0x10000091
1a0006f4:	1a004e44 	.word	0x1a004e44
1a0006f8:	1a004e88 	.word	0x1a004e88
1a0006fc:	1a004e9c 	.word	0x1a004e9c
1a000700:	1a004dc0 	.word	0x1a004dc0
1a000704:	1a0050b8 	.word	0x1a0050b8

1a000708 <esp01ConnectToWifiAP>:
   debugPrintString( espResponseBuffer );
   return retVal;
}


bool_t esp01ConnectToWifiAP( char* wiFiSSID, char* wiFiPassword ){
1a000708:	b570      	push	{r4, r5, r6, lr}
1a00070a:	b084      	sub	sp, #16
1a00070c:	4605      	mov	r5, r0
1a00070e:	460e      	mov	r6, r1

   // AT+CWJAP="wiFiSSID","wiFiPassword" ---------------------

   // Limpiar Buffer (es necesario antes de usar
   // "receiveBytesUntilReceiveStringOrTimeoutBlocking")
   esp01CleanRxBuffer();
1a000710:	f7ff fdf6 	bl	1a000300 <esp01CleanRxBuffer>

   // Conectar a la red Wi-Fi. se envia AT+CWJAP="wiFiSSID","wiFiPassword"
   debugPrintString( ">>>> Conectando a la red Wi-Fi: \"" );
1a000714:	4c2f      	ldr	r4, [pc, #188]	; (1a0007d4 <esp01ConnectToWifiAP+0xcc>)
1a000716:	7820      	ldrb	r0, [r4, #0]
1a000718:	492f      	ldr	r1, [pc, #188]	; (1a0007d8 <esp01ConnectToWifiAP+0xd0>)
1a00071a:	f002 fde7 	bl	1a0032ec <printString>
   debugPrintString( wiFiSSID );
1a00071e:	7820      	ldrb	r0, [r4, #0]
1a000720:	4629      	mov	r1, r5
1a000722:	f002 fde3 	bl	1a0032ec <printString>
   debugPrintlnString( "\"..." );
1a000726:	7820      	ldrb	r0, [r4, #0]
1a000728:	492c      	ldr	r1, [pc, #176]	; (1a0007dc <esp01ConnectToWifiAP+0xd4>)
1a00072a:	f002 fddf 	bl	1a0032ec <printString>
1a00072e:	7820      	ldrb	r0, [r4, #0]
1a000730:	f002 fde0 	bl	1a0032f4 <printEnter>

   consolePrintString( "AT+CWJAP=\"" );
1a000734:	4c2a      	ldr	r4, [pc, #168]	; (1a0007e0 <esp01ConnectToWifiAP+0xd8>)
1a000736:	7820      	ldrb	r0, [r4, #0]
1a000738:	492a      	ldr	r1, [pc, #168]	; (1a0007e4 <esp01ConnectToWifiAP+0xdc>)
1a00073a:	f002 fdd7 	bl	1a0032ec <printString>
   consolePrintString( wiFiSSID );
1a00073e:	7820      	ldrb	r0, [r4, #0]
1a000740:	4629      	mov	r1, r5
1a000742:	f002 fdd3 	bl	1a0032ec <printString>
   consolePrintString( "\",\"" );
1a000746:	7820      	ldrb	r0, [r4, #0]
1a000748:	4927      	ldr	r1, [pc, #156]	; (1a0007e8 <esp01ConnectToWifiAP+0xe0>)
1a00074a:	f002 fdcf 	bl	1a0032ec <printString>
   consolePrintString( wiFiPassword );
1a00074e:	7820      	ldrb	r0, [r4, #0]
1a000750:	4631      	mov	r1, r6
1a000752:	f002 fdcb 	bl	1a0032ec <printString>
   consolePrintString( "\"\r\n" );
1a000756:	7820      	ldrb	r0, [r4, #0]
1a000758:	4924      	ldr	r1, [pc, #144]	; (1a0007ec <esp01ConnectToWifiAP+0xe4>)
1a00075a:	f002 fdc7 	bl	1a0032ec <printString>

   // No poner funciones entre el envio de comando y la espera de respuesta
   retVal = receiveBytesUntilReceiveStringOrTimeoutBlocking(
1a00075e:	4b24      	ldr	r3, [pc, #144]	; (1a0007f0 <esp01ConnectToWifiAP+0xe8>)
1a000760:	7818      	ldrb	r0, [r3, #0]
1a000762:	4b24      	ldr	r3, [pc, #144]	; (1a0007f4 <esp01ConnectToWifiAP+0xec>)
1a000764:	9300      	str	r3, [sp, #0]
1a000766:	f242 7210 	movw	r2, #10000	; 0x2710
1a00076a:	2300      	movs	r3, #0
1a00076c:	e9cd 2302 	strd	r2, r3, [sp, #8]
1a000770:	4921      	ldr	r1, [pc, #132]	; (1a0007f8 <esp01ConnectToWifiAP+0xf0>)
1a000772:	2223      	movs	r2, #35	; 0x23
1a000774:	4b21      	ldr	r3, [pc, #132]	; (1a0007fc <esp01ConnectToWifiAP+0xf4>)
1a000776:	f002 fc01 	bl	1a002f7c <receiveBytesUntilReceiveStringOrTimeoutBlocking>
               uartEsp01,
               "WIFI CONNECTED\r\nWIFI GOT IP\r\n\r\nOK\r\n", 35,
               espResponseBuffer, &espResponseBufferSize,
               10000
            );
   if( retVal ){
1a00077a:	4606      	mov	r6, r0
1a00077c:	b180      	cbz	r0, 1a0007a0 <esp01ConnectToWifiAP+0x98>
      // WIFI CONNECTED
      // WIFI GOT IP
      //
      // OK

      index = strstr( (const char*)espResponseBuffer, (const char*)"WIFI CONNECTED" );
1a00077e:	481f      	ldr	r0, [pc, #124]	; (1a0007fc <esp01ConnectToWifiAP+0xf4>)
1a000780:	491f      	ldr	r1, [pc, #124]	; (1a000800 <esp01ConnectToWifiAP+0xf8>)
1a000782:	f004 fa34 	bl	1a004bee <strstr>
      if( index != 0 ){
1a000786:	4601      	mov	r1, r0
1a000788:	b120      	cbz	r0, 1a000794 <esp01ConnectToWifiAP+0x8c>
         // Muestro desde " WIFI CONNECTED" en adelante
         debugPrintString( index );
1a00078a:	4b12      	ldr	r3, [pc, #72]	; (1a0007d4 <esp01ConnectToWifiAP+0xcc>)
1a00078c:	7818      	ldrb	r0, [r3, #0]
1a00078e:	f002 fdad 	bl	1a0032ec <printString>
1a000792:	e01c      	b.n	1a0007ce <esp01ConnectToWifiAP+0xc6>
      } else{
         // Muestro todo en caso de error
         debugPrintString( espResponseBuffer );
1a000794:	4b0f      	ldr	r3, [pc, #60]	; (1a0007d4 <esp01ConnectToWifiAP+0xcc>)
1a000796:	7818      	ldrb	r0, [r3, #0]
1a000798:	4918      	ldr	r1, [pc, #96]	; (1a0007fc <esp01ConnectToWifiAP+0xf4>)
1a00079a:	f002 fda7 	bl	1a0032ec <printString>
1a00079e:	e016      	b.n	1a0007ce <esp01ConnectToWifiAP+0xc6>
      }
   } else{
      debugPrintString( ">>>>    Error: No se puede conectar a la red: \"" );
1a0007a0:	4c0c      	ldr	r4, [pc, #48]	; (1a0007d4 <esp01ConnectToWifiAP+0xcc>)
1a0007a2:	7820      	ldrb	r0, [r4, #0]
1a0007a4:	4917      	ldr	r1, [pc, #92]	; (1a000804 <esp01ConnectToWifiAP+0xfc>)
1a0007a6:	f002 fda1 	bl	1a0032ec <printString>
      debugPrintlnString( wiFiSSID );
1a0007aa:	7820      	ldrb	r0, [r4, #0]
1a0007ac:	4629      	mov	r1, r5
1a0007ae:	f002 fd9d 	bl	1a0032ec <printString>
1a0007b2:	7820      	ldrb	r0, [r4, #0]
1a0007b4:	f002 fd9e 	bl	1a0032f4 <printEnter>
      debugPrintlnString( "\"!!\r\n" );
1a0007b8:	7820      	ldrb	r0, [r4, #0]
1a0007ba:	4913      	ldr	r1, [pc, #76]	; (1a000808 <esp01ConnectToWifiAP+0x100>)
1a0007bc:	f002 fd96 	bl	1a0032ec <printString>
1a0007c0:	7820      	ldrb	r0, [r4, #0]
1a0007c2:	f002 fd97 	bl	1a0032f4 <printEnter>

      // Muestro todo en caso de error
      debugPrintString( espResponseBuffer );
1a0007c6:	7820      	ldrb	r0, [r4, #0]
1a0007c8:	490c      	ldr	r1, [pc, #48]	; (1a0007fc <esp01ConnectToWifiAP+0xf4>)
1a0007ca:	f002 fd8f 	bl	1a0032ec <printString>
   }
   return retVal;
}
1a0007ce:	4630      	mov	r0, r6
1a0007d0:	b004      	add	sp, #16
1a0007d2:	bd70      	pop	{r4, r5, r6, pc}
1a0007d4:	10000091 	.word	0x10000091
1a0007d8:	1a004eb4 	.word	0x1a004eb4
1a0007dc:	1a0050b8 	.word	0x1a0050b8
1a0007e0:	10000090 	.word	0x10000090
1a0007e4:	1a004ed8 	.word	0x1a004ed8
1a0007e8:	1a004dfc 	.word	0x1a004dfc
1a0007ec:	1a004ee4 	.word	0x1a004ee4
1a0007f0:	10000008 	.word	0x10000008
1a0007f4:	10000004 	.word	0x10000004
1a0007f8:	1a004ee8 	.word	0x1a004ee8
1a0007fc:	100005d8 	.word	0x100005d8
1a000800:	1a004f0c 	.word	0x1a004f0c
1a000804:	1a004f1c 	.word	0x1a004f1c
1a000808:	1a004d98 	.word	0x1a004d98

1a00080c <esp01ShowWiFiNetworks>:


bool_t esp01ShowWiFiNetworks( void ){
1a00080c:	b530      	push	{r4, r5, lr}
1a00080e:	b085      	sub	sp, #20

   // AT+CWLAP -----------------------------------------------

   // Limpiar Buffer (es necesario antes de usar
   // "receiveBytesUntilReceiveStringOrTimeoutBlocking")
   esp01CleanRxBuffer();
1a000810:	f7ff fd76 	bl	1a000300 <esp01CleanRxBuffer>

   // Mostrar lista de AP enviando "AT+CWLAP"
   debugPrintlnString( ">>>> Consultando las redes Wi-Fi disponibles.\r\n>>>>    Enviando \"AT+CWLAP\"..." );
1a000814:	4c16      	ldr	r4, [pc, #88]	; (1a000870 <esp01ShowWiFiNetworks+0x64>)
1a000816:	7820      	ldrb	r0, [r4, #0]
1a000818:	4916      	ldr	r1, [pc, #88]	; (1a000874 <esp01ShowWiFiNetworks+0x68>)
1a00081a:	f002 fd67 	bl	1a0032ec <printString>
1a00081e:	7820      	ldrb	r0, [r4, #0]
1a000820:	f002 fd68 	bl	1a0032f4 <printEnter>
   consolePrintString( "AT+CWLAP\r\n" );
1a000824:	4b14      	ldr	r3, [pc, #80]	; (1a000878 <esp01ShowWiFiNetworks+0x6c>)
1a000826:	7818      	ldrb	r0, [r3, #0]
1a000828:	4914      	ldr	r1, [pc, #80]	; (1a00087c <esp01ShowWiFiNetworks+0x70>)
1a00082a:	f002 fd5f 	bl	1a0032ec <printString>
   // No poner funciones entre el envio de comando y la espera de respuesta
   retVal = receiveBytesUntilReceiveStringOrTimeoutBlocking(
1a00082e:	4b14      	ldr	r3, [pc, #80]	; (1a000880 <esp01ShowWiFiNetworks+0x74>)
1a000830:	7818      	ldrb	r0, [r3, #0]
1a000832:	4b14      	ldr	r3, [pc, #80]	; (1a000884 <esp01ShowWiFiNetworks+0x78>)
1a000834:	9300      	str	r3, [sp, #0]
1a000836:	f644 6220 	movw	r2, #20000	; 0x4e20
1a00083a:	2300      	movs	r3, #0
1a00083c:	e9cd 2302 	strd	r2, r3, [sp, #8]
1a000840:	4911      	ldr	r1, [pc, #68]	; (1a000888 <esp01ShowWiFiNetworks+0x7c>)
1a000842:	2209      	movs	r2, #9
1a000844:	4b11      	ldr	r3, [pc, #68]	; (1a00088c <esp01ShowWiFiNetworks+0x80>)
1a000846:	f002 fb99 	bl	1a002f7c <receiveBytesUntilReceiveStringOrTimeoutBlocking>
               uartEsp01,
               ")\r\n\r\nOK\r\n", 9,
               espResponseBuffer, &espResponseBufferSize,
               20000
            );
   if( !retVal ){
1a00084a:	4604      	mov	r4, r0
1a00084c:	b938      	cbnz	r0, 1a00085e <esp01ShowWiFiNetworks+0x52>
      debugPrintlnString( ">>>>    Error: No se encuentran redes disponibles!!\r\n" );
1a00084e:	4d08      	ldr	r5, [pc, #32]	; (1a000870 <esp01ShowWiFiNetworks+0x64>)
1a000850:	7828      	ldrb	r0, [r5, #0]
1a000852:	490f      	ldr	r1, [pc, #60]	; (1a000890 <esp01ShowWiFiNetworks+0x84>)
1a000854:	f002 fd4a 	bl	1a0032ec <printString>
1a000858:	7828      	ldrb	r0, [r5, #0]
1a00085a:	f002 fd4b 	bl	1a0032f4 <printEnter>
   }
   // Imprimo todo lo recibido
   debugPrintString( espResponseBuffer );
1a00085e:	4b04      	ldr	r3, [pc, #16]	; (1a000870 <esp01ShowWiFiNetworks+0x64>)
1a000860:	7818      	ldrb	r0, [r3, #0]
1a000862:	490a      	ldr	r1, [pc, #40]	; (1a00088c <esp01ShowWiFiNetworks+0x80>)
1a000864:	f002 fd42 	bl	1a0032ec <printString>
   return retVal;
}
1a000868:	4620      	mov	r0, r4
1a00086a:	b005      	add	sp, #20
1a00086c:	bd30      	pop	{r4, r5, pc}
1a00086e:	bf00      	nop
1a000870:	10000091 	.word	0x10000091
1a000874:	1a004f4c 	.word	0x1a004f4c
1a000878:	10000090 	.word	0x10000090
1a00087c:	1a004f9c 	.word	0x1a004f9c
1a000880:	10000008 	.word	0x10000008
1a000884:	10000004 	.word	0x10000004
1a000888:	1a004fa8 	.word	0x1a004fa8
1a00088c:	100005d8 	.word	0x100005d8
1a000890:	1a004fb4 	.word	0x1a004fb4

1a000894 <esp01Init>:


bool_t esp01Init( uartMap_t uartForEsp, uartMap_t uartForDebug, uint32_t baudRate ){
1a000894:	b5f0      	push	{r4, r5, r6, r7, lr}
1a000896:	b083      	sub	sp, #12
1a000898:	4617      	mov	r7, r2

   bool_t retVal = FALSE;

   uartEsp01 = uartForEsp;
1a00089a:	4d25      	ldr	r5, [pc, #148]	; (1a000930 <esp01Init+0x9c>)
1a00089c:	7028      	strb	r0, [r5, #0]
   uartDebug = uartForDebug;
1a00089e:	4b25      	ldr	r3, [pc, #148]	; (1a000934 <esp01Init+0xa0>)
1a0008a0:	7019      	strb	r1, [r3, #0]

   // Initialize HW ------------------------------------------

   // Inicializar UART_USB como salida de debug
   debugPrintConfigUart( uartDebug, baudRate );
1a0008a2:	4c25      	ldr	r4, [pc, #148]	; (1a000938 <esp01Init+0xa4>)
1a0008a4:	4620      	mov	r0, r4
1a0008a6:	f002 fd19 	bl	1a0032dc <printInitUart>
   debugPrintlnString( ">>>> UART_USB configurada como salida de debug." );
1a0008aa:	7820      	ldrb	r0, [r4, #0]
1a0008ac:	4923      	ldr	r1, [pc, #140]	; (1a00093c <esp01Init+0xa8>)
1a0008ae:	f002 fd1d 	bl	1a0032ec <printString>
1a0008b2:	7820      	ldrb	r0, [r4, #0]
1a0008b4:	f002 fd1e 	bl	1a0032f4 <printEnter>

   // Inicializr otra UART donde se conecta el ESP01 como salida de consola
   consolePrintConfigUart( uartEsp01, baudRate );
1a0008b8:	4e21      	ldr	r6, [pc, #132]	; (1a000940 <esp01Init+0xac>)
1a0008ba:	4630      	mov	r0, r6
1a0008bc:	7829      	ldrb	r1, [r5, #0]
1a0008be:	463a      	mov	r2, r7
1a0008c0:	f002 fd0c 	bl	1a0032dc <printInitUart>
   debugPrintlnString( ">>>> UART_ESP (donde se conecta el ESP01), \r\n>>>> configurada como salida de consola.\r\n" );
1a0008c4:	7820      	ldrb	r0, [r4, #0]
1a0008c6:	491f      	ldr	r1, [pc, #124]	; (1a000944 <esp01Init+0xb0>)
1a0008c8:	f002 fd10 	bl	1a0032ec <printString>
1a0008cc:	7820      	ldrb	r0, [r4, #0]
1a0008ce:	f002 fd11 	bl	1a0032f4 <printEnter>

   // AT -----------------------------------------------------

   // Chequear si se encuentra el modulo Wi-Fi enviandole "AT"
   debugPrintlnString( ">>>> Chequear si se encuentra el modulo Wi-Fi.\r\n>>>>    Enviando \"AT\"..." );
1a0008d2:	7820      	ldrb	r0, [r4, #0]
1a0008d4:	491c      	ldr	r1, [pc, #112]	; (1a000948 <esp01Init+0xb4>)
1a0008d6:	f002 fd09 	bl	1a0032ec <printString>
1a0008da:	7820      	ldrb	r0, [r4, #0]
1a0008dc:	f002 fd0a 	bl	1a0032f4 <printEnter>
   consolePrintString( "AT\r\n" );
1a0008e0:	4c1a      	ldr	r4, [pc, #104]	; (1a00094c <esp01Init+0xb8>)
1a0008e2:	7830      	ldrb	r0, [r6, #0]
1a0008e4:	4621      	mov	r1, r4
1a0008e6:	f002 fd01 	bl	1a0032ec <printString>
   // No poner funciones entre el envio de comando y la espera de respuesta
   retVal = waitForReceiveStringOrTimeoutBlocking( uartEsp01, "AT\r\n", 4, 500 );
1a0008ea:	7828      	ldrb	r0, [r5, #0]
1a0008ec:	f44f 72fa 	mov.w	r2, #500	; 0x1f4
1a0008f0:	2300      	movs	r3, #0
1a0008f2:	e9cd 2300 	strd	r2, r3, [sp]
1a0008f6:	4621      	mov	r1, r4
1a0008f8:	2204      	movs	r2, #4
1a0008fa:	f002 fabf 	bl	1a002e7c <waitForReceiveStringOrTimeoutBlocking>
   if( retVal ){
1a0008fe:	b150      	cbz	r0, 1a000916 <esp01Init+0x82>
      debugPrintlnString( ">>>>    Modulo ESP01 Wi-Fi detectado.\r\n" );
1a000900:	4c0d      	ldr	r4, [pc, #52]	; (1a000938 <esp01Init+0xa4>)
1a000902:	7820      	ldrb	r0, [r4, #0]
1a000904:	4912      	ldr	r1, [pc, #72]	; (1a000950 <esp01Init+0xbc>)
1a000906:	f002 fcf1 	bl	1a0032ec <printString>
1a00090a:	7820      	ldrb	r0, [r4, #0]
1a00090c:	f002 fcf2 	bl	1a0032f4 <printEnter>
      debugPrintlnString( ">>>>    Error: Modulo ESP01 Wi-Fi No detectado!!\r\n" );
      return retVal;
   }

   // AT+CWLAP -----------------------------------------------
   return esp01ShowWiFiNetworks();
1a000910:	f7ff ff7c 	bl	1a00080c <esp01ShowWiFiNetworks>
1a000914:	e009      	b.n	1a00092a <esp01Init+0x96>
1a000916:	4604      	mov	r4, r0
   // No poner funciones entre el envio de comando y la espera de respuesta
   retVal = waitForReceiveStringOrTimeoutBlocking( uartEsp01, "AT\r\n", 4, 500 );
   if( retVal ){
      debugPrintlnString( ">>>>    Modulo ESP01 Wi-Fi detectado.\r\n" );
   } else{
      debugPrintlnString( ">>>>    Error: Modulo ESP01 Wi-Fi No detectado!!\r\n" );
1a000918:	4d07      	ldr	r5, [pc, #28]	; (1a000938 <esp01Init+0xa4>)
1a00091a:	7828      	ldrb	r0, [r5, #0]
1a00091c:	490d      	ldr	r1, [pc, #52]	; (1a000954 <esp01Init+0xc0>)
1a00091e:	f002 fce5 	bl	1a0032ec <printString>
1a000922:	7828      	ldrb	r0, [r5, #0]
1a000924:	f002 fce6 	bl	1a0032f4 <printEnter>
      return retVal;
1a000928:	4620      	mov	r0, r4
   }

   // AT+CWLAP -----------------------------------------------
   return esp01ShowWiFiNetworks();
}
1a00092a:	b003      	add	sp, #12
1a00092c:	bdf0      	pop	{r4, r5, r6, r7, pc}
1a00092e:	bf00      	nop
1a000930:	10000008 	.word	0x10000008
1a000934:	10000000 	.word	0x10000000
1a000938:	10000091 	.word	0x10000091
1a00093c:	1a004fec 	.word	0x1a004fec
1a000940:	10000090 	.word	0x10000090
1a000944:	1a00501c 	.word	0x1a00501c
1a000948:	1a005074 	.word	0x1a005074
1a00094c:	1a0050c0 	.word	0x1a0050c0
1a000950:	1a0050c8 	.word	0x1a0050c8
1a000954:	1a0050f0 	.word	0x1a0050f0

1a000958 <stopProgramError>:


void stopProgramError( void ){
1a000958:	b508      	push	{r3, lr}
   // Si hay un error grave me quedo en un bucle infinito
   // en modo bajo consumo
   while( TRUE ){
      sleepUntilNextInterrupt();
1a00095a:	f002 f909 	bl	1a002b70 <sleepUntilNextInterrupt>
   }
1a00095e:	e7fc      	b.n	1a00095a <stopProgramError+0x2>

1a000960 <diskTickHook>:
	      gpioWrite( LEDR, ON );
	   }
}

// FUNCION que se ejecuta cada vezque ocurre un Tick
void diskTickHook( void *ptr ){
1a000960:	4770      	bx	lr
1a000962:	bf00      	nop

1a000964 <itoa>:
 * Released under GPLv3.

 */
char* itoa(int value, char* result, int base) {
   // check that the base if valid
   if (base < 2 || base > 36) { *result = '\0'; return result; }
1a000964:	1e93      	subs	r3, r2, #2
1a000966:	2b22      	cmp	r3, #34	; 0x22
1a000968:	d903      	bls.n	1a000972 <itoa+0xe>
1a00096a:	2300      	movs	r3, #0
1a00096c:	700b      	strb	r3, [r1, #0]
      tmp_char = *ptr;
      *ptr--= *ptr1;
      *ptr1++ = tmp_char;
   }
   return result;
}
1a00096e:	4608      	mov	r0, r1
1a000970:	4770      	bx	lr
 * C++ version 0.4 char* style "itoa":
 * Written by Luks Chmela
 * Released under GPLv3.

 */
char* itoa(int value, char* result, int base) {
1a000972:	b4f0      	push	{r4, r5, r6, r7}
1a000974:	460d      	mov	r5, r1
1a000976:	e001      	b.n	1a00097c <itoa+0x18>
   int tmp_value;

   do {
      tmp_value = value;
      value /= base;
      *ptr++ = "zyxwvutsrqponmlkjihgfedcba9876543210123456789abcdefghijklmnopqrstuvwxyz" [35 + (tmp_value - value * base)];
1a000978:	4635      	mov	r5, r6
   char* ptr = result, *ptr1 = result, tmp_char;
   int tmp_value;

   do {
      tmp_value = value;
      value /= base;
1a00097a:	4620      	mov	r0, r4
1a00097c:	fb90 f4f2 	sdiv	r4, r0, r2
      *ptr++ = "zyxwvutsrqponmlkjihgfedcba9876543210123456789abcdefghijklmnopqrstuvwxyz" [35 + (tmp_value - value * base)];
1a000980:	1c6e      	adds	r6, r5, #1
1a000982:	fb02 0314 	mls	r3, r2, r4, r0
1a000986:	3323      	adds	r3, #35	; 0x23
1a000988:	4f0e      	ldr	r7, [pc, #56]	; (1a0009c4 <itoa+0x60>)
1a00098a:	5cfb      	ldrb	r3, [r7, r3]
1a00098c:	702b      	strb	r3, [r5, #0]
   } while ( value );
1a00098e:	2c00      	cmp	r4, #0
1a000990:	d1f2      	bne.n	1a000978 <itoa+0x14>

   // Apply negative sign
   if (tmp_value < 0) *ptr++ = '-';
1a000992:	2800      	cmp	r0, #0
1a000994:	da02      	bge.n	1a00099c <itoa+0x38>
1a000996:	1cae      	adds	r6, r5, #2
1a000998:	232d      	movs	r3, #45	; 0x2d
1a00099a:	706b      	strb	r3, [r5, #1]
   *ptr-- = '\0';
1a00099c:	1e72      	subs	r2, r6, #1
1a00099e:	2300      	movs	r3, #0
1a0009a0:	7033      	strb	r3, [r6, #0]
 */
char* itoa(int value, char* result, int base) {
   // check that the base if valid
   if (base < 2 || base > 36) { *result = '\0'; return result; }

   char* ptr = result, *ptr1 = result, tmp_char;
1a0009a2:	460b      	mov	r3, r1
   } while ( value );

   // Apply negative sign
   if (tmp_value < 0) *ptr++ = '-';
   *ptr-- = '\0';
   while(ptr1 < ptr) {
1a0009a4:	e009      	b.n	1a0009ba <itoa+0x56>
      tmp_char = *ptr;
1a0009a6:	4614      	mov	r4, r2
1a0009a8:	f814 0901 	ldrb.w	r0, [r4], #-1
      *ptr--= *ptr1;
1a0009ac:	461d      	mov	r5, r3
1a0009ae:	f815 6b01 	ldrb.w	r6, [r5], #1
1a0009b2:	7016      	strb	r6, [r2, #0]
      *ptr1++ = tmp_char;
1a0009b4:	7018      	strb	r0, [r3, #0]
1a0009b6:	462b      	mov	r3, r5
   // Apply negative sign
   if (tmp_value < 0) *ptr++ = '-';
   *ptr-- = '\0';
   while(ptr1 < ptr) {
      tmp_char = *ptr;
      *ptr--= *ptr1;
1a0009b8:	4622      	mov	r2, r4
   } while ( value );

   // Apply negative sign
   if (tmp_value < 0) *ptr++ = '-';
   *ptr-- = '\0';
   while(ptr1 < ptr) {
1a0009ba:	4293      	cmp	r3, r2
1a0009bc:	d3f3      	bcc.n	1a0009a6 <itoa+0x42>
      tmp_char = *ptr;
      *ptr--= *ptr1;
      *ptr1++ = tmp_char;
   }
   return result;
}
1a0009be:	4608      	mov	r0, r1
1a0009c0:	bcf0      	pop	{r4, r5, r6, r7}
1a0009c2:	4770      	bx	lr
1a0009c4:	1a005124 	.word	0x1a005124

1a0009c8 <adcStructConfig>:
      por ningun S.O. */
   return 0 ;
}

void adcStructConfig(void){
	dataLogger.adcChannel1 = 0;
1a0009c8:	4b02      	ldr	r3, [pc, #8]	; (1a0009d4 <adcStructConfig+0xc>)
1a0009ca:	2200      	movs	r2, #0
1a0009cc:	801a      	strh	r2, [r3, #0]
	dataLogger.adcChannel2 = 0;
1a0009ce:	805a      	strh	r2, [r3, #2]
	dataLogger.adcChannel3 = 0;
1a0009d0:	809a      	strh	r2, [r3, #4]
1a0009d2:	4770      	bx	lr
1a0009d4:	100009d8 	.word	0x100009d8

1a0009d8 <formatSdBuffer>:
}

void formatSdBuffer(rtc_t * rtc,adcChannel_t *adcChannel){
1a0009d8:	b5f0      	push	{r4, r5, r6, r7, lr}
1a0009da:	b085      	sub	sp, #20
1a0009dc:	4604      	mov	r4, r0
1a0009de:	460e      	mov	r6, r1
	char auxBuff[10];

	memset( fileBuff, 0, 20 ); // borro el buffer de escritura en el file de la sd
1a0009e0:	498b      	ldr	r1, [pc, #556]	; (1a000c10 <formatSdBuffer+0x238>)
1a0009e2:	460b      	mov	r3, r1
1a0009e4:	2200      	movs	r2, #0
1a0009e6:	f843 2b04 	str.w	r2, [r3], #4
1a0009ea:	604a      	str	r2, [r1, #4]
1a0009ec:	3304      	adds	r3, #4
1a0009ee:	f843 2b04 	str.w	r2, [r3], #4
1a0009f2:	f843 2b04 	str.w	r2, [r3], #4
1a0009f6:	601a      	str	r2, [r3, #0]

	// Agrego el dia al buffer
	   if( (rtc->mday)<10 )
1a0009f8:	78c0      	ldrb	r0, [r0, #3]
1a0009fa:	2809      	cmp	r0, #9
1a0009fc:	d801      	bhi.n	1a000a02 <formatSdBuffer+0x2a>
		   fileBuff[0]='0';
1a0009fe:	2230      	movs	r2, #48	; 0x30
1a000a00:	700a      	strb	r2, [r1, #0]

	itoa( (int) (rtc->mday), (char*)auxBuff, 10 );
1a000a02:	a901      	add	r1, sp, #4
1a000a04:	220a      	movs	r2, #10
1a000a06:	f7ff ffad 	bl	1a000964 <itoa>
	strncat(fileBuff,auxBuff,strlen(auxBuff));
1a000a0a:	a801      	add	r0, sp, #4
1a000a0c:	f004 f8d3 	bl	1a004bb6 <strlen>
1a000a10:	4602      	mov	r2, r0
1a000a12:	4d7f      	ldr	r5, [pc, #508]	; (1a000c10 <formatSdBuffer+0x238>)
1a000a14:	4628      	mov	r0, r5
1a000a16:	a901      	add	r1, sp, #4
1a000a18:	f004 f8d5 	bl	1a004bc6 <strncat>
	strncat(fileBuff,"/",strlen("/"));
1a000a1c:	4628      	mov	r0, r5
1a000a1e:	f004 f8ca 	bl	1a004bb6 <strlen>
1a000a22:	4b7c      	ldr	r3, [pc, #496]	; (1a000c14 <formatSdBuffer+0x23c>)
1a000a24:	881b      	ldrh	r3, [r3, #0]
1a000a26:	522b      	strh	r3, [r5, r0]
	// Agrego el mes al buffer
	if( (rtc->month)<10 ){
1a000a28:	78a3      	ldrb	r3, [r4, #2]
1a000a2a:	2b09      	cmp	r3, #9
1a000a2c:	d805      	bhi.n	1a000a3a <formatSdBuffer+0x62>
		strncat(fileBuff,"0",strlen("0"));
1a000a2e:	4628      	mov	r0, r5
1a000a30:	f004 f8c1 	bl	1a004bb6 <strlen>
1a000a34:	4b78      	ldr	r3, [pc, #480]	; (1a000c18 <formatSdBuffer+0x240>)
1a000a36:	881b      	ldrh	r3, [r3, #0]
1a000a38:	522b      	strh	r3, [r5, r0]
	}

	itoa( (int) (rtc->month), (char*)auxBuff, 10 );
1a000a3a:	78a0      	ldrb	r0, [r4, #2]
1a000a3c:	a901      	add	r1, sp, #4
1a000a3e:	220a      	movs	r2, #10
1a000a40:	f7ff ff90 	bl	1a000964 <itoa>
	strncat(fileBuff,auxBuff,strlen(auxBuff));
1a000a44:	a801      	add	r0, sp, #4
1a000a46:	f004 f8b6 	bl	1a004bb6 <strlen>
1a000a4a:	4602      	mov	r2, r0
1a000a4c:	4d70      	ldr	r5, [pc, #448]	; (1a000c10 <formatSdBuffer+0x238>)
1a000a4e:	4628      	mov	r0, r5
1a000a50:	a901      	add	r1, sp, #4
1a000a52:	f004 f8b8 	bl	1a004bc6 <strncat>
	strncat(fileBuff,"/",strlen("/"));
1a000a56:	4628      	mov	r0, r5
1a000a58:	f004 f8ad 	bl	1a004bb6 <strlen>
1a000a5c:	4b6d      	ldr	r3, [pc, #436]	; (1a000c14 <formatSdBuffer+0x23c>)
1a000a5e:	881b      	ldrh	r3, [r3, #0]
1a000a60:	522b      	strh	r3, [r5, r0]
	// Agrego el ano al buffer
	if( (rtc->year)<10 ){
1a000a62:	8823      	ldrh	r3, [r4, #0]
1a000a64:	2b09      	cmp	r3, #9
1a000a66:	d805      	bhi.n	1a000a74 <formatSdBuffer+0x9c>
		strncat(fileBuff,"0",strlen("0"));
1a000a68:	4628      	mov	r0, r5
1a000a6a:	f004 f8a4 	bl	1a004bb6 <strlen>
1a000a6e:	4b6a      	ldr	r3, [pc, #424]	; (1a000c18 <formatSdBuffer+0x240>)
1a000a70:	881b      	ldrh	r3, [r3, #0]
1a000a72:	522b      	strh	r3, [r5, r0]
	}

	itoa( (int) (rtc->year), (char*)auxBuff, 10 );
1a000a74:	8820      	ldrh	r0, [r4, #0]
1a000a76:	a901      	add	r1, sp, #4
1a000a78:	220a      	movs	r2, #10
1a000a7a:	f7ff ff73 	bl	1a000964 <itoa>
	strncat(fileBuff,auxBuff,strlen(auxBuff));
1a000a7e:	a801      	add	r0, sp, #4
1a000a80:	f004 f899 	bl	1a004bb6 <strlen>
1a000a84:	4602      	mov	r2, r0
1a000a86:	4d62      	ldr	r5, [pc, #392]	; (1a000c10 <formatSdBuffer+0x238>)
1a000a88:	4628      	mov	r0, r5
1a000a8a:	a901      	add	r1, sp, #4
1a000a8c:	f004 f89b 	bl	1a004bc6 <strncat>

	strncat(fileBuff,CONNECTOR,strlen(CONNECTOR));
1a000a90:	4628      	mov	r0, r5
1a000a92:	f004 f890 	bl	1a004bb6 <strlen>
1a000a96:	182a      	adds	r2, r5, r0
1a000a98:	4b60      	ldr	r3, [pc, #384]	; (1a000c1c <formatSdBuffer+0x244>)
1a000a9a:	8819      	ldrh	r1, [r3, #0]
1a000a9c:	789b      	ldrb	r3, [r3, #2]
1a000a9e:	5229      	strh	r1, [r5, r0]
1a000aa0:	7093      	strb	r3, [r2, #2]

	// Agrego la hora al buffer
	if( (rtc->hour)<10 ){
1a000aa2:	7963      	ldrb	r3, [r4, #5]
1a000aa4:	2b09      	cmp	r3, #9
1a000aa6:	d805      	bhi.n	1a000ab4 <formatSdBuffer+0xdc>
		strncat(fileBuff,"0",strlen("0"));
1a000aa8:	4628      	mov	r0, r5
1a000aaa:	f004 f884 	bl	1a004bb6 <strlen>
1a000aae:	4b5a      	ldr	r3, [pc, #360]	; (1a000c18 <formatSdBuffer+0x240>)
1a000ab0:	881b      	ldrh	r3, [r3, #0]
1a000ab2:	522b      	strh	r3, [r5, r0]
	}

	itoa( (int) (rtc->hour), (char*)auxBuff, 10 );
1a000ab4:	7960      	ldrb	r0, [r4, #5]
1a000ab6:	a901      	add	r1, sp, #4
1a000ab8:	220a      	movs	r2, #10
1a000aba:	f7ff ff53 	bl	1a000964 <itoa>
	strncat(fileBuff,auxBuff,strlen(auxBuff));
1a000abe:	a801      	add	r0, sp, #4
1a000ac0:	f004 f879 	bl	1a004bb6 <strlen>
1a000ac4:	4602      	mov	r2, r0
1a000ac6:	4d52      	ldr	r5, [pc, #328]	; (1a000c10 <formatSdBuffer+0x238>)
1a000ac8:	4628      	mov	r0, r5
1a000aca:	a901      	add	r1, sp, #4
1a000acc:	f004 f87b 	bl	1a004bc6 <strncat>
	strncat(fileBuff,":",strlen(":"));
1a000ad0:	4628      	mov	r0, r5
1a000ad2:	f004 f870 	bl	1a004bb6 <strlen>
1a000ad6:	4b52      	ldr	r3, [pc, #328]	; (1a000c20 <formatSdBuffer+0x248>)
1a000ad8:	881b      	ldrh	r3, [r3, #0]
1a000ada:	522b      	strh	r3, [r5, r0]
	// Agrego los minutos al buffer
	if( (rtc->min)<10 ){
1a000adc:	79a3      	ldrb	r3, [r4, #6]
1a000ade:	2b09      	cmp	r3, #9
1a000ae0:	d805      	bhi.n	1a000aee <formatSdBuffer+0x116>
		strncat(fileBuff,"0",strlen("0"));
1a000ae2:	4628      	mov	r0, r5
1a000ae4:	f004 f867 	bl	1a004bb6 <strlen>
1a000ae8:	4b4b      	ldr	r3, [pc, #300]	; (1a000c18 <formatSdBuffer+0x240>)
1a000aea:	881b      	ldrh	r3, [r3, #0]
1a000aec:	522b      	strh	r3, [r5, r0]
	}

	itoa( (int) (rtc->min), (char*)auxBuff, 10 );
1a000aee:	79a0      	ldrb	r0, [r4, #6]
1a000af0:	a901      	add	r1, sp, #4
1a000af2:	220a      	movs	r2, #10
1a000af4:	f7ff ff36 	bl	1a000964 <itoa>
	strncat(fileBuff,auxBuff,strlen(auxBuff));
1a000af8:	a801      	add	r0, sp, #4
1a000afa:	f004 f85c 	bl	1a004bb6 <strlen>
1a000afe:	4602      	mov	r2, r0
1a000b00:	4d43      	ldr	r5, [pc, #268]	; (1a000c10 <formatSdBuffer+0x238>)
1a000b02:	4628      	mov	r0, r5
1a000b04:	a901      	add	r1, sp, #4
1a000b06:	f004 f85e 	bl	1a004bc6 <strncat>
	strncat(fileBuff,":",strlen(":"));
1a000b0a:	4628      	mov	r0, r5
1a000b0c:	f004 f853 	bl	1a004bb6 <strlen>
1a000b10:	4b43      	ldr	r3, [pc, #268]	; (1a000c20 <formatSdBuffer+0x248>)
1a000b12:	881b      	ldrh	r3, [r3, #0]
1a000b14:	522b      	strh	r3, [r5, r0]
	// Agrego los segundos al buffer
	if( (rtc->sec)<10 ){
1a000b16:	79e3      	ldrb	r3, [r4, #7]
1a000b18:	2b09      	cmp	r3, #9
1a000b1a:	d805      	bhi.n	1a000b28 <formatSdBuffer+0x150>
		strncat(fileBuff,"0",strlen("0"));
1a000b1c:	4628      	mov	r0, r5
1a000b1e:	f004 f84a 	bl	1a004bb6 <strlen>
1a000b22:	4b3d      	ldr	r3, [pc, #244]	; (1a000c18 <formatSdBuffer+0x240>)
1a000b24:	881b      	ldrh	r3, [r3, #0]
1a000b26:	522b      	strh	r3, [r5, r0]
	}

	itoa( (int) (rtc->sec), (char*)auxBuff, 10 );
1a000b28:	79e0      	ldrb	r0, [r4, #7]
1a000b2a:	a901      	add	r1, sp, #4
1a000b2c:	220a      	movs	r2, #10
1a000b2e:	f7ff ff19 	bl	1a000964 <itoa>
	strncat(fileBuff,auxBuff,strlen(auxBuff));
1a000b32:	a801      	add	r0, sp, #4
1a000b34:	f004 f83f 	bl	1a004bb6 <strlen>
1a000b38:	4602      	mov	r2, r0
1a000b3a:	4c35      	ldr	r4, [pc, #212]	; (1a000c10 <formatSdBuffer+0x238>)
1a000b3c:	4620      	mov	r0, r4
1a000b3e:	a901      	add	r1, sp, #4
1a000b40:	f004 f841 	bl	1a004bc6 <strncat>

	strncat(fileBuff,CONNECTOR,strlen(CONNECTOR));
1a000b44:	4620      	mov	r0, r4
1a000b46:	f004 f836 	bl	1a004bb6 <strlen>
1a000b4a:	1822      	adds	r2, r4, r0
1a000b4c:	4b33      	ldr	r3, [pc, #204]	; (1a000c1c <formatSdBuffer+0x244>)
1a000b4e:	881f      	ldrh	r7, [r3, #0]
1a000b50:	789d      	ldrb	r5, [r3, #2]
1a000b52:	5227      	strh	r7, [r4, r0]
1a000b54:	7095      	strb	r5, [r2, #2]

	// Agrego la lectura de los canales 1,2 y 3 del ADC al buffer

	strncat(fileBuff,"CH1:",strlen("CH1:"));
1a000b56:	4620      	mov	r0, r4
1a000b58:	f004 f82d 	bl	1a004bb6 <strlen>
1a000b5c:	4602      	mov	r2, r0
1a000b5e:	1821      	adds	r1, r4, r0
1a000b60:	4b30      	ldr	r3, [pc, #192]	; (1a000c24 <formatSdBuffer+0x24c>)
1a000b62:	6818      	ldr	r0, [r3, #0]
1a000b64:	50a0      	str	r0, [r4, r2]
1a000b66:	791b      	ldrb	r3, [r3, #4]
1a000b68:	710b      	strb	r3, [r1, #4]

	itoa( (int) (adcChannel->adcChannel1), (char*)auxBuff, 10 );
1a000b6a:	8830      	ldrh	r0, [r6, #0]
1a000b6c:	a901      	add	r1, sp, #4
1a000b6e:	220a      	movs	r2, #10
1a000b70:	f7ff fef8 	bl	1a000964 <itoa>
	strncat(fileBuff,auxBuff,strlen(auxBuff));
1a000b74:	a801      	add	r0, sp, #4
1a000b76:	f004 f81e 	bl	1a004bb6 <strlen>
1a000b7a:	4602      	mov	r2, r0
1a000b7c:	4620      	mov	r0, r4
1a000b7e:	a901      	add	r1, sp, #4
1a000b80:	f004 f821 	bl	1a004bc6 <strncat>

	strncat(fileBuff,CONNECTOR,strlen(CONNECTOR));
1a000b84:	4620      	mov	r0, r4
1a000b86:	f004 f816 	bl	1a004bb6 <strlen>
1a000b8a:	1823      	adds	r3, r4, r0
1a000b8c:	5227      	strh	r7, [r4, r0]
1a000b8e:	709d      	strb	r5, [r3, #2]

	strncat(fileBuff,"CH2:",strlen("CH2:"));
1a000b90:	4620      	mov	r0, r4
1a000b92:	f004 f810 	bl	1a004bb6 <strlen>
1a000b96:	4602      	mov	r2, r0
1a000b98:	1821      	adds	r1, r4, r0
1a000b9a:	4b23      	ldr	r3, [pc, #140]	; (1a000c28 <formatSdBuffer+0x250>)
1a000b9c:	6818      	ldr	r0, [r3, #0]
1a000b9e:	50a0      	str	r0, [r4, r2]
1a000ba0:	791b      	ldrb	r3, [r3, #4]
1a000ba2:	710b      	strb	r3, [r1, #4]

	itoa( (int) (adcChannel->adcChannel2), (char*)auxBuff, 10 );
1a000ba4:	8870      	ldrh	r0, [r6, #2]
1a000ba6:	a901      	add	r1, sp, #4
1a000ba8:	220a      	movs	r2, #10
1a000baa:	f7ff fedb 	bl	1a000964 <itoa>
	strncat(fileBuff,auxBuff,strlen(auxBuff));
1a000bae:	a801      	add	r0, sp, #4
1a000bb0:	f004 f801 	bl	1a004bb6 <strlen>
1a000bb4:	4602      	mov	r2, r0
1a000bb6:	4620      	mov	r0, r4
1a000bb8:	a901      	add	r1, sp, #4
1a000bba:	f004 f804 	bl	1a004bc6 <strncat>

	strncat(fileBuff,CONNECTOR,strlen(CONNECTOR));
1a000bbe:	4620      	mov	r0, r4
1a000bc0:	f003 fff9 	bl	1a004bb6 <strlen>
1a000bc4:	1823      	adds	r3, r4, r0
1a000bc6:	5227      	strh	r7, [r4, r0]
1a000bc8:	709d      	strb	r5, [r3, #2]

	strncat(fileBuff,"CH3:",strlen("CH3:"));
1a000bca:	4620      	mov	r0, r4
1a000bcc:	f003 fff3 	bl	1a004bb6 <strlen>
1a000bd0:	4602      	mov	r2, r0
1a000bd2:	1821      	adds	r1, r4, r0
1a000bd4:	4b15      	ldr	r3, [pc, #84]	; (1a000c2c <formatSdBuffer+0x254>)
1a000bd6:	6818      	ldr	r0, [r3, #0]
1a000bd8:	50a0      	str	r0, [r4, r2]
1a000bda:	791b      	ldrb	r3, [r3, #4]
1a000bdc:	710b      	strb	r3, [r1, #4]

	itoa( (int) (adcChannel->adcChannel3), (char*)auxBuff, 10 );
1a000bde:	88b0      	ldrh	r0, [r6, #4]
1a000be0:	a901      	add	r1, sp, #4
1a000be2:	220a      	movs	r2, #10
1a000be4:	f7ff febe 	bl	1a000964 <itoa>
	strncat(fileBuff,auxBuff,strlen(auxBuff));
1a000be8:	a801      	add	r0, sp, #4
1a000bea:	f003 ffe4 	bl	1a004bb6 <strlen>
1a000bee:	4602      	mov	r2, r0
1a000bf0:	4620      	mov	r0, r4
1a000bf2:	a901      	add	r1, sp, #4
1a000bf4:	f003 ffe7 	bl	1a004bc6 <strncat>

	strncat(fileBuff,"\r\n",strlen("\r\n"));
1a000bf8:	4620      	mov	r0, r4
1a000bfa:	f003 ffdc 	bl	1a004bb6 <strlen>
1a000bfe:	1822      	adds	r2, r4, r0
1a000c00:	4b0b      	ldr	r3, [pc, #44]	; (1a000c30 <formatSdBuffer+0x258>)
1a000c02:	8819      	ldrh	r1, [r3, #0]
1a000c04:	789b      	ldrb	r3, [r3, #2]
1a000c06:	5221      	strh	r1, [r4, r0]
1a000c08:	7093      	strb	r3, [r2, #2]
}
1a000c0a:	b005      	add	sp, #20
1a000c0c:	bdf0      	pop	{r4, r5, r6, r7, pc}
1a000c0e:	bf00      	nop
1a000c10:	100004f8 	.word	0x100004f8
1a000c14:	1a005170 	.word	0x1a005170
1a000c18:	1a005174 	.word	0x1a005174
1a000c1c:	1a00516c 	.word	0x1a00516c
1a000c20:	1a005178 	.word	0x1a005178
1a000c24:	1a00517c 	.word	0x1a00517c
1a000c28:	1a005184 	.word	0x1a005184
1a000c2c:	1a00518c 	.word	0x1a00518c
1a000c30:	1a005120 	.word	0x1a005120

1a000c34 <recordStringInSdCard>:

void recordStringInSdCard(char *str, uint32_t strLen){
1a000c34:	b570      	push	{r4, r5, r6, lr}
1a000c36:	b082      	sub	sp, #8
1a000c38:	4606      	mov	r6, r0
1a000c3a:	460c      	mov	r4, r1

	UINT nbytes = 0;
1a000c3c:	2300      	movs	r3, #0
1a000c3e:	9301      	str	r3, [sp, #4]

	// Create/open a file, then write a string and close it
	if( f_open( &fp, FILENAME, FA_WRITE | FA_OPEN_APPEND ) == FR_OK ){
1a000c40:	4810      	ldr	r0, [pc, #64]	; (1a000c84 <recordStringInSdCard+0x50>)
1a000c42:	4911      	ldr	r1, [pc, #68]	; (1a000c88 <recordStringInSdCard+0x54>)
1a000c44:	2232      	movs	r2, #50	; 0x32
1a000c46:	f000 ffdb 	bl	1a001c00 <f_open>
1a000c4a:	b9a0      	cbnz	r0, 1a000c76 <recordStringInSdCard+0x42>

	  f_write( &fp, str, strLen, &nbytes );
1a000c4c:	4d0d      	ldr	r5, [pc, #52]	; (1a000c84 <recordStringInSdCard+0x50>)
1a000c4e:	4628      	mov	r0, r5
1a000c50:	4631      	mov	r1, r6
1a000c52:	4622      	mov	r2, r4
1a000c54:	ab01      	add	r3, sp, #4
1a000c56:	f001 f8c1 	bl	1a001ddc <f_write>
	  f_close(&fp);
1a000c5a:	4628      	mov	r0, r5
1a000c5c:	f001 f9e0 	bl	1a002020 <f_close>

	if( strLen == nbytes ){
1a000c60:	9b01      	ldr	r3, [sp, #4]
1a000c62:	429c      	cmp	r4, r3
1a000c64:	d103      	bne.n	1a000c6e <recordStringInSdCard+0x3a>
	     gpioToggle( LEDB );
1a000c66:	202a      	movs	r0, #42	; 0x2a
1a000c68:	f001 ff76 	bl	1a002b58 <gpioToggle>
1a000c6c:	e007      	b.n	1a000c7e <recordStringInSdCard+0x4a>
	} else{
	        gpioToggle( LEDR );
1a000c6e:	2028      	movs	r0, #40	; 0x28
1a000c70:	f001 ff72 	bl	1a002b58 <gpioToggle>
1a000c74:	e003      	b.n	1a000c7e <recordStringInSdCard+0x4a>
	  }

	} else{
	      // Turn ON LEDR if can't create/open this file
	      gpioWrite( LEDR, ON );
1a000c76:	2028      	movs	r0, #40	; 0x28
1a000c78:	2101      	movs	r1, #1
1a000c7a:	f001 ff15 	bl	1a002aa8 <gpioWrite>
	   }
}
1a000c7e:	b002      	add	sp, #8
1a000c80:	bd70      	pop	{r4, r5, r6, pc}
1a000c82:	bf00      	nop
1a000c84:	100000a0 	.word	0x100000a0
1a000c88:	1a005194 	.word	0x1a005194

1a000c8c <main>:
   uartWriteString( UART_USB, "\r\n");
}


/* FUNCION PRINCIPAL, PUNTO DE ENTRADA AL PROGRAMA LUEGO DE RESET. */
int main(void){
1a000c8c:	e92d 47f0 	stmdb	sp!, {r4, r5, r6, r7, r8, r9, sl, lr}
1a000c90:	b088      	sub	sp, #32

   /* ------------- INICIALIZACIONES ------------- */

   /* Inicializar la placa */
   boardConfig();
1a000c92:	f002 fb49 	bl	1a003328 <boardInit>

   // Inicializar el conteo de Ticks con resolucion de 10ms,
   // con tickHook diskTickHook
   tickConfig( 10 );
1a000c96:	200a      	movs	r0, #10
1a000c98:	2100      	movs	r1, #0
1a000c9a:	f001 ff8d 	bl	1a002bb8 <tickInit>
   tickCallbackSet( diskTickHook, NULL );
1a000c9e:	486f      	ldr	r0, [pc, #444]	; (1a000e5c <main+0x1d0>)
1a000ca0:	2100      	movs	r1, #0
1a000ca2:	f001 ff6d 	bl	1a002b80 <tickCallbackSet>

   /* Inicializar UART_USB a 115200 baudios */
   uartConfig( UART_USB, 115200 );
1a000ca6:	2003      	movs	r0, #3
1a000ca8:	f44f 31e1 	mov.w	r1, #115200	; 0x1c200
1a000cac:	f002 f85c 	bl	1a002d68 <uartInit>
   uartConfig( UART_232, 9600 );
1a000cb0:	2005      	movs	r0, #5
1a000cb2:	f44f 5116 	mov.w	r1, #9600	; 0x2580
1a000cb6:	f002 f857 	bl	1a002d68 <uartInit>

   // ADC init
   adcInit(ADC_ENABLE);
1a000cba:	2000      	movs	r0, #0
1a000cbc:	f002 fa9c 	bl	1a0031f8 <adcInit>
   // ADC struct init in 0
   adcStructConfig();
1a000cc0:	f7ff fe82 	bl	1a0009c8 <adcStructConfig>

   // SPI configuration
   spiConfig( SPI0 );
1a000cc4:	2000      	movs	r0, #0
1a000cc6:	f002 f9a1 	bl	1a00300c <spiInit>

   /* Estructura RTC */
     rtc_t rtc;

     rtc.year = 2018;
1a000cca:	f240 7ae2 	movw	sl, #2018	; 0x7e2
1a000cce:	f8ad a018 	strh.w	sl, [sp, #24]
     rtc.month = 7;
1a000cd2:	f04f 0907 	mov.w	r9, #7
1a000cd6:	f88d 901a 	strb.w	r9, [sp, #26]
     rtc.mday = 13;
1a000cda:	f04f 080d 	mov.w	r8, #13
1a000cde:	f88d 801b 	strb.w	r8, [sp, #27]
     rtc.wday = 5;
1a000ce2:	2405      	movs	r4, #5
1a000ce4:	f88d 401c 	strb.w	r4, [sp, #28]
     rtc.hour = 9;
1a000ce8:	2709      	movs	r7, #9
1a000cea:	f88d 701d 	strb.w	r7, [sp, #29]
     rtc.min = 18;
1a000cee:	2612      	movs	r6, #18
1a000cf0:	f88d 601e 	strb.w	r6, [sp, #30]
     rtc.sec= 0;
1a000cf4:	2500      	movs	r5, #0
1a000cf6:	f88d 501f 	strb.w	r5, [sp, #31]

     bool_t val = 0;
     uint8_t i = 0;

     /* Inicializar RTC */
     val = rtcConfig( &rtc );
1a000cfa:	a806      	add	r0, sp, #24
1a000cfc:	f001 fd76 	bl	1a0027ec <rtcInit>

     delay_t delay1s;
     delayConfig( &delay1s, 15000 );
1a000d00:	4668      	mov	r0, sp
1a000d02:	f643 2298 	movw	r2, #15000	; 0x3a98
1a000d06:	2300      	movs	r3, #0
1a000d08:	f002 f9c4 	bl	1a003094 <delayInit>

     delay(2000); // El RTC tarda en setear la hora, por eso el delay
1a000d0c:	f44f 60fa 	mov.w	r0, #2000	; 0x7d0
1a000d10:	2100      	movs	r1, #0
1a000d12:	f002 f9a3 	bl	1a00305c <delay>

     rtc.year = 2018;
1a000d16:	f8ad a018 	strh.w	sl, [sp, #24]
     rtc.month = 7;
1a000d1a:	f88d 901a 	strb.w	r9, [sp, #26]
     rtc.mday = 13;
1a000d1e:	f88d 801b 	strb.w	r8, [sp, #27]
     rtc.wday = 5;
1a000d22:	f88d 401c 	strb.w	r4, [sp, #28]
     rtc.hour = 9;
1a000d26:	f88d 701d 	strb.w	r7, [sp, #29]
     rtc.min = 18;
1a000d2a:	f88d 601e 	strb.w	r6, [sp, #30]
     rtc.sec= 0;
1a000d2e:	f88d 501f 	strb.w	r5, [sp, #31]

     /* Establecer fecha y hora */
     val = rtcWrite( &rtc );
1a000d32:	a806      	add	r0, sp, #24
1a000d34:	f001 fd42 	bl	1a0027bc <rtcWrite>

     // Give a work area to the default drive
     if( f_mount( &fs, "", 0 ) != FR_OK ){
1a000d38:	4849      	ldr	r0, [pc, #292]	; (1a000e60 <main+0x1d4>)
1a000d3a:	494a      	ldr	r1, [pc, #296]	; (1a000e64 <main+0x1d8>)
1a000d3c:	462a      	mov	r2, r5
1a000d3e:	f000 ff33 	bl	1a001ba8 <f_mount>
       // not register a file system object.
       // Check whether the SD card is correctly connected
     }


     if( !esp01Init( UART_ESP01, UART_DEBUG, UARTS_BAUD_RATE ) ){
1a000d42:	4620      	mov	r0, r4
1a000d44:	2103      	movs	r1, #3
1a000d46:	f44f 32e1 	mov.w	r2, #115200	; 0x1c200
1a000d4a:	f7ff fda3 	bl	1a000894 <esp01Init>
1a000d4e:	b908      	cbnz	r0, 1a000d54 <main+0xc8>
        stopProgramError(); // Como dio falso (error) me quedo en un bucle infinito
1a000d50:	f7ff fe02 	bl	1a000958 <stopProgramError>
     }

     if( !esp01ConnectToWifiAP( WIFI_SSID, WIFI_PASSWORD ) ){
1a000d54:	4844      	ldr	r0, [pc, #272]	; (1a000e68 <main+0x1dc>)
1a000d56:	4945      	ldr	r1, [pc, #276]	; (1a000e6c <main+0x1e0>)
1a000d58:	f7ff fcd6 	bl	1a000708 <esp01ConnectToWifiAP>
1a000d5c:	b908      	cbnz	r0, 1a000d62 <main+0xd6>
        stopProgramError(); // Como dio falso (error) me quedo en un bucle infinito
1a000d5e:	f7ff fdfb 	bl	1a000958 <stopProgramError>
     }

     gpioToggle( LED1);
1a000d62:	202b      	movs	r0, #43	; 0x2b
1a000d64:	f001 fef8 	bl	1a002b58 <gpioToggle>
   /* ------------- REPETIR POR SIEMPRE ------------- */
   while(1){

	if( delayRead( &delay1s ) ){
1a000d68:	4668      	mov	r0, sp
1a000d6a:	f002 f9a3 	bl	1a0030b4 <delayRead>
1a000d6e:	2800      	cmp	r0, #0
1a000d70:	d0fa      	beq.n	1a000d68 <main+0xdc>

		/* Leer fecha y hora */
		gpioToggle( LED1);
1a000d72:	202b      	movs	r0, #43	; 0x2b
1a000d74:	f001 fef0 	bl	1a002b58 <gpioToggle>

		val = rtcRead( &rtc );
1a000d78:	a806      	add	r0, sp, #24
1a000d7a:	f001 fd05 	bl	1a002788 <rtcRead>
		dataLogger.adcChannel1 = adcRead(CH1);
1a000d7e:	2041      	movs	r0, #65	; 0x41
1a000d80:	f002 fa80 	bl	1a003284 <adcRead>
1a000d84:	4c3a      	ldr	r4, [pc, #232]	; (1a000e70 <main+0x1e4>)
1a000d86:	8020      	strh	r0, [r4, #0]
		dataLogger.adcChannel2 = adcRead(CH2);
1a000d88:	2040      	movs	r0, #64	; 0x40
1a000d8a:	f002 fa7b 	bl	1a003284 <adcRead>
1a000d8e:	8060      	strh	r0, [r4, #2]
		dataLogger.adcChannel3 = adcRead(CH3);
1a000d90:	203f      	movs	r0, #63	; 0x3f
1a000d92:	f002 fa77 	bl	1a003284 <adcRead>
1a000d96:	80a0      	strh	r0, [r4, #4]
		/* Mostrar fecha y hora en formato "DD/MM/YYYY, HH:MM:SS" */
		formatSdBuffer(&rtc,&dataLogger);
1a000d98:	a806      	add	r0, sp, #24
1a000d9a:	4621      	mov	r1, r4
1a000d9c:	f7ff fe1c 	bl	1a0009d8 <formatSdBuffer>
		uartWriteString( UART_USB, fileBuff );
1a000da0:	4d34      	ldr	r5, [pc, #208]	; (1a000e74 <main+0x1e8>)
1a000da2:	2003      	movs	r0, #3
1a000da4:	4629      	mov	r1, r5
1a000da6:	f002 f919 	bl	1a002fdc <uartWriteString>

		recordStringInSdCard(fileBuff, strlen(fileBuff));
1a000daa:	4628      	mov	r0, r5
1a000dac:	f003 ff03 	bl	1a004bb6 <strlen>
1a000db0:	4601      	mov	r1, r0
1a000db2:	4628      	mov	r0, r5
1a000db4:	f7ff ff3e 	bl	1a000c34 <recordStringInSdCard>

		// Armo el dato a enviar, en este caso para grabar un dato en el canal de Thinspeak
		// Ejemplo: "GET /update?api_key=7E7IOJ276BSDLOBA&field1=66"

		sensorValue = dataLogger.adcChannel1;
1a000db8:	4f2f      	ldr	r7, [pc, #188]	; (1a000e78 <main+0x1ec>)
1a000dba:	8822      	ldrh	r2, [r4, #0]
1a000dbc:	2300      	movs	r3, #0
1a000dbe:	e9c7 2300 	strd	r2, r3, [r7]

		tcpIpDataToSend[0] = 0; // Reseteo la cadena que guarda las otras agregando un caracter NULL al principio
1a000dc2:	4c2e      	ldr	r4, [pc, #184]	; (1a000e7c <main+0x1f0>)
1a000dc4:	2300      	movs	r3, #0
1a000dc6:	7023      	strb	r3, [r4, #0]

		strcat( tcpIpDataToSend, "GET /update?api_key=" );     // Agrego la peticion de escritura de datos
1a000dc8:	4620      	mov	r0, r4
1a000dca:	f003 fef4 	bl	1a004bb6 <strlen>
1a000dce:	4686      	mov	lr, r0
1a000dd0:	1906      	adds	r6, r0, r4
1a000dd2:	4d2b      	ldr	r5, [pc, #172]	; (1a000e80 <main+0x1f4>)
1a000dd4:	cd0f      	ldmia	r5!, {r0, r1, r2, r3}
1a000dd6:	f84e 0004 	str.w	r0, [lr, r4]
1a000dda:	6071      	str	r1, [r6, #4]
1a000ddc:	60b2      	str	r2, [r6, #8]
1a000dde:	60f3      	str	r3, [r6, #12]
1a000de0:	6828      	ldr	r0, [r5, #0]
1a000de2:	6130      	str	r0, [r6, #16]
1a000de4:	792b      	ldrb	r3, [r5, #4]
1a000de6:	7533      	strb	r3, [r6, #20]

		strcat( tcpIpDataToSend, THINGSPEAK_WRITE_API_KEY );   // Agrego la clave de escritura del canal
1a000de8:	4620      	mov	r0, r4
1a000dea:	f003 fee4 	bl	1a004bb6 <strlen>
1a000dee:	4686      	mov	lr, r0
1a000df0:	1906      	adds	r6, r0, r4
1a000df2:	4d24      	ldr	r5, [pc, #144]	; (1a000e84 <main+0x1f8>)
1a000df4:	cd0f      	ldmia	r5!, {r0, r1, r2, r3}
1a000df6:	f84e 0004 	str.w	r0, [lr, r4]
1a000dfa:	6071      	str	r1, [r6, #4]
1a000dfc:	60b2      	str	r2, [r6, #8]
1a000dfe:	60f3      	str	r3, [r6, #12]
1a000e00:	782b      	ldrb	r3, [r5, #0]
1a000e02:	7433      	strb	r3, [r6, #16]

		strcat( tcpIpDataToSend, "&field" );                   // Agrego field del canal
1a000e04:	4620      	mov	r0, r4
1a000e06:	f003 fed6 	bl	1a004bb6 <strlen>
1a000e0a:	4601      	mov	r1, r0
1a000e0c:	1902      	adds	r2, r0, r4
1a000e0e:	4b1e      	ldr	r3, [pc, #120]	; (1a000e88 <main+0x1fc>)
1a000e10:	6818      	ldr	r0, [r3, #0]
1a000e12:	5108      	str	r0, [r1, r4]
1a000e14:	8899      	ldrh	r1, [r3, #4]
1a000e16:	799b      	ldrb	r3, [r3, #6]
1a000e18:	8091      	strh	r1, [r2, #4]
1a000e1a:	7193      	strb	r3, [r2, #6]
		strcat( tcpIpDataToSend, intToString(THINGSPEAK_FIELD_NUMBER) );
1a000e1c:	2002      	movs	r0, #2
1a000e1e:	2100      	movs	r1, #0
1a000e20:	f001 fd44 	bl	1a0028ac <intToString>
1a000e24:	4601      	mov	r1, r0
1a000e26:	4620      	mov	r0, r4
1a000e28:	f003 feb6 	bl	1a004b98 <strcat>

		strcat( tcpIpDataToSend, "=" );                        // Agrego el valor a enviar
1a000e2c:	4620      	mov	r0, r4
1a000e2e:	f003 fec2 	bl	1a004bb6 <strlen>
1a000e32:	4b16      	ldr	r3, [pc, #88]	; (1a000e8c <main+0x200>)
1a000e34:	881b      	ldrh	r3, [r3, #0]
1a000e36:	5223      	strh	r3, [r4, r0]
		strcat( tcpIpDataToSend, intToString( sensorValue ) );
1a000e38:	e9d7 0100 	ldrd	r0, r1, [r7]
1a000e3c:	f001 fd36 	bl	1a0028ac <intToString>
1a000e40:	4601      	mov	r1, r0
1a000e42:	4620      	mov	r0, r4
1a000e44:	f003 fea8 	bl	1a004b98 <strcat>

		// Envio los datos TCP/IP al Servidor de Thingpeak
		// Ver en: https://thingspeak.com/channels/377497/
		esp01SendTPCIPDataToServer( THINGSPEAK_SERVER_URL, THINGSPEAK_SERVER_PORT,tcpIpDataToSend, strlen( tcpIpDataToSend ) );
1a000e48:	4620      	mov	r0, r4
1a000e4a:	f003 feb4 	bl	1a004bb6 <strlen>
1a000e4e:	4603      	mov	r3, r0
1a000e50:	480f      	ldr	r0, [pc, #60]	; (1a000e90 <main+0x204>)
1a000e52:	2150      	movs	r1, #80	; 0x50
1a000e54:	4622      	mov	r2, r4
1a000e56:	f7ff fc05 	bl	1a000664 <esp01SendTPCIPDataToServer>
1a000e5a:	e785      	b.n	1a000d68 <main+0xdc>
1a000e5c:	1a000961 	.word	0x1a000961
1a000e60:	100002c8 	.word	0x100002c8
1a000e64:	1a004c88 	.word	0x1a004c88
1a000e68:	1a0051a0 	.word	0x1a0051a0
1a000e6c:	1a0051b4 	.word	0x1a0051b4
1a000e70:	100009d8 	.word	0x100009d8
1a000e74:	100004f8 	.word	0x100004f8
1a000e78:	10000098 	.word	0x10000098
1a000e7c:	10000574 	.word	0x10000574
1a000e80:	1a0051c0 	.word	0x1a0051c0
1a000e84:	1a0051d8 	.word	0x1a0051d8
1a000e88:	1a0051ec 	.word	0x1a0051ec
1a000e8c:	1a0051f4 	.word	0x1a0051f4
1a000e90:	1a0051f8 	.word	0x1a0051f8

1a000e94 <ld_word>:
static
WORD ld_word (const BYTE* ptr)	/*	 Load a 2-byte little-endian word */
{
	WORD rv;

	rv = ptr[1];
1a000e94:	7842      	ldrb	r2, [r0, #1]
	rv = rv << 8 | ptr[0];
1a000e96:	7800      	ldrb	r0, [r0, #0]
	return rv;
}
1a000e98:	ea40 2002 	orr.w	r0, r0, r2, lsl #8
1a000e9c:	4770      	bx	lr
1a000e9e:	bf00      	nop

1a000ea0 <ld_dword>:
static
DWORD ld_dword (const BYTE* ptr)	/* Load a 4-byte little-endian word */
{
	DWORD rv;

	rv = ptr[3];
1a000ea0:	78c2      	ldrb	r2, [r0, #3]
	rv = rv << 8 | ptr[2];
1a000ea2:	7883      	ldrb	r3, [r0, #2]
1a000ea4:	ea43 2202 	orr.w	r2, r3, r2, lsl #8
	rv = rv << 8 | ptr[1];
1a000ea8:	7843      	ldrb	r3, [r0, #1]
1a000eaa:	ea43 2302 	orr.w	r3, r3, r2, lsl #8
	rv = rv << 8 | ptr[0];
1a000eae:	7800      	ldrb	r0, [r0, #0]
	return rv;
}
1a000eb0:	ea40 2003 	orr.w	r0, r0, r3, lsl #8
1a000eb4:	4770      	bx	lr
1a000eb6:	bf00      	nop

1a000eb8 <st_word>:

#if !_FS_READONLY
static
void st_word (BYTE* ptr, WORD val)	/* Store a 2-byte word in little-endian */
{
	*ptr++ = (BYTE)val; val >>= 8;
1a000eb8:	7001      	strb	r1, [r0, #0]
	*ptr++ = (BYTE)val;
1a000eba:	0a09      	lsrs	r1, r1, #8
1a000ebc:	7041      	strb	r1, [r0, #1]
1a000ebe:	4770      	bx	lr

1a000ec0 <st_dword>:
}

static
void st_dword (BYTE* ptr, DWORD val)	/* Store a 4-byte word in little-endian */
{
	*ptr++ = (BYTE)val; val >>= 8;
1a000ec0:	7001      	strb	r1, [r0, #0]
	*ptr++ = (BYTE)val; val >>= 8;
1a000ec2:	f3c1 2307 	ubfx	r3, r1, #8, #8
1a000ec6:	7043      	strb	r3, [r0, #1]
	*ptr++ = (BYTE)val; val >>= 8;
1a000ec8:	f3c1 4307 	ubfx	r3, r1, #16, #8
1a000ecc:	7083      	strb	r3, [r0, #2]
	*ptr++ = (BYTE)val;
1a000ece:	0e09      	lsrs	r1, r1, #24
1a000ed0:	70c1      	strb	r1, [r0, #3]
1a000ed2:	4770      	bx	lr

1a000ed4 <mem_cpy>:
static
void mem_cpy (void* dst, const void* src, UINT cnt) {
	BYTE *d = (BYTE*)dst;
	const BYTE *s = (const BYTE*)src;

	if (cnt) {
1a000ed4:	4613      	mov	r3, r2
1a000ed6:	b12a      	cbz	r2, 1a000ee4 <mem_cpy+0x10>
		do *d++ = *s++; while (--cnt);
1a000ed8:	780a      	ldrb	r2, [r1, #0]
1a000eda:	7002      	strb	r2, [r0, #0]
1a000edc:	3001      	adds	r0, #1
1a000ede:	3101      	adds	r1, #1
1a000ee0:	3b01      	subs	r3, #1
1a000ee2:	d1f9      	bne.n	1a000ed8 <mem_cpy+0x4>
1a000ee4:	4770      	bx	lr
1a000ee6:	bf00      	nop

1a000ee8 <mem_set>:
/* Fill memory block */
static
void mem_set (void* dst, int val, UINT cnt) {
	BYTE *d = (BYTE*)dst;

	do *d++ = (BYTE)val; while (--cnt);
1a000ee8:	7001      	strb	r1, [r0, #0]
1a000eea:	3001      	adds	r0, #1
1a000eec:	3a01      	subs	r2, #1
1a000eee:	d1fb      	bne.n	1a000ee8 <mem_set>
}
1a000ef0:	4770      	bx	lr
1a000ef2:	bf00      	nop

1a000ef4 <mem_cmp>:

/* Compare memory block */
static
int mem_cmp (const void* dst, const void* src, UINT cnt) {	/* ZR:same, NZ:different */
1a000ef4:	b430      	push	{r4, r5}
	const BYTE *d = (const BYTE *)dst, *s = (const BYTE *)src;
	int r = 0;

	do {
		r = *d++ - *s++;
1a000ef6:	1c45      	adds	r5, r0, #1
1a000ef8:	7803      	ldrb	r3, [r0, #0]
1a000efa:	1c4c      	adds	r4, r1, #1
1a000efc:	7808      	ldrb	r0, [r1, #0]
1a000efe:	1a1b      	subs	r3, r3, r0
	} while (--cnt && r == 0);
1a000f00:	3a01      	subs	r2, #1
1a000f02:	d003      	beq.n	1a000f0c <mem_cmp+0x18>
int mem_cmp (const void* dst, const void* src, UINT cnt) {	/* ZR:same, NZ:different */
	const BYTE *d = (const BYTE *)dst, *s = (const BYTE *)src;
	int r = 0;

	do {
		r = *d++ - *s++;
1a000f04:	4628      	mov	r0, r5
1a000f06:	4621      	mov	r1, r4
	} while (--cnt && r == 0);
1a000f08:	2b00      	cmp	r3, #0
1a000f0a:	d0f4      	beq.n	1a000ef6 <mem_cmp+0x2>

	return r;
}
1a000f0c:	4618      	mov	r0, r3
1a000f0e:	bc30      	pop	{r4, r5}
1a000f10:	4770      	bx	lr
1a000f12:	bf00      	nop

1a000f14 <chk_chr>:

/* Check if chr is contained in the string */
static
int chk_chr (const char* str, int chr) {	/* NZ:contained, ZR:not contained */
	while (*str && *str != chr) str++;
1a000f14:	e000      	b.n	1a000f18 <chk_chr+0x4>
1a000f16:	3001      	adds	r0, #1
1a000f18:	7803      	ldrb	r3, [r0, #0]
1a000f1a:	b10b      	cbz	r3, 1a000f20 <chk_chr+0xc>
1a000f1c:	428b      	cmp	r3, r1
1a000f1e:	d1fa      	bne.n	1a000f16 <chk_chr+0x2>
	return *str;
}
1a000f20:	4618      	mov	r0, r3
1a000f22:	4770      	bx	lr

1a000f24 <clust2sect>:
DWORD clust2sect (	/* !=0:Sector number, 0:Failed (invalid cluster#) */
	FATFS* fs,		/* File system object */
	DWORD clst		/* Cluster# to be converted */
)
{
	clst -= 2;
1a000f24:	3902      	subs	r1, #2
	if (clst >= fs->n_fatent - 2) return 0;		/* Invalid cluster# */
1a000f26:	6943      	ldr	r3, [r0, #20]
1a000f28:	3b02      	subs	r3, #2
1a000f2a:	428b      	cmp	r3, r1
1a000f2c:	d904      	bls.n	1a000f38 <clust2sect+0x14>
	return clst * fs->csize + fs->database;
1a000f2e:	8943      	ldrh	r3, [r0, #10]
1a000f30:	6a80      	ldr	r0, [r0, #40]	; 0x28
1a000f32:	fb01 0003 	mla	r0, r1, r3, r0
1a000f36:	4770      	bx	lr
	FATFS* fs,		/* File system object */
	DWORD clst		/* Cluster# to be converted */
)
{
	clst -= 2;
	if (clst >= fs->n_fatent - 2) return 0;		/* Invalid cluster# */
1a000f38:	2000      	movs	r0, #0
	return clst * fs->csize + fs->database;
}
1a000f3a:	4770      	bx	lr

1a000f3c <ld_clust>:
static
DWORD ld_clust (	/* Returns the top cluster value of the SFN entry */
	FATFS* fs,		/* Pointer to the fs object */
	const BYTE* dir	/* Pointer to the key entry */
)
{
1a000f3c:	b570      	push	{r4, r5, r6, lr}
1a000f3e:	4606      	mov	r6, r0
1a000f40:	460d      	mov	r5, r1
	DWORD cl;

	cl = ld_word(dir + DIR_FstClusLO);
1a000f42:	f101 001a 	add.w	r0, r1, #26
1a000f46:	f7ff ffa5 	bl	1a000e94 <ld_word>
1a000f4a:	4604      	mov	r4, r0
	if (fs->fs_type == FS_FAT32) {
1a000f4c:	7833      	ldrb	r3, [r6, #0]
1a000f4e:	2b03      	cmp	r3, #3
1a000f50:	d105      	bne.n	1a000f5e <ld_clust+0x22>
		cl |= (DWORD)ld_word(dir + DIR_FstClusHI) << 16;
1a000f52:	f105 0014 	add.w	r0, r5, #20
1a000f56:	f7ff ff9d 	bl	1a000e94 <ld_word>
1a000f5a:	ea44 4000 	orr.w	r0, r4, r0, lsl #16
	}

	return cl;
}
1a000f5e:	bd70      	pop	{r4, r5, r6, pc}

1a000f60 <st_clust>:
void st_clust (
	FATFS* fs,	/* Pointer to the fs object */
	BYTE* dir,	/* Pointer to the key entry */
	DWORD cl	/* Value to be set */
)
{
1a000f60:	b570      	push	{r4, r5, r6, lr}
1a000f62:	4606      	mov	r6, r0
1a000f64:	460d      	mov	r5, r1
1a000f66:	4614      	mov	r4, r2
	st_word(dir + DIR_FstClusLO, (WORD)cl);
1a000f68:	f101 001a 	add.w	r0, r1, #26
1a000f6c:	b291      	uxth	r1, r2
1a000f6e:	f7ff ffa3 	bl	1a000eb8 <st_word>
	if (fs->fs_type == FS_FAT32) {
1a000f72:	7833      	ldrb	r3, [r6, #0]
1a000f74:	2b03      	cmp	r3, #3
1a000f76:	d104      	bne.n	1a000f82 <st_clust+0x22>
		st_word(dir + DIR_FstClusHI, (WORD)(cl >> 16));
1a000f78:	f105 0014 	add.w	r0, r5, #20
1a000f7c:	0c21      	lsrs	r1, r4, #16
1a000f7e:	f7ff ff9b 	bl	1a000eb8 <st_word>
1a000f82:	bd70      	pop	{r4, r5, r6, pc}

1a000f84 <create_name>:
static
FRESULT create_name (	/* FR_OK: successful, FR_INVALID_NAME: could not create */
	DIR* dp,			/* Pointer to the directory object */
	const TCHAR** path	/* Pointer to pointer to the segment in the path string */
)
{
1a000f84:	e92d 4ff8 	stmdb	sp!, {r3, r4, r5, r6, r7, r8, r9, sl, fp, lr}
1a000f88:	4682      	mov	sl, r0
1a000f8a:	4689      	mov	r9, r1
	BYTE c, d, *sfn;
	UINT ni, si, i;
	const char *p;

	/* Create file name in directory form */
	p = *path; sfn = dp->fn;
1a000f8c:	680f      	ldr	r7, [r1, #0]
1a000f8e:	f100 0b20 	add.w	fp, r0, #32
	mem_set(sfn, ' ', 11);
1a000f92:	4658      	mov	r0, fp
1a000f94:	2120      	movs	r1, #32
1a000f96:	220b      	movs	r2, #11
1a000f98:	f7ff ffa6 	bl	1a000ee8 <mem_set>
	si = i = 0; ni = 8;
1a000f9c:	2600      	movs	r6, #0
1a000f9e:	4633      	mov	r3, r6
1a000fa0:	f04f 0808 	mov.w	r8, #8
1a000fa4:	e000      	b.n	1a000fa8 <create_name+0x24>
1a000fa6:	462b      	mov	r3, r5
		sfn[NSFLAG] = (c <= ' ') ? NS_LAST | NS_DOT : NS_DOT;	/* Set last segment flag if end of the path */
		return FR_OK;
	}
#endif
	for (;;) {
		c = (BYTE)p[si++];
1a000fa8:	1c5d      	adds	r5, r3, #1
1a000faa:	5cfc      	ldrb	r4, [r7, r3]
		if (c <= ' ') break; 			/* Break if end of the path name */
1a000fac:	2c20      	cmp	r4, #32
1a000fae:	d92b      	bls.n	1a001008 <create_name+0x84>
		if (c == '/' || c == '\\') {	/* Break if a separator is found */
1a000fb0:	2c2f      	cmp	r4, #47	; 0x2f
1a000fb2:	d003      	beq.n	1a000fbc <create_name+0x38>
1a000fb4:	2c5c      	cmp	r4, #92	; 0x5c
1a000fb6:	d107      	bne.n	1a000fc8 <create_name+0x44>
1a000fb8:	e000      	b.n	1a000fbc <create_name+0x38>
			while (p[si] == '/' || p[si] == '\\') si++;	/* Skip duplicated separator if exist */
1a000fba:	3501      	adds	r5, #1
1a000fbc:	5d7b      	ldrb	r3, [r7, r5]
1a000fbe:	2b2f      	cmp	r3, #47	; 0x2f
1a000fc0:	d0fb      	beq.n	1a000fba <create_name+0x36>
1a000fc2:	2b5c      	cmp	r3, #92	; 0x5c
1a000fc4:	d0f9      	beq.n	1a000fba <create_name+0x36>
1a000fc6:	e01f      	b.n	1a001008 <create_name+0x84>
			break;
		}
		if (c == '.' || i >= ni) {		/* End of body or over size? */
1a000fc8:	2c2e      	cmp	r4, #46	; 0x2e
1a000fca:	d001      	beq.n	1a000fd0 <create_name+0x4c>
1a000fcc:	4546      	cmp	r6, r8
1a000fce:	d308      	bcc.n	1a000fe2 <create_name+0x5e>
			if (ni == 11 || c != '.') return FR_INVALID_NAME;	/* Over size or invalid dot */
1a000fd0:	f1b8 0f0b 	cmp.w	r8, #11
1a000fd4:	d02d      	beq.n	1a001032 <create_name+0xae>
1a000fd6:	2c2e      	cmp	r4, #46	; 0x2e
1a000fd8:	d12e      	bne.n	1a001038 <create_name+0xb4>
			i = 8; ni = 11;				/* Goto extension */
1a000fda:	2608      	movs	r6, #8
1a000fdc:	f04f 080b 	mov.w	r8, #11
1a000fe0:	e7e1      	b.n	1a000fa6 <create_name+0x22>
			continue;
		}
		if (c >= 0x80) {				/* Extended character? */
1a000fe2:	f014 0f80 	tst.w	r4, #128	; 0x80
1a000fe6:	d12a      	bne.n	1a00103e <create_name+0xba>
			d = (BYTE)p[si++];			/* Get 2nd byte */
			if (!IsDBCS2(d) || i >= ni - 1) return FR_INVALID_NAME;	/* Reject invalid DBC */
			sfn[i++] = c;
			sfn[i++] = d;
		} else {						/* SBC */
			if (chk_chr("\"*+,:;<=>\?[]|\x7F", c)) return FR_INVALID_NAME;	/* Reject illegal chrs for SFN */
1a000fe8:	4819      	ldr	r0, [pc, #100]	; (1a001050 <create_name+0xcc>)
1a000fea:	4621      	mov	r1, r4
1a000fec:	f7ff ff92 	bl	1a000f14 <chk_chr>
1a000ff0:	bb40      	cbnz	r0, 1a001044 <create_name+0xc0>
			if (IsLower(c)) c -= 0x20;	/* To upper */
1a000ff2:	f1a4 0361 	sub.w	r3, r4, #97	; 0x61
1a000ff6:	b2db      	uxtb	r3, r3
1a000ff8:	2b19      	cmp	r3, #25
1a000ffa:	d801      	bhi.n	1a001000 <create_name+0x7c>
1a000ffc:	3c20      	subs	r4, #32
1a000ffe:	b2e4      	uxtb	r4, r4
			sfn[i++] = c;
1a001000:	f80b 4006 	strb.w	r4, [fp, r6]
1a001004:	3601      	adds	r6, #1
1a001006:	e7ce      	b.n	1a000fa6 <create_name+0x22>
		}
	}
	*path = p + si;						/* Return pointer to the next segment */
1a001008:	443d      	add	r5, r7
1a00100a:	f8c9 5000 	str.w	r5, [r9]
	if (i == 0) return FR_INVALID_NAME;	/* Reject nul string */
1a00100e:	b1e6      	cbz	r6, 1a00104a <create_name+0xc6>

	if (sfn[0] == DDEM) sfn[0] = RDDEM;	/* If the first character collides with DDEM, replace it with RDDEM */
1a001010:	f89a 3020 	ldrb.w	r3, [sl, #32]
1a001014:	2be5      	cmp	r3, #229	; 0xe5
1a001016:	d102      	bne.n	1a00101e <create_name+0x9a>
1a001018:	2305      	movs	r3, #5
1a00101a:	f88a 3020 	strb.w	r3, [sl, #32]
	sfn[NSFLAG] = (c <= ' ') ? NS_LAST : 0;		/* Set last segment flag if end of the path */
1a00101e:	2c20      	cmp	r4, #32
1a001020:	d801      	bhi.n	1a001026 <create_name+0xa2>
1a001022:	2304      	movs	r3, #4
1a001024:	e000      	b.n	1a001028 <create_name+0xa4>
1a001026:	2300      	movs	r3, #0
1a001028:	f88a 302b 	strb.w	r3, [sl, #43]	; 0x2b

	return FR_OK;
1a00102c:	2000      	movs	r0, #0
1a00102e:	e8bd 8ff8 	ldmia.w	sp!, {r3, r4, r5, r6, r7, r8, r9, sl, fp, pc}
		if (c == '/' || c == '\\') {	/* Break if a separator is found */
			while (p[si] == '/' || p[si] == '\\') si++;	/* Skip duplicated separator if exist */
			break;
		}
		if (c == '.' || i >= ni) {		/* End of body or over size? */
			if (ni == 11 || c != '.') return FR_INVALID_NAME;	/* Over size or invalid dot */
1a001032:	2006      	movs	r0, #6
1a001034:	e8bd 8ff8 	ldmia.w	sp!, {r3, r4, r5, r6, r7, r8, r9, sl, fp, pc}
1a001038:	2006      	movs	r0, #6
1a00103a:	e8bd 8ff8 	ldmia.w	sp!, {r3, r4, r5, r6, r7, r8, r9, sl, fp, pc}
		if (c >= 0x80) {				/* Extended character? */
#ifdef _EXCVT
			c = ExCvt[c - 0x80];		/* To upper extended characters (SBCS cfg) */
#else
#if !_DF1S
			return FR_INVALID_NAME;		/* Reject extended characters (ASCII only cfg) */
1a00103e:	2006      	movs	r0, #6
1a001040:	e8bd 8ff8 	ldmia.w	sp!, {r3, r4, r5, r6, r7, r8, r9, sl, fp, pc}
			d = (BYTE)p[si++];			/* Get 2nd byte */
			if (!IsDBCS2(d) || i >= ni - 1) return FR_INVALID_NAME;	/* Reject invalid DBC */
			sfn[i++] = c;
			sfn[i++] = d;
		} else {						/* SBC */
			if (chk_chr("\"*+,:;<=>\?[]|\x7F", c)) return FR_INVALID_NAME;	/* Reject illegal chrs for SFN */
1a001044:	2006      	movs	r0, #6
1a001046:	e8bd 8ff8 	ldmia.w	sp!, {r3, r4, r5, r6, r7, r8, r9, sl, fp, pc}
			if (IsLower(c)) c -= 0x20;	/* To upper */
			sfn[i++] = c;
		}
	}
	*path = p + si;						/* Return pointer to the next segment */
	if (i == 0) return FR_INVALID_NAME;	/* Reject nul string */
1a00104a:	2006      	movs	r0, #6
	if (sfn[0] == DDEM) sfn[0] = RDDEM;	/* If the first character collides with DDEM, replace it with RDDEM */
	sfn[NSFLAG] = (c <= ' ') ? NS_LAST : 0;		/* Set last segment flag if end of the path */

	return FR_OK;
#endif /* _USE_LFN != 0 */
}
1a00104c:	e8bd 8ff8 	ldmia.w	sp!, {r3, r4, r5, r6, r7, r8, r9, sl, fp, pc}
1a001050:	1a00520c 	.word	0x1a00520c

1a001054 <get_ldnumber>:
	char c;
	TCHAR tc;
#endif


	if (*path) {	/* If the pointer is not a null */
1a001054:	6801      	ldr	r1, [r0, #0]
1a001056:	b921      	cbnz	r1, 1a001062 <get_ldnumber+0xe>
	const TCHAR** path	/* Pointer to pointer to the path name */
)
{
	const TCHAR *tp, *tt;
	UINT i;
	int vol = -1;
1a001058:	f04f 33ff 	mov.w	r3, #4294967295	; 0xffffffff
1a00105c:	e01f      	b.n	1a00109e <get_ldnumber+0x4a>
	TCHAR tc;
#endif


	if (*path) {	/* If the pointer is not a null */
		for (tt = *path; (UINT)*tt >= (_USE_LFN ? ' ' : '!') && *tt != ':'; tt++) ;	/* Find ':' in the path */
1a00105e:	3201      	adds	r2, #1
1a001060:	e000      	b.n	1a001064 <get_ldnumber+0x10>
1a001062:	460a      	mov	r2, r1
1a001064:	7813      	ldrb	r3, [r2, #0]
1a001066:	2b20      	cmp	r3, #32
1a001068:	d901      	bls.n	1a00106e <get_ldnumber+0x1a>
1a00106a:	2b3a      	cmp	r3, #58	; 0x3a
1a00106c:	d1f7      	bne.n	1a00105e <get_ldnumber+0xa>
		if (*tt == ':') {	/* If a ':' is exist in the path name */
1a00106e:	2b3a      	cmp	r3, #58	; 0x3a
1a001070:	d114      	bne.n	1a00109c <get_ldnumber+0x48>

static
int get_ldnumber (		/* Returns logical drive number (-1:invalid drive) */
	const TCHAR** path	/* Pointer to pointer to the path name */
)
{
1a001072:	b410      	push	{r4}

	if (*path) {	/* If the pointer is not a null */
		for (tt = *path; (UINT)*tt >= (_USE_LFN ? ' ' : '!') && *tt != ':'; tt++) ;	/* Find ':' in the path */
		if (*tt == ':') {	/* If a ':' is exist in the path name */
			tp = *path;
			i = *tp++ - '0'; 
1a001074:	1c4c      	adds	r4, r1, #1
1a001076:	780b      	ldrb	r3, [r1, #0]
1a001078:	3b30      	subs	r3, #48	; 0x30
			if (i < 10 && tp == tt) {	/* Is there a numeric drive id? */
1a00107a:	2b09      	cmp	r3, #9
1a00107c:	d805      	bhi.n	1a00108a <get_ldnumber+0x36>
1a00107e:	4294      	cmp	r4, r2
1a001080:	d106      	bne.n	1a001090 <get_ldnumber+0x3c>
				if (i < _VOLUMES) {	/* If a drive id is found, get the value and strip it */
1a001082:	b943      	cbnz	r3, 1a001096 <get_ldnumber+0x42>
					vol = (int)i;
					*path = ++tt;
1a001084:	3201      	adds	r2, #1
1a001086:	6002      	str	r2, [r0, #0]
1a001088:	e00b      	b.n	1a0010a2 <get_ldnumber+0x4e>
	const TCHAR** path	/* Pointer to pointer to the path name */
)
{
	const TCHAR *tp, *tt;
	UINT i;
	int vol = -1;
1a00108a:	f04f 33ff 	mov.w	r3, #4294967295	; 0xffffffff
1a00108e:	e008      	b.n	1a0010a2 <get_ldnumber+0x4e>
1a001090:	f04f 33ff 	mov.w	r3, #4294967295	; 0xffffffff
1a001094:	e005      	b.n	1a0010a2 <get_ldnumber+0x4e>
1a001096:	f04f 33ff 	mov.w	r3, #4294967295	; 0xffffffff
					vol = (int)i;
					*path = tt;
				}
			}
#endif
			return vol;
1a00109a:	e002      	b.n	1a0010a2 <get_ldnumber+0x4e>
		}
#if _FS_RPATH != 0 && _VOLUMES >= 2
		vol = CurrVol;	/* Current drive */
#else
		vol = 0;		/* Drive 0 */
1a00109c:	2300      	movs	r3, #0
#endif
	}
	return vol;
}
1a00109e:	4618      	mov	r0, r3
1a0010a0:	4770      	bx	lr
1a0010a2:	4618      	mov	r0, r3
1a0010a4:	f85d 4b04 	ldr.w	r4, [sp], #4
1a0010a8:	4770      	bx	lr
1a0010aa:	bf00      	nop

1a0010ac <validate>:
static
FRESULT validate (	/* Returns FR_OK or FR_INVALID_OBJECT */
	void* dfp,		/* Pointer to the FIL/DIR object to check validity */
	FATFS** fs		/* Pointer to pointer to the owner file system object to return */
)
{
1a0010ac:	b538      	push	{r3, r4, r5, lr}
1a0010ae:	460c      	mov	r4, r1
	_FDID *obj = (_FDID*)dfp;	/* Assuming .obj in the FIL/DIR is the first member */
	FRESULT res;


	if (!dfp || !obj->fs || !obj->fs->fs_type || obj->fs->id != obj->id || (disk_status(obj->fs->drv) & STA_NOINIT)) {
1a0010b0:	b170      	cbz	r0, 1a0010d0 <validate+0x24>
1a0010b2:	4605      	mov	r5, r0
1a0010b4:	6803      	ldr	r3, [r0, #0]
1a0010b6:	b15b      	cbz	r3, 1a0010d0 <validate+0x24>
1a0010b8:	781a      	ldrb	r2, [r3, #0]
1a0010ba:	b14a      	cbz	r2, 1a0010d0 <validate+0x24>
1a0010bc:	88d9      	ldrh	r1, [r3, #6]
1a0010be:	8882      	ldrh	r2, [r0, #4]
1a0010c0:	4291      	cmp	r1, r2
1a0010c2:	d105      	bne.n	1a0010d0 <validate+0x24>
1a0010c4:	7858      	ldrb	r0, [r3, #1]
1a0010c6:	f001 f979 	bl	1a0023bc <disk_status>
1a0010ca:	f010 0f01 	tst.w	r0, #1
1a0010ce:	d003      	beq.n	1a0010d8 <validate+0x2c>
		*fs = 0;				/* The object is invalid */
1a0010d0:	2300      	movs	r3, #0
1a0010d2:	6023      	str	r3, [r4, #0]
		res = FR_INVALID_OBJECT;
1a0010d4:	2009      	movs	r0, #9
1a0010d6:	bd38      	pop	{r3, r4, r5, pc}
	} else {
		*fs = obj->fs;			/* Owner file sytem object */
1a0010d8:	682b      	ldr	r3, [r5, #0]
1a0010da:	6023      	str	r3, [r4, #0]
		ENTER_FF(obj->fs);		/* Lock file system */
		res = FR_OK;
1a0010dc:	2000      	movs	r0, #0
	}
	return res;
}
1a0010de:	bd38      	pop	{r3, r4, r5, pc}

1a0010e0 <sync_window>:
#if !_FS_READONLY
static
FRESULT sync_window (	/* Returns FR_OK or FR_DISK_ERROR */
	FATFS* fs			/* File system object */
)
{
1a0010e0:	b5f8      	push	{r3, r4, r5, r6, r7, lr}
	DWORD wsect;
	UINT nf;
	FRESULT res = FR_OK;


	if (fs->wflag) {	/* Write back the sector if it is dirty */
1a0010e2:	78c3      	ldrb	r3, [r0, #3]
1a0010e4:	b303      	cbz	r3, 1a001128 <sync_window+0x48>
1a0010e6:	4604      	mov	r4, r0
		wsect = fs->winsect;	/* Current sector number */
1a0010e8:	6ac6      	ldr	r6, [r0, #44]	; 0x2c
		if (disk_write(fs->drv, fs->win, wsect, 1) != RES_OK) {
1a0010ea:	f100 0730 	add.w	r7, r0, #48	; 0x30
1a0010ee:	7840      	ldrb	r0, [r0, #1]
1a0010f0:	4639      	mov	r1, r7
1a0010f2:	4632      	mov	r2, r6
1a0010f4:	2301      	movs	r3, #1
1a0010f6:	f001 f9af 	bl	1a002458 <disk_write>
1a0010fa:	b9b8      	cbnz	r0, 1a00112c <sync_window+0x4c>
			res = FR_DISK_ERR;
		} else {
			fs->wflag = 0;
1a0010fc:	2300      	movs	r3, #0
1a0010fe:	70e3      	strb	r3, [r4, #3]
			if (wsect - fs->fatbase < fs->fsize) {		/* Is it in the FAT area? */
1a001100:	6a23      	ldr	r3, [r4, #32]
1a001102:	1af3      	subs	r3, r6, r3
1a001104:	69a2      	ldr	r2, [r4, #24]
1a001106:	4293      	cmp	r3, r2
1a001108:	d212      	bcs.n	1a001130 <sync_window+0x50>
				for (nf = fs->n_fats; nf >= 2; nf--) {	/* Reflect the change to all FAT copies */
1a00110a:	78a5      	ldrb	r5, [r4, #2]
1a00110c:	e008      	b.n	1a001120 <sync_window+0x40>
					wsect += fs->fsize;
1a00110e:	69a3      	ldr	r3, [r4, #24]
1a001110:	441e      	add	r6, r3
					disk_write(fs->drv, fs->win, wsect, 1);
1a001112:	7860      	ldrb	r0, [r4, #1]
1a001114:	4639      	mov	r1, r7
1a001116:	4632      	mov	r2, r6
1a001118:	2301      	movs	r3, #1
1a00111a:	f001 f99d 	bl	1a002458 <disk_write>
		if (disk_write(fs->drv, fs->win, wsect, 1) != RES_OK) {
			res = FR_DISK_ERR;
		} else {
			fs->wflag = 0;
			if (wsect - fs->fatbase < fs->fsize) {		/* Is it in the FAT area? */
				for (nf = fs->n_fats; nf >= 2; nf--) {	/* Reflect the change to all FAT copies */
1a00111e:	3d01      	subs	r5, #1
1a001120:	2d01      	cmp	r5, #1
1a001122:	d8f4      	bhi.n	1a00110e <sync_window+0x2e>
	FATFS* fs			/* File system object */
)
{
	DWORD wsect;
	UINT nf;
	FRESULT res = FR_OK;
1a001124:	2000      	movs	r0, #0
1a001126:	bdf8      	pop	{r3, r4, r5, r6, r7, pc}
1a001128:	2000      	movs	r0, #0
1a00112a:	bdf8      	pop	{r3, r4, r5, r6, r7, pc}


	if (fs->wflag) {	/* Write back the sector if it is dirty */
		wsect = fs->winsect;	/* Current sector number */
		if (disk_write(fs->drv, fs->win, wsect, 1) != RES_OK) {
			res = FR_DISK_ERR;
1a00112c:	2001      	movs	r0, #1
1a00112e:	bdf8      	pop	{r3, r4, r5, r6, r7, pc}
	FATFS* fs			/* File system object */
)
{
	DWORD wsect;
	UINT nf;
	FRESULT res = FR_OK;
1a001130:	2000      	movs	r0, #0
				}
			}
		}
	}
	return res;
}
1a001132:	bdf8      	pop	{r3, r4, r5, r6, r7, pc}

1a001134 <move_window>:
static
FRESULT move_window (	/* Returns FR_OK or FR_DISK_ERROR */
	FATFS* fs,			/* File system object */
	DWORD sector		/* Sector number to make appearance in the fs->win[] */
)
{
1a001134:	b570      	push	{r4, r5, r6, lr}
1a001136:	4604      	mov	r4, r0
1a001138:	460d      	mov	r5, r1
	FRESULT res = FR_OK;


	if (sector != fs->winsect) {	/* Window offset changed? */
1a00113a:	6ac3      	ldr	r3, [r0, #44]	; 0x2c
1a00113c:	428b      	cmp	r3, r1
1a00113e:	d010      	beq.n	1a001162 <move_window+0x2e>
#if !_FS_READONLY
		res = sync_window(fs);		/* Write-back changes */
1a001140:	f7ff ffce 	bl	1a0010e0 <sync_window>
#endif
		if (res == FR_OK) {			/* Fill sector window with new data */
1a001144:	4606      	mov	r6, r0
1a001146:	b968      	cbnz	r0, 1a001164 <move_window+0x30>
			if (disk_read(fs->drv, fs->win, sector, 1) != RES_OK) {
1a001148:	7860      	ldrb	r0, [r4, #1]
1a00114a:	f104 0130 	add.w	r1, r4, #48	; 0x30
1a00114e:	462a      	mov	r2, r5
1a001150:	2301      	movs	r3, #1
1a001152:	f001 f93d 	bl	1a0023d0 <disk_read>
1a001156:	b110      	cbz	r0, 1a00115e <move_window+0x2a>
				sector = 0xFFFFFFFF;	/* Invalidate window if data is not reliable */
				res = FR_DISK_ERR;
1a001158:	2601      	movs	r6, #1
#if !_FS_READONLY
		res = sync_window(fs);		/* Write-back changes */
#endif
		if (res == FR_OK) {			/* Fill sector window with new data */
			if (disk_read(fs->drv, fs->win, sector, 1) != RES_OK) {
				sector = 0xFFFFFFFF;	/* Invalidate window if data is not reliable */
1a00115a:	f04f 35ff 	mov.w	r5, #4294967295	; 0xffffffff
				res = FR_DISK_ERR;
			}
			fs->winsect = sector;
1a00115e:	62e5      	str	r5, [r4, #44]	; 0x2c
1a001160:	e000      	b.n	1a001164 <move_window+0x30>
FRESULT move_window (	/* Returns FR_OK or FR_DISK_ERROR */
	FATFS* fs,			/* File system object */
	DWORD sector		/* Sector number to make appearance in the fs->win[] */
)
{
	FRESULT res = FR_OK;
1a001162:	2600      	movs	r6, #0
			}
			fs->winsect = sector;
		}
	}
	return res;
}
1a001164:	4630      	mov	r0, r6
1a001166:	bd70      	pop	{r4, r5, r6, pc}

1a001168 <check_fs>:
static
BYTE check_fs (	/* 0:FAT, 1:exFAT, 2:Valid BS but not FAT, 3:Not a BS, 4:Disk error */
	FATFS* fs,	/* File system object */
	DWORD sect	/* Sector# (lba) to check if it is an FAT-VBR or not */
)
{
1a001168:	b510      	push	{r4, lr}
1a00116a:	4604      	mov	r4, r0
	fs->wflag = 0; fs->winsect = 0xFFFFFFFF;		/* Invaidate window */
1a00116c:	2300      	movs	r3, #0
1a00116e:	70c3      	strb	r3, [r0, #3]
1a001170:	f04f 33ff 	mov.w	r3, #4294967295	; 0xffffffff
1a001174:	62c3      	str	r3, [r0, #44]	; 0x2c
	if (move_window(fs, sect) != FR_OK) return 4;	/* Load boot record */
1a001176:	f7ff ffdd 	bl	1a001134 <move_window>
1a00117a:	bb18      	cbnz	r0, 1a0011c4 <check_fs+0x5c>

	if (ld_word(fs->win + BS_55AA) != 0xAA55) return 3;	/* Check boot record signature (always placed at offset 510 even if the sector size is >512) */
1a00117c:	f204 202e 	addw	r0, r4, #558	; 0x22e
1a001180:	f7ff fe88 	bl	1a000e94 <ld_word>
1a001184:	f64a 2355 	movw	r3, #43605	; 0xaa55
1a001188:	4298      	cmp	r0, r3
1a00118a:	d11d      	bne.n	1a0011c8 <check_fs+0x60>

	if (fs->win[BS_JmpBoot] == 0xE9 || (fs->win[BS_JmpBoot] == 0xEB && fs->win[BS_JmpBoot + 2] == 0x90)) {
1a00118c:	f894 3030 	ldrb.w	r3, [r4, #48]	; 0x30
1a001190:	2be9      	cmp	r3, #233	; 0xe9
1a001192:	d005      	beq.n	1a0011a0 <check_fs+0x38>
1a001194:	6b23      	ldr	r3, [r4, #48]	; 0x30
1a001196:	f003 13ff 	and.w	r3, r3, #16711935	; 0xff00ff
1a00119a:	4a0f      	ldr	r2, [pc, #60]	; (1a0011d8 <check_fs+0x70>)
1a00119c:	4293      	cmp	r3, r2
1a00119e:	d115      	bne.n	1a0011cc <check_fs+0x64>
		if ((ld_dword(fs->win + BS_FilSysType) & 0xFFFFFF) == 0x544146) return 0;	/* Check "FAT" string */
1a0011a0:	f104 0066 	add.w	r0, r4, #102	; 0x66
1a0011a4:	f7ff fe7c 	bl	1a000ea0 <ld_dword>
1a0011a8:	f020 407f 	bic.w	r0, r0, #4278190080	; 0xff000000
1a0011ac:	4b0b      	ldr	r3, [pc, #44]	; (1a0011dc <check_fs+0x74>)
1a0011ae:	4298      	cmp	r0, r3
1a0011b0:	d00e      	beq.n	1a0011d0 <check_fs+0x68>
		if (ld_dword(fs->win + BS_FilSysType32) == 0x33544146) return 0;			/* Check "FAT3" string */
1a0011b2:	f104 0082 	add.w	r0, r4, #130	; 0x82
1a0011b6:	f7ff fe73 	bl	1a000ea0 <ld_dword>
1a0011ba:	4b09      	ldr	r3, [pc, #36]	; (1a0011e0 <check_fs+0x78>)
1a0011bc:	4298      	cmp	r0, r3
1a0011be:	d009      	beq.n	1a0011d4 <check_fs+0x6c>
	}
#if _FS_EXFAT
	if (!mem_cmp(fs->win + BS_JmpBoot, "\xEB\x76\x90" "EXFAT   ", 11)) return 1;
#endif
	return 2;
1a0011c0:	2002      	movs	r0, #2
1a0011c2:	bd10      	pop	{r4, pc}
	FATFS* fs,	/* File system object */
	DWORD sect	/* Sector# (lba) to check if it is an FAT-VBR or not */
)
{
	fs->wflag = 0; fs->winsect = 0xFFFFFFFF;		/* Invaidate window */
	if (move_window(fs, sect) != FR_OK) return 4;	/* Load boot record */
1a0011c4:	2004      	movs	r0, #4
1a0011c6:	bd10      	pop	{r4, pc}

	if (ld_word(fs->win + BS_55AA) != 0xAA55) return 3;	/* Check boot record signature (always placed at offset 510 even if the sector size is >512) */
1a0011c8:	2003      	movs	r0, #3
1a0011ca:	bd10      	pop	{r4, pc}
		if (ld_dword(fs->win + BS_FilSysType32) == 0x33544146) return 0;			/* Check "FAT3" string */
	}
#if _FS_EXFAT
	if (!mem_cmp(fs->win + BS_JmpBoot, "\xEB\x76\x90" "EXFAT   ", 11)) return 1;
#endif
	return 2;
1a0011cc:	2002      	movs	r0, #2
1a0011ce:	bd10      	pop	{r4, pc}
	if (move_window(fs, sect) != FR_OK) return 4;	/* Load boot record */

	if (ld_word(fs->win + BS_55AA) != 0xAA55) return 3;	/* Check boot record signature (always placed at offset 510 even if the sector size is >512) */

	if (fs->win[BS_JmpBoot] == 0xE9 || (fs->win[BS_JmpBoot] == 0xEB && fs->win[BS_JmpBoot + 2] == 0x90)) {
		if ((ld_dword(fs->win + BS_FilSysType) & 0xFFFFFF) == 0x544146) return 0;	/* Check "FAT" string */
1a0011d0:	2000      	movs	r0, #0
1a0011d2:	bd10      	pop	{r4, pc}
		if (ld_dword(fs->win + BS_FilSysType32) == 0x33544146) return 0;			/* Check "FAT3" string */
1a0011d4:	2000      	movs	r0, #0
	}
#if _FS_EXFAT
	if (!mem_cmp(fs->win + BS_JmpBoot, "\xEB\x76\x90" "EXFAT   ", 11)) return 1;
#endif
	return 2;
}
1a0011d6:	bd10      	pop	{r4, pc}
1a0011d8:	009000eb 	.word	0x009000eb
1a0011dc:	00544146 	.word	0x00544146
1a0011e0:	33544146 	.word	0x33544146

1a0011e4 <find_volume>:
FRESULT find_volume (	/* FR_OK(0): successful, !=0: any error occurred */
	const TCHAR** path,	/* Pointer to pointer to the path name (drive number) */
	FATFS** rfs,		/* Pointer to pointer to the found file system object */
	BYTE mode			/* !=0: Check write protection for write access */
)
{
1a0011e4:	e92d 47f0 	stmdb	sp!, {r4, r5, r6, r7, r8, r9, sl, lr}
1a0011e8:	b084      	sub	sp, #16
1a0011ea:	460e      	mov	r6, r1
1a0011ec:	4617      	mov	r7, r2
	FATFS *fs;
	UINT i;


	/* Get logical drive number from the path name */
	*rfs = 0;
1a0011ee:	2300      	movs	r3, #0
1a0011f0:	600b      	str	r3, [r1, #0]
	vol = get_ldnumber(path);
1a0011f2:	f7ff ff2f 	bl	1a001054 <get_ldnumber>
	if (vol < 0) return FR_INVALID_DRIVE;
1a0011f6:	1e05      	subs	r5, r0, #0
1a0011f8:	f2c0 812b 	blt.w	1a001452 <find_volume+0x26e>

	/* Check if the file system object is valid or not */
	fs = FatFs[vol];					/* Get pointer to the file system object */
1a0011fc:	4baa      	ldr	r3, [pc, #680]	; (1a0014a8 <find_volume+0x2c4>)
1a0011fe:	f853 4025 	ldr.w	r4, [r3, r5, lsl #2]
	if (!fs) return FR_NOT_ENABLED;		/* Is the file system object available? */
1a001202:	2c00      	cmp	r4, #0
1a001204:	f000 8127 	beq.w	1a001456 <find_volume+0x272>

	ENTER_FF(fs);						/* Lock the volume */
	*rfs = fs;							/* Return pointer to the file system object */
1a001208:	6034      	str	r4, [r6, #0]

	mode &= ~FA_READ;					/* Desired access mode, write access or not */
1a00120a:	f007 07fe 	and.w	r7, r7, #254	; 0xfe
	if (fs->fs_type) {					/* If the volume has been mounted */
1a00120e:	7823      	ldrb	r3, [r4, #0]
1a001210:	b173      	cbz	r3, 1a001230 <find_volume+0x4c>
		stat = disk_status(fs->drv);
1a001212:	7860      	ldrb	r0, [r4, #1]
1a001214:	f001 f8d2 	bl	1a0023bc <disk_status>
		if (!(stat & STA_NOINIT)) {		/* and the physical drive is kept initialized */
1a001218:	f010 0f01 	tst.w	r0, #1
1a00121c:	d108      	bne.n	1a001230 <find_volume+0x4c>
			if (!_FS_READONLY && mode && (stat & STA_PROTECT)) {	/* Check write protection if needed */
1a00121e:	2f00      	cmp	r7, #0
1a001220:	f000 811b 	beq.w	1a00145a <find_volume+0x276>
1a001224:	f010 0f04 	tst.w	r0, #4
1a001228:	f040 8119 	bne.w	1a00145e <find_volume+0x27a>
				return FR_WRITE_PROTECTED;
			}
			return FR_OK;				/* The file system object is valid */
1a00122c:	2000      	movs	r0, #0
1a00122e:	e137      	b.n	1a0014a0 <find_volume+0x2bc>
	}

	/* The file system object is not valid. */
	/* Following code attempts to mount the volume. (analyze BPB and initialize the fs object) */

	fs->fs_type = 0;					/* Clear the file system object */
1a001230:	2300      	movs	r3, #0
1a001232:	7023      	strb	r3, [r4, #0]
	fs->drv = LD2PD(vol);				/* Bind the logical drive and a physical drive */
1a001234:	b2e8      	uxtb	r0, r5
1a001236:	7060      	strb	r0, [r4, #1]
	stat = disk_initialize(fs->drv);	/* Initialize the physical drive */
1a001238:	f001 f814 	bl	1a002264 <disk_initialize>
	if (stat & STA_NOINIT) { 			/* Check if the initialization succeeded */
1a00123c:	f010 0f01 	tst.w	r0, #1
1a001240:	f040 810f 	bne.w	1a001462 <find_volume+0x27e>
		return FR_NOT_READY;			/* Failed to initialize due to no medium or hard error */
	}
	if (!_FS_READONLY && mode && (stat & STA_PROTECT)) { /* Check disk write protection if needed */
1a001244:	b11f      	cbz	r7, 1a00124e <find_volume+0x6a>
1a001246:	f010 0f04 	tst.w	r0, #4
1a00124a:	f040 810c 	bne.w	1a001466 <find_volume+0x282>
	if (disk_ioctl(fs->drv, GET_SECTOR_SIZE, &SS(fs)) != RES_OK) return FR_DISK_ERR;
	if (SS(fs) > _MAX_SS || SS(fs) < _MIN_SS || (SS(fs) & (SS(fs) - 1))) return FR_DISK_ERR;
#endif
	/* Find an FAT partition on the drive. Supports only generic partitioning, FDISK and SFD. */
	bsect = 0;
	fmt = check_fs(fs, bsect);			/* Load sector 0 and check if it is an FAT-VBR as SFD */
1a00124e:	4620      	mov	r0, r4
1a001250:	2100      	movs	r1, #0
1a001252:	f7ff ff89 	bl	1a001168 <check_fs>
	if (fmt == 2 || (fmt < 2 && LD2PT(vol) != 0)) {	/* Not an FAT-VBR or forced partition number */
1a001256:	2802      	cmp	r0, #2
1a001258:	d014      	beq.n	1a001284 <find_volume+0xa0>
#if _MAX_SS != _MIN_SS						/* Get sector size (multiple sector size cfg only) */
	if (disk_ioctl(fs->drv, GET_SECTOR_SIZE, &SS(fs)) != RES_OK) return FR_DISK_ERR;
	if (SS(fs) > _MAX_SS || SS(fs) < _MIN_SS || (SS(fs) & (SS(fs) - 1))) return FR_DISK_ERR;
#endif
	/* Find an FAT partition on the drive. Supports only generic partitioning, FDISK and SFD. */
	bsect = 0;
1a00125a:	2600      	movs	r6, #0
1a00125c:	e027      	b.n	1a0012ae <find_volume+0xca>
	fmt = check_fs(fs, bsect);			/* Load sector 0 and check if it is an FAT-VBR as SFD */
	if (fmt == 2 || (fmt < 2 && LD2PT(vol) != 0)) {	/* Not an FAT-VBR or forced partition number */
		for (i = 0; i < 4; i++) {			/* Get partition offset */
			pt = fs->win + (MBR_Table + i * SZ_PTE);
1a00125e:	eb04 1005 	add.w	r0, r4, r5, lsl #4
			br[i] = pt[PTE_System] ? ld_dword(pt + PTE_StLba) : 0;
1a001262:	f890 31f2 	ldrb.w	r3, [r0, #498]	; 0x1f2
	/* Find an FAT partition on the drive. Supports only generic partitioning, FDISK and SFD. */
	bsect = 0;
	fmt = check_fs(fs, bsect);			/* Load sector 0 and check if it is an FAT-VBR as SFD */
	if (fmt == 2 || (fmt < 2 && LD2PT(vol) != 0)) {	/* Not an FAT-VBR or forced partition number */
		for (i = 0; i < 4; i++) {			/* Get partition offset */
			pt = fs->win + (MBR_Table + i * SZ_PTE);
1a001266:	f500 70f7 	add.w	r0, r0, #494	; 0x1ee
			br[i] = pt[PTE_System] ? ld_dword(pt + PTE_StLba) : 0;
1a00126a:	b11b      	cbz	r3, 1a001274 <find_volume+0x90>
1a00126c:	3008      	adds	r0, #8
1a00126e:	f7ff fe17 	bl	1a000ea0 <ld_dword>
1a001272:	e000      	b.n	1a001276 <find_volume+0x92>
1a001274:	2000      	movs	r0, #0
1a001276:	ab04      	add	r3, sp, #16
1a001278:	eb03 0385 	add.w	r3, r3, r5, lsl #2
1a00127c:	f843 0c10 	str.w	r0, [r3, #-16]
#endif
	/* Find an FAT partition on the drive. Supports only generic partitioning, FDISK and SFD. */
	bsect = 0;
	fmt = check_fs(fs, bsect);			/* Load sector 0 and check if it is an FAT-VBR as SFD */
	if (fmt == 2 || (fmt < 2 && LD2PT(vol) != 0)) {	/* Not an FAT-VBR or forced partition number */
		for (i = 0; i < 4; i++) {			/* Get partition offset */
1a001280:	3501      	adds	r5, #1
1a001282:	e000      	b.n	1a001286 <find_volume+0xa2>
1a001284:	2500      	movs	r5, #0
1a001286:	2d03      	cmp	r5, #3
1a001288:	d9e9      	bls.n	1a00125e <find_volume+0x7a>
1a00128a:	2500      	movs	r5, #0
			br[i] = pt[PTE_System] ? ld_dword(pt + PTE_StLba) : 0;
		}
		i = LD2PT(vol);						/* Partition number: 0:auto, 1-4:forced */
		if (i) i--;
		do {								/* Find an FAT volume */
			bsect = br[i];
1a00128c:	ab04      	add	r3, sp, #16
1a00128e:	eb03 0385 	add.w	r3, r3, r5, lsl #2
1a001292:	f853 6c10 	ldr.w	r6, [r3, #-16]
			fmt = bsect ? check_fs(fs, bsect) : 3;	/* Check the partition */
1a001296:	b126      	cbz	r6, 1a0012a2 <find_volume+0xbe>
1a001298:	4620      	mov	r0, r4
1a00129a:	4631      	mov	r1, r6
1a00129c:	f7ff ff64 	bl	1a001168 <check_fs>
1a0012a0:	e000      	b.n	1a0012a4 <find_volume+0xc0>
1a0012a2:	2003      	movs	r0, #3
		} while (!LD2PT(vol) && fmt >= 2 && ++i < 4);
1a0012a4:	2801      	cmp	r0, #1
1a0012a6:	d902      	bls.n	1a0012ae <find_volume+0xca>
1a0012a8:	3501      	adds	r5, #1
1a0012aa:	2d03      	cmp	r5, #3
1a0012ac:	d9ee      	bls.n	1a00128c <find_volume+0xa8>
	}
	if (fmt == 4) return FR_DISK_ERR;		/* An error occured in the disk I/O layer */
1a0012ae:	2804      	cmp	r0, #4
1a0012b0:	f000 80db 	beq.w	1a00146a <find_volume+0x286>
	if (fmt >= 2) return FR_NO_FILESYSTEM;	/* No FAT volume is found */
1a0012b4:	2801      	cmp	r0, #1
1a0012b6:	f200 80da 	bhi.w	1a00146e <find_volume+0x28a>
#endif
		fmt = FS_EXFAT;			/* FAT sub-type */
	} else
#endif	/* _FS_EXFAT */
	{
		if (ld_word(fs->win + BPB_BytsPerSec) != SS(fs)) return FR_NO_FILESYSTEM;	/* (BPB_BytsPerSec must be equal to the physical sector size) */
1a0012ba:	f104 003b 	add.w	r0, r4, #59	; 0x3b
1a0012be:	f7ff fde9 	bl	1a000e94 <ld_word>
1a0012c2:	f5b0 7f00 	cmp.w	r0, #512	; 0x200
1a0012c6:	f040 80d4 	bne.w	1a001472 <find_volume+0x28e>

		fasize = ld_word(fs->win + BPB_FATSz16);			/* Number of sectors per FAT */
1a0012ca:	f104 0046 	add.w	r0, r4, #70	; 0x46
1a0012ce:	f7ff fde1 	bl	1a000e94 <ld_word>
1a0012d2:	4680      	mov	r8, r0
		if (fasize == 0) fasize = ld_dword(fs->win + BPB_FATSz32);
1a0012d4:	b920      	cbnz	r0, 1a0012e0 <find_volume+0xfc>
1a0012d6:	f104 0054 	add.w	r0, r4, #84	; 0x54
1a0012da:	f7ff fde1 	bl	1a000ea0 <ld_dword>
1a0012de:	4680      	mov	r8, r0
		fs->fsize = fasize;
1a0012e0:	f8c4 8018 	str.w	r8, [r4, #24]

		fs->n_fats = fs->win[BPB_NumFATs];					/* Number of FATs */
1a0012e4:	f894 9040 	ldrb.w	r9, [r4, #64]	; 0x40
1a0012e8:	f884 9002 	strb.w	r9, [r4, #2]
		if (fs->n_fats != 1 && fs->n_fats != 2) return FR_NO_FILESYSTEM;	/* (Must be 1 or 2) */
1a0012ec:	f109 33ff 	add.w	r3, r9, #4294967295	; 0xffffffff
1a0012f0:	b2db      	uxtb	r3, r3
1a0012f2:	2b01      	cmp	r3, #1
1a0012f4:	f200 80bf 	bhi.w	1a001476 <find_volume+0x292>
		fasize *= fs->n_fats;								/* Number of sectors for FAT area */
1a0012f8:	fb08 f909 	mul.w	r9, r8, r9

		fs->csize = fs->win[BPB_SecPerClus];				/* Cluster size */
1a0012fc:	f894 503d 	ldrb.w	r5, [r4, #61]	; 0x3d
1a001300:	8165      	strh	r5, [r4, #10]
		if (fs->csize == 0 || (fs->csize & (fs->csize - 1))) return FR_NO_FILESYSTEM;	/* (Must be power of 2) */
1a001302:	2d00      	cmp	r5, #0
1a001304:	f000 80b9 	beq.w	1a00147a <find_volume+0x296>
1a001308:	1e6b      	subs	r3, r5, #1
1a00130a:	421d      	tst	r5, r3
1a00130c:	f040 80b7 	bne.w	1a00147e <find_volume+0x29a>

		fs->n_rootdir = ld_word(fs->win + BPB_RootEntCnt);	/* Number of root directory entries */
1a001310:	f104 0041 	add.w	r0, r4, #65	; 0x41
1a001314:	f7ff fdbe 	bl	1a000e94 <ld_word>
1a001318:	4682      	mov	sl, r0
1a00131a:	8120      	strh	r0, [r4, #8]
		if (fs->n_rootdir % (SS(fs) / SZDIRE)) return FR_NO_FILESYSTEM;	/* (Must be sector aligned) */
1a00131c:	f010 0f0f 	tst.w	r0, #15
1a001320:	f040 80af 	bne.w	1a001482 <find_volume+0x29e>

		tsect = ld_word(fs->win + BPB_TotSec16);			/* Number of sectors on the volume */
1a001324:	f104 0043 	add.w	r0, r4, #67	; 0x43
1a001328:	f7ff fdb4 	bl	1a000e94 <ld_word>
1a00132c:	4607      	mov	r7, r0
		if (tsect == 0) tsect = ld_dword(fs->win + BPB_TotSec32);
1a00132e:	b920      	cbnz	r0, 1a00133a <find_volume+0x156>
1a001330:	f104 0050 	add.w	r0, r4, #80	; 0x50
1a001334:	f7ff fdb4 	bl	1a000ea0 <ld_dword>
1a001338:	4607      	mov	r7, r0

		nrsv = ld_word(fs->win + BPB_RsvdSecCnt);			/* Number of reserved sectors */
1a00133a:	f104 003e 	add.w	r0, r4, #62	; 0x3e
1a00133e:	f7ff fda9 	bl	1a000e94 <ld_word>
		if (nrsv == 0) return FR_NO_FILESYSTEM;				/* (Must not be 0) */
1a001342:	4603      	mov	r3, r0
1a001344:	2800      	cmp	r0, #0
1a001346:	f000 809e 	beq.w	1a001486 <find_volume+0x2a2>

		/* Determine the FAT sub type */
		sysect = nrsv + fasize + fs->n_rootdir / (SS(fs) / SZDIRE);	/* RSV + FAT + DIR */
1a00134a:	eb00 0209 	add.w	r2, r0, r9
1a00134e:	eb02 121a 	add.w	r2, r2, sl, lsr #4
		if (tsect < sysect) return FR_NO_FILESYSTEM;		/* (Invalid volume size) */
1a001352:	4297      	cmp	r7, r2
1a001354:	f0c0 8099 	bcc.w	1a00148a <find_volume+0x2a6>
		nclst = (tsect - sysect) / fs->csize;				/* Number of clusters */
1a001358:	1abf      	subs	r7, r7, r2
1a00135a:	fbb7 f5f5 	udiv	r5, r7, r5
		if (nclst == 0) return FR_NO_FILESYSTEM;			/* (Invalid volume size) */
1a00135e:	2d00      	cmp	r5, #0
1a001360:	f000 8095 	beq.w	1a00148e <find_volume+0x2aa>
		fmt = FS_FAT32;
		if (nclst <= MAX_FAT16) fmt = FS_FAT16;
1a001364:	f64f 71f5 	movw	r1, #65525	; 0xfff5
1a001368:	428d      	cmp	r5, r1
1a00136a:	d901      	bls.n	1a001370 <find_volume+0x18c>
		/* Determine the FAT sub type */
		sysect = nrsv + fasize + fs->n_rootdir / (SS(fs) / SZDIRE);	/* RSV + FAT + DIR */
		if (tsect < sysect) return FR_NO_FILESYSTEM;		/* (Invalid volume size) */
		nclst = (tsect - sysect) / fs->csize;				/* Number of clusters */
		if (nclst == 0) return FR_NO_FILESYSTEM;			/* (Invalid volume size) */
		fmt = FS_FAT32;
1a00136c:	2703      	movs	r7, #3
1a00136e:	e000      	b.n	1a001372 <find_volume+0x18e>
		if (nclst <= MAX_FAT16) fmt = FS_FAT16;
1a001370:	2702      	movs	r7, #2
		if (nclst <= MAX_FAT12) fmt = FS_FAT12;
1a001372:	f640 71f5 	movw	r1, #4085	; 0xff5
1a001376:	428d      	cmp	r5, r1
1a001378:	d800      	bhi.n	1a00137c <find_volume+0x198>
1a00137a:	2701      	movs	r7, #1

		/* Boundaries and Limits */
		fs->n_fatent = nclst + 2;							/* Number of FAT entries */
1a00137c:	3502      	adds	r5, #2
1a00137e:	6165      	str	r5, [r4, #20]
		fs->volbase = bsect;								/* Volume start sector */
1a001380:	61e6      	str	r6, [r4, #28]
		fs->fatbase = bsect + nrsv; 						/* FAT start sector */
1a001382:	4433      	add	r3, r6
1a001384:	6223      	str	r3, [r4, #32]
		fs->database = bsect + sysect;						/* Data start sector */
1a001386:	4432      	add	r2, r6
1a001388:	62a2      	str	r2, [r4, #40]	; 0x28
		if (fmt == FS_FAT32) {
1a00138a:	2f03      	cmp	r7, #3
1a00138c:	d10f      	bne.n	1a0013ae <find_volume+0x1ca>
			if (ld_word(fs->win + BPB_FSVer32) != 0) return FR_NO_FILESYSTEM;	/* (Must be FAT32 revision 0.0) */
1a00138e:	f104 005a 	add.w	r0, r4, #90	; 0x5a
1a001392:	f7ff fd7f 	bl	1a000e94 <ld_word>
1a001396:	2800      	cmp	r0, #0
1a001398:	d17b      	bne.n	1a001492 <find_volume+0x2ae>
			if (fs->n_rootdir) return FR_NO_FILESYSTEM;		/* (BPB_RootEntCnt must be 0) */
1a00139a:	f1ba 0f00 	cmp.w	sl, #0
1a00139e:	d17a      	bne.n	1a001496 <find_volume+0x2b2>
			fs->dirbase = ld_dword(fs->win + BPB_RootClus32);	/* Root directory start cluster */
1a0013a0:	f104 005c 	add.w	r0, r4, #92	; 0x5c
1a0013a4:	f7ff fd7c 	bl	1a000ea0 <ld_dword>
1a0013a8:	6260      	str	r0, [r4, #36]	; 0x24
			szbfat = fs->n_fatent * 4;						/* (Needed FAT size) */
1a0013aa:	00ad      	lsls	r5, r5, #2
1a0013ac:	e00e      	b.n	1a0013cc <find_volume+0x1e8>
		} else {
			if (fs->n_rootdir == 0)	return FR_NO_FILESYSTEM;/* (BPB_RootEntCnt must not be 0) */
1a0013ae:	f1ba 0f00 	cmp.w	sl, #0
1a0013b2:	d072      	beq.n	1a00149a <find_volume+0x2b6>
			fs->dirbase = fs->fatbase + fasize;				/* Root directory start sector */
1a0013b4:	444b      	add	r3, r9
1a0013b6:	6263      	str	r3, [r4, #36]	; 0x24
			szbfat = (fmt == FS_FAT16) ?					/* (Needed FAT size) */
				fs->n_fatent * 2 : fs->n_fatent * 3 / 2 + (fs->n_fatent & 1);
1a0013b8:	2f02      	cmp	r7, #2
1a0013ba:	d101      	bne.n	1a0013c0 <find_volume+0x1dc>
1a0013bc:	006d      	lsls	r5, r5, #1
1a0013be:	e005      	b.n	1a0013cc <find_volume+0x1e8>
1a0013c0:	eb05 0345 	add.w	r3, r5, r5, lsl #1
1a0013c4:	f005 0501 	and.w	r5, r5, #1
1a0013c8:	eb05 0553 	add.w	r5, r5, r3, lsr #1
		}
		if (fs->fsize < (szbfat + (SS(fs) - 1)) / SS(fs)) return FR_NO_FILESYSTEM;	/* (BPB_FATSz must not be less than the size needed) */
1a0013cc:	f205 15ff 	addw	r5, r5, #511	; 0x1ff
1a0013d0:	ebb8 2f55 	cmp.w	r8, r5, lsr #9
1a0013d4:	d363      	bcc.n	1a00149e <find_volume+0x2ba>

#if !_FS_READONLY
		/* Get FSINFO if available */
		fs->last_clst = fs->free_clst = 0xFFFFFFFF;		/* Initialize cluster allocation information */
1a0013d6:	f04f 33ff 	mov.w	r3, #4294967295	; 0xffffffff
1a0013da:	6123      	str	r3, [r4, #16]
1a0013dc:	60e3      	str	r3, [r4, #12]
		fs->fsi_flag = 0x80;
1a0013de:	2380      	movs	r3, #128	; 0x80
1a0013e0:	7123      	strb	r3, [r4, #4]
#if (_FS_NOFSINFO & 3) != 3
		if (fmt == FS_FAT32				/* Enable FSINFO only if FAT32 and BPB_FSInfo32 == 1 */
1a0013e2:	2f03      	cmp	r7, #3
1a0013e4:	d12c      	bne.n	1a001440 <find_volume+0x25c>
			&& ld_word(fs->win + BPB_FSInfo32) == 1
1a0013e6:	f104 0060 	add.w	r0, r4, #96	; 0x60
1a0013ea:	f7ff fd53 	bl	1a000e94 <ld_word>
1a0013ee:	2801      	cmp	r0, #1
1a0013f0:	d126      	bne.n	1a001440 <find_volume+0x25c>
			&& move_window(fs, bsect + 1) == FR_OK)
1a0013f2:	4620      	mov	r0, r4
1a0013f4:	1c71      	adds	r1, r6, #1
1a0013f6:	f7ff fe9d 	bl	1a001134 <move_window>
1a0013fa:	bb08      	cbnz	r0, 1a001440 <find_volume+0x25c>
		{
			fs->fsi_flag = 0;
1a0013fc:	2300      	movs	r3, #0
1a0013fe:	7123      	strb	r3, [r4, #4]
			if (ld_word(fs->win + BS_55AA) == 0xAA55	/* Load FSINFO data if available */
1a001400:	f204 202e 	addw	r0, r4, #558	; 0x22e
1a001404:	f7ff fd46 	bl	1a000e94 <ld_word>
1a001408:	f64a 2355 	movw	r3, #43605	; 0xaa55
1a00140c:	4298      	cmp	r0, r3
1a00140e:	d117      	bne.n	1a001440 <find_volume+0x25c>
				&& ld_dword(fs->win + FSI_LeadSig) == 0x41615252
1a001410:	f104 0030 	add.w	r0, r4, #48	; 0x30
1a001414:	f7ff fd44 	bl	1a000ea0 <ld_dword>
1a001418:	4b24      	ldr	r3, [pc, #144]	; (1a0014ac <find_volume+0x2c8>)
1a00141a:	4298      	cmp	r0, r3
1a00141c:	d110      	bne.n	1a001440 <find_volume+0x25c>
				&& ld_dword(fs->win + FSI_StrucSig) == 0x61417272)
1a00141e:	f504 7005 	add.w	r0, r4, #532	; 0x214
1a001422:	f7ff fd3d 	bl	1a000ea0 <ld_dword>
1a001426:	4b22      	ldr	r3, [pc, #136]	; (1a0014b0 <find_volume+0x2cc>)
1a001428:	4298      	cmp	r0, r3
1a00142a:	d109      	bne.n	1a001440 <find_volume+0x25c>
			{
#if (_FS_NOFSINFO & 1) == 0
				fs->free_clst = ld_dword(fs->win + FSI_Free_Count);
1a00142c:	f504 7006 	add.w	r0, r4, #536	; 0x218
1a001430:	f7ff fd36 	bl	1a000ea0 <ld_dword>
1a001434:	6120      	str	r0, [r4, #16]
#endif
#if (_FS_NOFSINFO & 2) == 0
				fs->last_clst = ld_dword(fs->win + FSI_Nxt_Free);
1a001436:	f504 7007 	add.w	r0, r4, #540	; 0x21c
1a00143a:	f7ff fd31 	bl	1a000ea0 <ld_dword>
1a00143e:	60e0      	str	r0, [r4, #12]
		}
#endif	/* (_FS_NOFSINFO & 3) != 3 */
#endif	/* !_FS_READONLY */
	}

	fs->fs_type = fmt;	/* FAT sub-type */
1a001440:	7027      	strb	r7, [r4, #0]
	fs->id = ++Fsid;	/* File system mount ID */
1a001442:	4a1c      	ldr	r2, [pc, #112]	; (1a0014b4 <find_volume+0x2d0>)
1a001444:	8813      	ldrh	r3, [r2, #0]
1a001446:	3301      	adds	r3, #1
1a001448:	b29b      	uxth	r3, r3
1a00144a:	8013      	strh	r3, [r2, #0]
1a00144c:	80e3      	strh	r3, [r4, #6]
	fs->cdir = 0;		/* Initialize current directory */
#endif
#if _FS_LOCK != 0		/* Clear file lock semaphores */
	clear_lock(fs);
#endif
	return FR_OK;
1a00144e:	2000      	movs	r0, #0
1a001450:	e026      	b.n	1a0014a0 <find_volume+0x2bc>


	/* Get logical drive number from the path name */
	*rfs = 0;
	vol = get_ldnumber(path);
	if (vol < 0) return FR_INVALID_DRIVE;
1a001452:	200b      	movs	r0, #11
1a001454:	e024      	b.n	1a0014a0 <find_volume+0x2bc>

	/* Check if the file system object is valid or not */
	fs = FatFs[vol];					/* Get pointer to the file system object */
	if (!fs) return FR_NOT_ENABLED;		/* Is the file system object available? */
1a001456:	200c      	movs	r0, #12
1a001458:	e022      	b.n	1a0014a0 <find_volume+0x2bc>
		stat = disk_status(fs->drv);
		if (!(stat & STA_NOINIT)) {		/* and the physical drive is kept initialized */
			if (!_FS_READONLY && mode && (stat & STA_PROTECT)) {	/* Check write protection if needed */
				return FR_WRITE_PROTECTED;
			}
			return FR_OK;				/* The file system object is valid */
1a00145a:	2000      	movs	r0, #0
1a00145c:	e020      	b.n	1a0014a0 <find_volume+0x2bc>
	mode &= ~FA_READ;					/* Desired access mode, write access or not */
	if (fs->fs_type) {					/* If the volume has been mounted */
		stat = disk_status(fs->drv);
		if (!(stat & STA_NOINIT)) {		/* and the physical drive is kept initialized */
			if (!_FS_READONLY && mode && (stat & STA_PROTECT)) {	/* Check write protection if needed */
				return FR_WRITE_PROTECTED;
1a00145e:	200a      	movs	r0, #10
1a001460:	e01e      	b.n	1a0014a0 <find_volume+0x2bc>

	fs->fs_type = 0;					/* Clear the file system object */
	fs->drv = LD2PD(vol);				/* Bind the logical drive and a physical drive */
	stat = disk_initialize(fs->drv);	/* Initialize the physical drive */
	if (stat & STA_NOINIT) { 			/* Check if the initialization succeeded */
		return FR_NOT_READY;			/* Failed to initialize due to no medium or hard error */
1a001462:	2003      	movs	r0, #3
1a001464:	e01c      	b.n	1a0014a0 <find_volume+0x2bc>
	}
	if (!_FS_READONLY && mode && (stat & STA_PROTECT)) { /* Check disk write protection if needed */
		return FR_WRITE_PROTECTED;
1a001466:	200a      	movs	r0, #10
1a001468:	e01a      	b.n	1a0014a0 <find_volume+0x2bc>
		do {								/* Find an FAT volume */
			bsect = br[i];
			fmt = bsect ? check_fs(fs, bsect) : 3;	/* Check the partition */
		} while (!LD2PT(vol) && fmt >= 2 && ++i < 4);
	}
	if (fmt == 4) return FR_DISK_ERR;		/* An error occured in the disk I/O layer */
1a00146a:	2001      	movs	r0, #1
1a00146c:	e018      	b.n	1a0014a0 <find_volume+0x2bc>
	if (fmt >= 2) return FR_NO_FILESYSTEM;	/* No FAT volume is found */
1a00146e:	200d      	movs	r0, #13
1a001470:	e016      	b.n	1a0014a0 <find_volume+0x2bc>
#endif
		fmt = FS_EXFAT;			/* FAT sub-type */
	} else
#endif	/* _FS_EXFAT */
	{
		if (ld_word(fs->win + BPB_BytsPerSec) != SS(fs)) return FR_NO_FILESYSTEM;	/* (BPB_BytsPerSec must be equal to the physical sector size) */
1a001472:	200d      	movs	r0, #13
1a001474:	e014      	b.n	1a0014a0 <find_volume+0x2bc>
		fasize = ld_word(fs->win + BPB_FATSz16);			/* Number of sectors per FAT */
		if (fasize == 0) fasize = ld_dword(fs->win + BPB_FATSz32);
		fs->fsize = fasize;

		fs->n_fats = fs->win[BPB_NumFATs];					/* Number of FATs */
		if (fs->n_fats != 1 && fs->n_fats != 2) return FR_NO_FILESYSTEM;	/* (Must be 1 or 2) */
1a001476:	200d      	movs	r0, #13
1a001478:	e012      	b.n	1a0014a0 <find_volume+0x2bc>
		fasize *= fs->n_fats;								/* Number of sectors for FAT area */

		fs->csize = fs->win[BPB_SecPerClus];				/* Cluster size */
		if (fs->csize == 0 || (fs->csize & (fs->csize - 1))) return FR_NO_FILESYSTEM;	/* (Must be power of 2) */
1a00147a:	200d      	movs	r0, #13
1a00147c:	e010      	b.n	1a0014a0 <find_volume+0x2bc>
1a00147e:	200d      	movs	r0, #13
1a001480:	e00e      	b.n	1a0014a0 <find_volume+0x2bc>

		fs->n_rootdir = ld_word(fs->win + BPB_RootEntCnt);	/* Number of root directory entries */
		if (fs->n_rootdir % (SS(fs) / SZDIRE)) return FR_NO_FILESYSTEM;	/* (Must be sector aligned) */
1a001482:	200d      	movs	r0, #13
1a001484:	e00c      	b.n	1a0014a0 <find_volume+0x2bc>

		tsect = ld_word(fs->win + BPB_TotSec16);			/* Number of sectors on the volume */
		if (tsect == 0) tsect = ld_dword(fs->win + BPB_TotSec32);

		nrsv = ld_word(fs->win + BPB_RsvdSecCnt);			/* Number of reserved sectors */
		if (nrsv == 0) return FR_NO_FILESYSTEM;				/* (Must not be 0) */
1a001486:	200d      	movs	r0, #13
1a001488:	e00a      	b.n	1a0014a0 <find_volume+0x2bc>

		/* Determine the FAT sub type */
		sysect = nrsv + fasize + fs->n_rootdir / (SS(fs) / SZDIRE);	/* RSV + FAT + DIR */
		if (tsect < sysect) return FR_NO_FILESYSTEM;		/* (Invalid volume size) */
1a00148a:	200d      	movs	r0, #13
1a00148c:	e008      	b.n	1a0014a0 <find_volume+0x2bc>
		nclst = (tsect - sysect) / fs->csize;				/* Number of clusters */
		if (nclst == 0) return FR_NO_FILESYSTEM;			/* (Invalid volume size) */
1a00148e:	200d      	movs	r0, #13
1a001490:	e006      	b.n	1a0014a0 <find_volume+0x2bc>
		fs->n_fatent = nclst + 2;							/* Number of FAT entries */
		fs->volbase = bsect;								/* Volume start sector */
		fs->fatbase = bsect + nrsv; 						/* FAT start sector */
		fs->database = bsect + sysect;						/* Data start sector */
		if (fmt == FS_FAT32) {
			if (ld_word(fs->win + BPB_FSVer32) != 0) return FR_NO_FILESYSTEM;	/* (Must be FAT32 revision 0.0) */
1a001492:	200d      	movs	r0, #13
1a001494:	e004      	b.n	1a0014a0 <find_volume+0x2bc>
			if (fs->n_rootdir) return FR_NO_FILESYSTEM;		/* (BPB_RootEntCnt must be 0) */
1a001496:	200d      	movs	r0, #13
1a001498:	e002      	b.n	1a0014a0 <find_volume+0x2bc>
			fs->dirbase = ld_dword(fs->win + BPB_RootClus32);	/* Root directory start cluster */
			szbfat = fs->n_fatent * 4;						/* (Needed FAT size) */
		} else {
			if (fs->n_rootdir == 0)	return FR_NO_FILESYSTEM;/* (BPB_RootEntCnt must not be 0) */
1a00149a:	200d      	movs	r0, #13
1a00149c:	e000      	b.n	1a0014a0 <find_volume+0x2bc>
			fs->dirbase = fs->fatbase + fasize;				/* Root directory start sector */
			szbfat = (fmt == FS_FAT16) ?					/* (Needed FAT size) */
				fs->n_fatent * 2 : fs->n_fatent * 3 / 2 + (fs->n_fatent & 1);
		}
		if (fs->fsize < (szbfat + (SS(fs) - 1)) / SS(fs)) return FR_NO_FILESYSTEM;	/* (BPB_FATSz must not be less than the size needed) */
1a00149e:	200d      	movs	r0, #13
#endif
#if _FS_LOCK != 0		/* Clear file lock semaphores */
	clear_lock(fs);
#endif
	return FR_OK;
}
1a0014a0:	b004      	add	sp, #16
1a0014a2:	e8bd 87f0 	ldmia.w	sp!, {r4, r5, r6, r7, r8, r9, sl, pc}
1a0014a6:	bf00      	nop
1a0014a8:	1000052c 	.word	0x1000052c
1a0014ac:	41615252 	.word	0x41615252
1a0014b0:	61417272 	.word	0x61417272
1a0014b4:	1000052a 	.word	0x1000052a

1a0014b8 <put_fat>:
FRESULT put_fat (	/* FR_OK(0):succeeded, !=0:error */
	FATFS* fs,		/* Corresponding file system object */
	DWORD clst,		/* FAT index number (cluster number) to be changed */
	DWORD val		/* New value to be set to the entry */
)
{
1a0014b8:	e92d 43f8 	stmdb	sp!, {r3, r4, r5, r6, r7, r8, r9, lr}
1a0014bc:	460c      	mov	r4, r1
	UINT bc;
	BYTE *p;
	FRESULT res = FR_INT_ERR;


	if (clst >= 2 && clst < fs->n_fatent) {	/* Check if in valid range */
1a0014be:	2901      	cmp	r1, #1
1a0014c0:	d977      	bls.n	1a0015b2 <put_fat+0xfa>
1a0014c2:	4605      	mov	r5, r0
1a0014c4:	4617      	mov	r7, r2
1a0014c6:	6943      	ldr	r3, [r0, #20]
1a0014c8:	428b      	cmp	r3, r1
1a0014ca:	d974      	bls.n	1a0015b6 <put_fat+0xfe>
		switch (fs->fs_type) {
1a0014cc:	7803      	ldrb	r3, [r0, #0]
1a0014ce:	2b02      	cmp	r3, #2
1a0014d0:	d043      	beq.n	1a00155a <put_fat+0xa2>
1a0014d2:	2b03      	cmp	r3, #3
1a0014d4:	d053      	beq.n	1a00157e <put_fat+0xc6>
1a0014d6:	2b01      	cmp	r3, #1
1a0014d8:	d16f      	bne.n	1a0015ba <put_fat+0x102>
		case FS_FAT12 :	/* Bitfield items */
			bc = (UINT)clst; bc += bc / 2;
1a0014da:	eb01 0851 	add.w	r8, r1, r1, lsr #1
			res = move_window(fs, fs->fatbase + (bc / SS(fs)));
1a0014de:	6a01      	ldr	r1, [r0, #32]
1a0014e0:	eb01 2158 	add.w	r1, r1, r8, lsr #9
1a0014e4:	f7ff fe26 	bl	1a001134 <move_window>
			if (res != FR_OK) break;
1a0014e8:	4606      	mov	r6, r0
1a0014ea:	2800      	cmp	r0, #0
1a0014ec:	d166      	bne.n	1a0015bc <put_fat+0x104>
			p = fs->win + bc++ % SS(fs);
1a0014ee:	f108 0901 	add.w	r9, r8, #1
1a0014f2:	f3c8 0808 	ubfx	r8, r8, #0, #9
			*p = (clst & 1) ? ((*p & 0x0F) | ((BYTE)val << 4)) : (BYTE)val;
1a0014f6:	f014 0401 	ands.w	r4, r4, #1
1a0014fa:	d00a      	beq.n	1a001512 <put_fat+0x5a>
1a0014fc:	eb05 0308 	add.w	r3, r5, r8
1a001500:	f893 2030 	ldrb.w	r2, [r3, #48]	; 0x30
1a001504:	b2fb      	uxtb	r3, r7
1a001506:	f002 020f 	and.w	r2, r2, #15
1a00150a:	ea42 1303 	orr.w	r3, r2, r3, lsl #4
1a00150e:	b2db      	uxtb	r3, r3
1a001510:	e000      	b.n	1a001514 <put_fat+0x5c>
1a001512:	b2fb      	uxtb	r3, r7
1a001514:	44a8      	add	r8, r5
1a001516:	f888 3030 	strb.w	r3, [r8, #48]	; 0x30
			fs->wflag = 1;
1a00151a:	2301      	movs	r3, #1
1a00151c:	70eb      	strb	r3, [r5, #3]
			res = move_window(fs, fs->fatbase + (bc / SS(fs)));
1a00151e:	6a29      	ldr	r1, [r5, #32]
1a001520:	4628      	mov	r0, r5
1a001522:	eb01 2159 	add.w	r1, r1, r9, lsr #9
1a001526:	f7ff fe05 	bl	1a001134 <move_window>
			if (res != FR_OK) break;
1a00152a:	4606      	mov	r6, r0
1a00152c:	2800      	cmp	r0, #0
1a00152e:	d145      	bne.n	1a0015bc <put_fat+0x104>
			p = fs->win + bc % SS(fs);
1a001530:	f3c9 0908 	ubfx	r9, r9, #0, #9
			*p = (clst & 1) ? (BYTE)(val >> 4) : ((*p & 0xF0) | ((BYTE)(val >> 8) & 0x0F));
1a001534:	b114      	cbz	r4, 1a00153c <put_fat+0x84>
1a001536:	f3c7 1707 	ubfx	r7, r7, #4, #8
1a00153a:	e008      	b.n	1a00154e <put_fat+0x96>
1a00153c:	eb05 0309 	add.w	r3, r5, r9
1a001540:	f893 3030 	ldrb.w	r3, [r3, #48]	; 0x30
1a001544:	f023 030f 	bic.w	r3, r3, #15
1a001548:	f3c7 2703 	ubfx	r7, r7, #8, #4
1a00154c:	431f      	orrs	r7, r3
1a00154e:	44a9      	add	r9, r5
1a001550:	f889 7030 	strb.w	r7, [r9, #48]	; 0x30
			fs->wflag = 1;
1a001554:	2301      	movs	r3, #1
1a001556:	70eb      	strb	r3, [r5, #3]
			break;
1a001558:	e030      	b.n	1a0015bc <put_fat+0x104>

		case FS_FAT16 :	/* WORD aligned items */
			res = move_window(fs, fs->fatbase + (clst / (SS(fs) / 2)));
1a00155a:	6a01      	ldr	r1, [r0, #32]
1a00155c:	eb01 2114 	add.w	r1, r1, r4, lsr #8
1a001560:	f7ff fde8 	bl	1a001134 <move_window>
			if (res != FR_OK) break;
1a001564:	4606      	mov	r6, r0
1a001566:	bb48      	cbnz	r0, 1a0015bc <put_fat+0x104>
			st_word(fs->win + clst * 2 % SS(fs), (WORD)val);
1a001568:	0060      	lsls	r0, r4, #1
1a00156a:	f400 70ff 	and.w	r0, r0, #510	; 0x1fe
1a00156e:	3030      	adds	r0, #48	; 0x30
1a001570:	4428      	add	r0, r5
1a001572:	b2b9      	uxth	r1, r7
1a001574:	f7ff fca0 	bl	1a000eb8 <st_word>
			fs->wflag = 1;
1a001578:	2301      	movs	r3, #1
1a00157a:	70eb      	strb	r3, [r5, #3]
			break;
1a00157c:	e01e      	b.n	1a0015bc <put_fat+0x104>

		case FS_FAT32 :	/* DWORD aligned items */
#if _FS_EXFAT
		case FS_EXFAT :
#endif
			res = move_window(fs, fs->fatbase + (clst / (SS(fs) / 4)));
1a00157e:	6a01      	ldr	r1, [r0, #32]
1a001580:	eb01 11d4 	add.w	r1, r1, r4, lsr #7
1a001584:	f7ff fdd6 	bl	1a001134 <move_window>
			if (res != FR_OK) break;
1a001588:	4606      	mov	r6, r0
1a00158a:	b9b8      	cbnz	r0, 1a0015bc <put_fat+0x104>
			if (!_FS_EXFAT || fs->fs_type != FS_EXFAT) {
				val = (val & 0x0FFFFFFF) | (ld_dword(fs->win + clst * 4 % SS(fs)) & 0xF0000000);
1a00158c:	f027 4770 	bic.w	r7, r7, #4026531840	; 0xf0000000
1a001590:	00a4      	lsls	r4, r4, #2
1a001592:	f404 74fe 	and.w	r4, r4, #508	; 0x1fc
1a001596:	3430      	adds	r4, #48	; 0x30
1a001598:	442c      	add	r4, r5
1a00159a:	4620      	mov	r0, r4
1a00159c:	f7ff fc80 	bl	1a000ea0 <ld_dword>
1a0015a0:	f000 4170 	and.w	r1, r0, #4026531840	; 0xf0000000
			}
			st_dword(fs->win + clst * 4 % SS(fs), val);
1a0015a4:	4620      	mov	r0, r4
1a0015a6:	4339      	orrs	r1, r7
1a0015a8:	f7ff fc8a 	bl	1a000ec0 <st_dword>
			fs->wflag = 1;
1a0015ac:	2301      	movs	r3, #1
1a0015ae:	70eb      	strb	r3, [r5, #3]
			break;
1a0015b0:	e004      	b.n	1a0015bc <put_fat+0x104>
	DWORD val		/* New value to be set to the entry */
)
{
	UINT bc;
	BYTE *p;
	FRESULT res = FR_INT_ERR;
1a0015b2:	2602      	movs	r6, #2
1a0015b4:	e002      	b.n	1a0015bc <put_fat+0x104>
1a0015b6:	2602      	movs	r6, #2
1a0015b8:	e000      	b.n	1a0015bc <put_fat+0x104>
1a0015ba:	2602      	movs	r6, #2
			fs->wflag = 1;
			break;
		}
	}
	return res;
}
1a0015bc:	4630      	mov	r0, r6
1a0015be:	e8bd 83f8 	ldmia.w	sp!, {r3, r4, r5, r6, r7, r8, r9, pc}
1a0015c2:	bf00      	nop

1a0015c4 <get_fat>:
static
DWORD get_fat (	/* 0xFFFFFFFF:Disk error, 1:Internal error, 2..0x7FFFFFFF:Cluster status */
	_FDID* obj,	/* Corresponding object */
	DWORD clst	/* Cluster number to get the value */
)
{
1a0015c4:	b5f8      	push	{r3, r4, r5, r6, r7, lr}
	UINT wc, bc;
	DWORD val;
	FATFS *fs = obj->fs;
1a0015c6:	6806      	ldr	r6, [r0, #0]


	if (clst < 2 || clst >= fs->n_fatent) {	/* Check if in valid range */
1a0015c8:	2901      	cmp	r1, #1
1a0015ca:	d951      	bls.n	1a001670 <get_fat+0xac>
1a0015cc:	6973      	ldr	r3, [r6, #20]
1a0015ce:	428b      	cmp	r3, r1
1a0015d0:	d950      	bls.n	1a001674 <get_fat+0xb0>
1a0015d2:	460c      	mov	r4, r1
		val = 1;	/* Internal error */

	} else {
		val = 0xFFFFFFFF;	/* Default value falls on disk error */

		switch (fs->fs_type) {
1a0015d4:	7833      	ldrb	r3, [r6, #0]
1a0015d6:	2b02      	cmp	r3, #2
1a0015d8:	d02a      	beq.n	1a001630 <get_fat+0x6c>
1a0015da:	2b03      	cmp	r3, #3
1a0015dc:	d037      	beq.n	1a00164e <get_fat+0x8a>
1a0015de:	2b01      	cmp	r3, #1
1a0015e0:	d14a      	bne.n	1a001678 <get_fat+0xb4>
		case FS_FAT12 :
			bc = (UINT)clst; bc += bc / 2;
1a0015e2:	eb01 0551 	add.w	r5, r1, r1, lsr #1
			if (move_window(fs, fs->fatbase + (bc / SS(fs))) != FR_OK) break;
1a0015e6:	6a31      	ldr	r1, [r6, #32]
1a0015e8:	4630      	mov	r0, r6
1a0015ea:	eb01 2155 	add.w	r1, r1, r5, lsr #9
1a0015ee:	f7ff fda1 	bl	1a001134 <move_window>
1a0015f2:	2800      	cmp	r0, #0
1a0015f4:	d142      	bne.n	1a00167c <get_fat+0xb8>
			wc = fs->win[bc++ % SS(fs)];
1a0015f6:	1c6f      	adds	r7, r5, #1
1a0015f8:	f3c5 0508 	ubfx	r5, r5, #0, #9
1a0015fc:	4435      	add	r5, r6
1a0015fe:	f895 5030 	ldrb.w	r5, [r5, #48]	; 0x30
			if (move_window(fs, fs->fatbase + (bc / SS(fs))) != FR_OK) break;
1a001602:	6a31      	ldr	r1, [r6, #32]
1a001604:	4630      	mov	r0, r6
1a001606:	eb01 2157 	add.w	r1, r1, r7, lsr #9
1a00160a:	f7ff fd93 	bl	1a001134 <move_window>
1a00160e:	2800      	cmp	r0, #0
1a001610:	d137      	bne.n	1a001682 <get_fat+0xbe>
			wc |= fs->win[bc % SS(fs)] << 8;
1a001612:	f3c7 0708 	ubfx	r7, r7, #0, #9
1a001616:	443e      	add	r6, r7
1a001618:	f896 0030 	ldrb.w	r0, [r6, #48]	; 0x30
1a00161c:	ea45 2000 	orr.w	r0, r5, r0, lsl #8
			val = (clst & 1) ? (wc >> 4) : (wc & 0xFFF);
1a001620:	f014 0f01 	tst.w	r4, #1
1a001624:	d001      	beq.n	1a00162a <get_fat+0x66>
1a001626:	0900      	lsrs	r0, r0, #4
1a001628:	bdf8      	pop	{r3, r4, r5, r6, r7, pc}
1a00162a:	f3c0 000b 	ubfx	r0, r0, #0, #12
			break;
1a00162e:	bdf8      	pop	{r3, r4, r5, r6, r7, pc}

		case FS_FAT16 :
			if (move_window(fs, fs->fatbase + (clst / (SS(fs) / 2))) != FR_OK) break;
1a001630:	6a31      	ldr	r1, [r6, #32]
1a001632:	4630      	mov	r0, r6
1a001634:	eb01 2114 	add.w	r1, r1, r4, lsr #8
1a001638:	f7ff fd7c 	bl	1a001134 <move_window>
1a00163c:	bb20      	cbnz	r0, 1a001688 <get_fat+0xc4>
			val = ld_word(fs->win + clst * 2 % SS(fs));
1a00163e:	0060      	lsls	r0, r4, #1
1a001640:	f400 70ff 	and.w	r0, r0, #510	; 0x1fe
1a001644:	3030      	adds	r0, #48	; 0x30
1a001646:	4430      	add	r0, r6
1a001648:	f7ff fc24 	bl	1a000e94 <ld_word>
			break;
1a00164c:	bdf8      	pop	{r3, r4, r5, r6, r7, pc}

		case FS_FAT32 :
			if (move_window(fs, fs->fatbase + (clst / (SS(fs) / 4))) != FR_OK) break;
1a00164e:	6a31      	ldr	r1, [r6, #32]
1a001650:	4630      	mov	r0, r6
1a001652:	eb01 11d4 	add.w	r1, r1, r4, lsr #7
1a001656:	f7ff fd6d 	bl	1a001134 <move_window>
1a00165a:	b9c0      	cbnz	r0, 1a00168e <get_fat+0xca>
			val = ld_dword(fs->win + clst * 4 % SS(fs)) & 0x0FFFFFFF;
1a00165c:	00a0      	lsls	r0, r4, #2
1a00165e:	f400 70fe 	and.w	r0, r0, #508	; 0x1fc
1a001662:	3030      	adds	r0, #48	; 0x30
1a001664:	4430      	add	r0, r6
1a001666:	f7ff fc1b 	bl	1a000ea0 <ld_dword>
1a00166a:	f020 4070 	bic.w	r0, r0, #4026531840	; 0xf0000000
			break;
1a00166e:	bdf8      	pop	{r3, r4, r5, r6, r7, pc}
	DWORD val;
	FATFS *fs = obj->fs;


	if (clst < 2 || clst >= fs->n_fatent) {	/* Check if in valid range */
		val = 1;	/* Internal error */
1a001670:	2001      	movs	r0, #1
1a001672:	bdf8      	pop	{r3, r4, r5, r6, r7, pc}
1a001674:	2001      	movs	r0, #1
1a001676:	bdf8      	pop	{r3, r4, r5, r6, r7, pc}
				}
			}
			/* go next */
#endif
		default:
			val = 1;	/* Internal error */
1a001678:	2001      	movs	r0, #1
1a00167a:	bdf8      	pop	{r3, r4, r5, r6, r7, pc}

	if (clst < 2 || clst >= fs->n_fatent) {	/* Check if in valid range */
		val = 1;	/* Internal error */

	} else {
		val = 0xFFFFFFFF;	/* Default value falls on disk error */
1a00167c:	f04f 30ff 	mov.w	r0, #4294967295	; 0xffffffff
1a001680:	bdf8      	pop	{r3, r4, r5, r6, r7, pc}
1a001682:	f04f 30ff 	mov.w	r0, #4294967295	; 0xffffffff
1a001686:	bdf8      	pop	{r3, r4, r5, r6, r7, pc}
1a001688:	f04f 30ff 	mov.w	r0, #4294967295	; 0xffffffff
1a00168c:	bdf8      	pop	{r3, r4, r5, r6, r7, pc}
1a00168e:	f04f 30ff 	mov.w	r0, #4294967295	; 0xffffffff
			val = 1;	/* Internal error */
		}
	}

	return val;
}
1a001692:	bdf8      	pop	{r3, r4, r5, r6, r7, pc}

1a001694 <dir_sdi>:
static
FRESULT dir_sdi (	/* FR_OK(0):succeeded, !=0:error */
	DIR* dp,		/* Pointer to directory object */
	DWORD ofs		/* Offset of directory table */
)
{
1a001694:	e92d 41f0 	stmdb	sp!, {r4, r5, r6, r7, r8, lr}
1a001698:	4606      	mov	r6, r0
1a00169a:	460c      	mov	r4, r1
	DWORD csz, clst;
	FATFS *fs = dp->obj.fs;
1a00169c:	6807      	ldr	r7, [r0, #0]


	if (ofs >= (DWORD)((_FS_EXFAT && fs->fs_type == FS_EXFAT) ? MAX_DIR_EX : MAX_DIR) || ofs % SZDIRE) {	/* Check range of offset and alignment */
1a00169e:	f5b1 1f00 	cmp.w	r1, #2097152	; 0x200000
1a0016a2:	d23a      	bcs.n	1a00171a <dir_sdi+0x86>
1a0016a4:	f011 0f1f 	tst.w	r1, #31
1a0016a8:	d13a      	bne.n	1a001720 <dir_sdi+0x8c>
		return FR_INT_ERR;
	}
	dp->dptr = ofs;				/* Set current offset */
1a0016aa:	6131      	str	r1, [r6, #16]
	clst = dp->obj.sclust;		/* Table start cluster (0:root) */
1a0016ac:	6885      	ldr	r5, [r0, #8]
	if (clst == 0 && fs->fs_type >= FS_FAT32) {	/* Replace cluster# 0 with root cluster# */
1a0016ae:	b91d      	cbnz	r5, 1a0016b8 <dir_sdi+0x24>
1a0016b0:	783b      	ldrb	r3, [r7, #0]
1a0016b2:	2b02      	cmp	r3, #2
1a0016b4:	d900      	bls.n	1a0016b8 <dir_sdi+0x24>
		clst = fs->dirbase;
1a0016b6:	6a7d      	ldr	r5, [r7, #36]	; 0x24
		if (_FS_EXFAT) dp->obj.stat = 0;	/* exFAT: Root dir has an FAT chain */
	}

	if (clst == 0) {	/* Static table (root-directory in FAT12/16) */
1a0016b8:	b935      	cbnz	r5, 1a0016c8 <dir_sdi+0x34>
		if (ofs / SZDIRE >= fs->n_rootdir)	return FR_INT_ERR;	/* Is index out of range? */
1a0016ba:	893b      	ldrh	r3, [r7, #8]
1a0016bc:	ebb3 1f54 	cmp.w	r3, r4, lsr #5
1a0016c0:	d931      	bls.n	1a001726 <dir_sdi+0x92>
		dp->sect = fs->dirbase;
1a0016c2:	6a7b      	ldr	r3, [r7, #36]	; 0x24
1a0016c4:	61b3      	str	r3, [r6, #24]
1a0016c6:	e01a      	b.n	1a0016fe <dir_sdi+0x6a>

	} else {			/* Dynamic table (sub-directory or root-directory in FAT32+) */
		csz = (DWORD)fs->csize * SS(fs);	/* Bytes per cluster */
1a0016c8:	f8b7 800a 	ldrh.w	r8, [r7, #10]
1a0016cc:	ea4f 2848 	mov.w	r8, r8, lsl #9
		while (ofs >= csz) {				/* Follow cluster chain */
1a0016d0:	e00e      	b.n	1a0016f0 <dir_sdi+0x5c>
			clst = get_fat(&dp->obj, clst);				/* Get next cluster */
1a0016d2:	4630      	mov	r0, r6
1a0016d4:	4629      	mov	r1, r5
1a0016d6:	f7ff ff75 	bl	1a0015c4 <get_fat>
1a0016da:	4605      	mov	r5, r0
			if (clst == 0xFFFFFFFF) return FR_DISK_ERR;	/* Disk error */
1a0016dc:	f1b0 3fff 	cmp.w	r0, #4294967295	; 0xffffffff
1a0016e0:	d024      	beq.n	1a00172c <dir_sdi+0x98>
			if (clst < 2 || clst >= fs->n_fatent) return FR_INT_ERR;	/* Reached to end of table or internal error */
1a0016e2:	2801      	cmp	r0, #1
1a0016e4:	d925      	bls.n	1a001732 <dir_sdi+0x9e>
1a0016e6:	697b      	ldr	r3, [r7, #20]
1a0016e8:	4283      	cmp	r3, r0
1a0016ea:	d925      	bls.n	1a001738 <dir_sdi+0xa4>
			ofs -= csz;
1a0016ec:	ebc8 0404 	rsb	r4, r8, r4
		if (ofs / SZDIRE >= fs->n_rootdir)	return FR_INT_ERR;	/* Is index out of range? */
		dp->sect = fs->dirbase;

	} else {			/* Dynamic table (sub-directory or root-directory in FAT32+) */
		csz = (DWORD)fs->csize * SS(fs);	/* Bytes per cluster */
		while (ofs >= csz) {				/* Follow cluster chain */
1a0016f0:	4544      	cmp	r4, r8
1a0016f2:	d2ee      	bcs.n	1a0016d2 <dir_sdi+0x3e>
			clst = get_fat(&dp->obj, clst);				/* Get next cluster */
			if (clst == 0xFFFFFFFF) return FR_DISK_ERR;	/* Disk error */
			if (clst < 2 || clst >= fs->n_fatent) return FR_INT_ERR;	/* Reached to end of table or internal error */
			ofs -= csz;
		}
		dp->sect = clust2sect(fs, clst);
1a0016f4:	4638      	mov	r0, r7
1a0016f6:	4629      	mov	r1, r5
1a0016f8:	f7ff fc14 	bl	1a000f24 <clust2sect>
1a0016fc:	61b0      	str	r0, [r6, #24]
	}
	dp->clust = clst;					/* Current cluster# */
1a0016fe:	6175      	str	r5, [r6, #20]
	if (!dp->sect) return FR_INT_ERR;
1a001700:	69b3      	ldr	r3, [r6, #24]
1a001702:	b1e3      	cbz	r3, 1a00173e <dir_sdi+0xaa>
	dp->sect += ofs / SS(fs);			/* Sector# of the directory entry */
1a001704:	eb03 2354 	add.w	r3, r3, r4, lsr #9
1a001708:	61b3      	str	r3, [r6, #24]
	dp->dir = fs->win + (ofs % SS(fs));	/* Pointer to the entry in the win[] */
1a00170a:	f3c4 0308 	ubfx	r3, r4, #0, #9
1a00170e:	3330      	adds	r3, #48	; 0x30
1a001710:	443b      	add	r3, r7
1a001712:	61f3      	str	r3, [r6, #28]

	return FR_OK;
1a001714:	2000      	movs	r0, #0
1a001716:	e8bd 81f0 	ldmia.w	sp!, {r4, r5, r6, r7, r8, pc}
	DWORD csz, clst;
	FATFS *fs = dp->obj.fs;


	if (ofs >= (DWORD)((_FS_EXFAT && fs->fs_type == FS_EXFAT) ? MAX_DIR_EX : MAX_DIR) || ofs % SZDIRE) {	/* Check range of offset and alignment */
		return FR_INT_ERR;
1a00171a:	2002      	movs	r0, #2
1a00171c:	e8bd 81f0 	ldmia.w	sp!, {r4, r5, r6, r7, r8, pc}
1a001720:	2002      	movs	r0, #2
1a001722:	e8bd 81f0 	ldmia.w	sp!, {r4, r5, r6, r7, r8, pc}
		clst = fs->dirbase;
		if (_FS_EXFAT) dp->obj.stat = 0;	/* exFAT: Root dir has an FAT chain */
	}

	if (clst == 0) {	/* Static table (root-directory in FAT12/16) */
		if (ofs / SZDIRE >= fs->n_rootdir)	return FR_INT_ERR;	/* Is index out of range? */
1a001726:	2002      	movs	r0, #2
1a001728:	e8bd 81f0 	ldmia.w	sp!, {r4, r5, r6, r7, r8, pc}

	} else {			/* Dynamic table (sub-directory or root-directory in FAT32+) */
		csz = (DWORD)fs->csize * SS(fs);	/* Bytes per cluster */
		while (ofs >= csz) {				/* Follow cluster chain */
			clst = get_fat(&dp->obj, clst);				/* Get next cluster */
			if (clst == 0xFFFFFFFF) return FR_DISK_ERR;	/* Disk error */
1a00172c:	2001      	movs	r0, #1
1a00172e:	e8bd 81f0 	ldmia.w	sp!, {r4, r5, r6, r7, r8, pc}
			if (clst < 2 || clst >= fs->n_fatent) return FR_INT_ERR;	/* Reached to end of table or internal error */
1a001732:	2002      	movs	r0, #2
1a001734:	e8bd 81f0 	ldmia.w	sp!, {r4, r5, r6, r7, r8, pc}
1a001738:	2002      	movs	r0, #2
1a00173a:	e8bd 81f0 	ldmia.w	sp!, {r4, r5, r6, r7, r8, pc}
			ofs -= csz;
		}
		dp->sect = clust2sect(fs, clst);
	}
	dp->clust = clst;					/* Current cluster# */
	if (!dp->sect) return FR_INT_ERR;
1a00173e:	2002      	movs	r0, #2
	dp->sect += ofs / SS(fs);			/* Sector# of the directory entry */
	dp->dir = fs->win + (ofs % SS(fs));	/* Pointer to the entry in the win[] */

	return FR_OK;
}
1a001740:	e8bd 81f0 	ldmia.w	sp!, {r4, r5, r6, r7, r8, pc}

1a001744 <create_chain>:
static
DWORD create_chain (	/* 0:No free cluster, 1:Internal error, 0xFFFFFFFF:Disk error, >=2:New cluster# */
	_FDID* obj,			/* Corresponding object */
	DWORD clst			/* Cluster# to stretch, 0:Create a new chain */
)
{
1a001744:	e92d 41f0 	stmdb	sp!, {r4, r5, r6, r7, r8, lr}
1a001748:	4607      	mov	r7, r0
	DWORD cs, ncl, scl;
	FRESULT res;
	FATFS *fs = obj->fs;
1a00174a:	6806      	ldr	r6, [r0, #0]


	if (clst == 0) {	/* Create a new chain */
1a00174c:	4688      	mov	r8, r1
1a00174e:	b929      	cbnz	r1, 1a00175c <create_chain+0x18>
		scl = fs->last_clst;				/* Get suggested cluster to start at */
1a001750:	68f5      	ldr	r5, [r6, #12]
		if (scl == 0 || scl >= fs->n_fatent) scl = 1;
1a001752:	b17d      	cbz	r5, 1a001774 <create_chain+0x30>
1a001754:	6973      	ldr	r3, [r6, #20]
1a001756:	42ab      	cmp	r3, r5
1a001758:	d90e      	bls.n	1a001778 <create_chain+0x34>
1a00175a:	e00e      	b.n	1a00177a <create_chain+0x36>
	}
	else {				/* Stretch current chain */
		cs = get_fat(obj, clst);			/* Check the cluster status */
1a00175c:	f7ff ff32 	bl	1a0015c4 <get_fat>
		if (cs < 2) return 1;				/* Invalid value */
1a001760:	2801      	cmp	r0, #1
1a001762:	d94b      	bls.n	1a0017fc <create_chain+0xb8>
		if (cs == 0xFFFFFFFF) return cs;	/* A disk error occurred */
1a001764:	f1b0 3fff 	cmp.w	r0, #4294967295	; 0xffffffff
1a001768:	d04f      	beq.n	1a00180a <create_chain+0xc6>
		if (cs < fs->n_fatent) return cs;	/* It is already followed by next cluster */
1a00176a:	6973      	ldr	r3, [r6, #20]
1a00176c:	4283      	cmp	r3, r0
1a00176e:	d84c      	bhi.n	1a00180a <create_chain+0xc6>
		scl = clst;
1a001770:	4645      	mov	r5, r8
1a001772:	e002      	b.n	1a00177a <create_chain+0x36>
	FATFS *fs = obj->fs;


	if (clst == 0) {	/* Create a new chain */
		scl = fs->last_clst;				/* Get suggested cluster to start at */
		if (scl == 0 || scl >= fs->n_fatent) scl = 1;
1a001774:	2501      	movs	r5, #1
1a001776:	e000      	b.n	1a00177a <create_chain+0x36>
1a001778:	2501      	movs	r5, #1
			}
		}
	} else
#endif
	{	/* At the FAT12/16/32 */
		ncl = scl;	/* Start cluster */
1a00177a:	462c      	mov	r4, r5
		for (;;) {
			ncl++;							/* Next cluster */
1a00177c:	3401      	adds	r4, #1
			if (ncl >= fs->n_fatent) {		/* Check wrap-around */
1a00177e:	6973      	ldr	r3, [r6, #20]
1a001780:	42a3      	cmp	r3, r4
1a001782:	d802      	bhi.n	1a00178a <create_chain+0x46>
				ncl = 2;
				if (ncl > scl) return 0;	/* No free cluster */
1a001784:	2d01      	cmp	r5, #1
1a001786:	d93c      	bls.n	1a001802 <create_chain+0xbe>
	{	/* At the FAT12/16/32 */
		ncl = scl;	/* Start cluster */
		for (;;) {
			ncl++;							/* Next cluster */
			if (ncl >= fs->n_fatent) {		/* Check wrap-around */
				ncl = 2;
1a001788:	2402      	movs	r4, #2
				if (ncl > scl) return 0;	/* No free cluster */
			}
			cs = get_fat(obj, ncl);			/* Get the cluster status */
1a00178a:	4638      	mov	r0, r7
1a00178c:	4621      	mov	r1, r4
1a00178e:	f7ff ff19 	bl	1a0015c4 <get_fat>
			if (cs == 0) break;				/* Found a free cluster */
1a001792:	4603      	mov	r3, r0
1a001794:	b150      	cbz	r0, 1a0017ac <create_chain+0x68>
			if (cs == 1 || cs == 0xFFFFFFFF) return cs;	/* An error occurred */
1a001796:	2801      	cmp	r0, #1
1a001798:	d002      	beq.n	1a0017a0 <create_chain+0x5c>
1a00179a:	f1b0 3fff 	cmp.w	r0, #4294967295	; 0xffffffff
1a00179e:	d102      	bne.n	1a0017a6 <create_chain+0x62>
1a0017a0:	4618      	mov	r0, r3
1a0017a2:	e8bd 81f0 	ldmia.w	sp!, {r4, r5, r6, r7, r8, pc}
			if (ncl == scl) return 0;		/* No free cluster */
1a0017a6:	42ac      	cmp	r4, r5
1a0017a8:	d1e8      	bne.n	1a00177c <create_chain+0x38>
1a0017aa:	e02d      	b.n	1a001808 <create_chain+0xc4>
	}

	if (_FS_EXFAT && fs->fs_type == FS_EXFAT && obj->stat == 2) {	/* Is it a contiguous chain? */
		res = FR_OK;						/* FAT does not need to be written */
	} else {
		res = put_fat(fs, ncl, 0xFFFFFFFF);	/* Mark the new cluster 'EOC' */
1a0017ac:	4630      	mov	r0, r6
1a0017ae:	4621      	mov	r1, r4
1a0017b0:	f04f 32ff 	mov.w	r2, #4294967295	; 0xffffffff
1a0017b4:	f7ff fe80 	bl	1a0014b8 <put_fat>
		if (res == FR_OK && clst) {
1a0017b8:	4603      	mov	r3, r0
1a0017ba:	b940      	cbnz	r0, 1a0017ce <create_chain+0x8a>
1a0017bc:	f1b8 0f00 	cmp.w	r8, #0
1a0017c0:	d005      	beq.n	1a0017ce <create_chain+0x8a>
			res = put_fat(fs, clst, ncl);	/* Link it from the previous one if needed */
1a0017c2:	4630      	mov	r0, r6
1a0017c4:	4641      	mov	r1, r8
1a0017c6:	4622      	mov	r2, r4
1a0017c8:	f7ff fe76 	bl	1a0014b8 <put_fat>
1a0017cc:	4603      	mov	r3, r0
		}
	}

	if (res == FR_OK) {			/* Update FSINFO if function succeeded. */
1a0017ce:	b963      	cbnz	r3, 1a0017ea <create_chain+0xa6>
		fs->last_clst = ncl;
1a0017d0:	60f4      	str	r4, [r6, #12]
		if (fs->free_clst < fs->n_fatent - 2) fs->free_clst--;
1a0017d2:	6932      	ldr	r2, [r6, #16]
1a0017d4:	6973      	ldr	r3, [r6, #20]
1a0017d6:	3b02      	subs	r3, #2
1a0017d8:	429a      	cmp	r2, r3
1a0017da:	d201      	bcs.n	1a0017e0 <create_chain+0x9c>
1a0017dc:	3a01      	subs	r2, #1
1a0017de:	6132      	str	r2, [r6, #16]
		fs->fsi_flag |= 1;
1a0017e0:	7933      	ldrb	r3, [r6, #4]
1a0017e2:	f043 0301 	orr.w	r3, r3, #1
1a0017e6:	7133      	strb	r3, [r6, #4]
1a0017e8:	e005      	b.n	1a0017f6 <create_chain+0xb2>
	} else {
		ncl = (res == FR_DISK_ERR) ? 0xFFFFFFFF : 1;	/* Failed. Create error status */
1a0017ea:	2b01      	cmp	r3, #1
1a0017ec:	d102      	bne.n	1a0017f4 <create_chain+0xb0>
1a0017ee:	f04f 34ff 	mov.w	r4, #4294967295	; 0xffffffff
1a0017f2:	e000      	b.n	1a0017f6 <create_chain+0xb2>
1a0017f4:	2401      	movs	r4, #1
	}

	return ncl;		/* Return new cluster number or error status */
1a0017f6:	4620      	mov	r0, r4
1a0017f8:	e8bd 81f0 	ldmia.w	sp!, {r4, r5, r6, r7, r8, pc}
		scl = fs->last_clst;				/* Get suggested cluster to start at */
		if (scl == 0 || scl >= fs->n_fatent) scl = 1;
	}
	else {				/* Stretch current chain */
		cs = get_fat(obj, clst);			/* Check the cluster status */
		if (cs < 2) return 1;				/* Invalid value */
1a0017fc:	2001      	movs	r0, #1
1a0017fe:	e8bd 81f0 	ldmia.w	sp!, {r4, r5, r6, r7, r8, pc}
		ncl = scl;	/* Start cluster */
		for (;;) {
			ncl++;							/* Next cluster */
			if (ncl >= fs->n_fatent) {		/* Check wrap-around */
				ncl = 2;
				if (ncl > scl) return 0;	/* No free cluster */
1a001802:	2000      	movs	r0, #0
1a001804:	e8bd 81f0 	ldmia.w	sp!, {r4, r5, r6, r7, r8, pc}
			}
			cs = get_fat(obj, ncl);			/* Get the cluster status */
			if (cs == 0) break;				/* Found a free cluster */
			if (cs == 1 || cs == 0xFFFFFFFF) return cs;	/* An error occurred */
			if (ncl == scl) return 0;		/* No free cluster */
1a001808:	2000      	movs	r0, #0
	} else {
		ncl = (res == FR_DISK_ERR) ? 0xFFFFFFFF : 1;	/* Failed. Create error status */
	}

	return ncl;		/* Return new cluster number or error status */
}
1a00180a:	e8bd 81f0 	ldmia.w	sp!, {r4, r5, r6, r7, r8, pc}
1a00180e:	bf00      	nop

1a001810 <remove_chain>:
FRESULT remove_chain (	/* FR_OK(0):succeeded, !=0:error */
	_FDID* obj,			/* Corresponding object */
	DWORD clst,			/* Cluster to remove a chain from */
	DWORD pclst			/* Previous cluster of clst (0:an entire chain) */
)
{
1a001810:	b5f8      	push	{r3, r4, r5, r6, r7, lr}
1a001812:	4607      	mov	r7, r0
1a001814:	460e      	mov	r6, r1
	FRESULT res = FR_OK;
	DWORD nxt;
	FATFS *fs = obj->fs;
1a001816:	6804      	ldr	r4, [r0, #0]
#endif
#if _USE_TRIM
	DWORD rt[2];
#endif

	if (clst < 2 || clst >= fs->n_fatent) return FR_INT_ERR;	/* Check if in valid range */
1a001818:	2901      	cmp	r1, #1
1a00181a:	d92c      	bls.n	1a001876 <remove_chain+0x66>
1a00181c:	6963      	ldr	r3, [r4, #20]
1a00181e:	428b      	cmp	r3, r1
1a001820:	d92b      	bls.n	1a00187a <remove_chain+0x6a>

	/* Mark the previous cluster 'EOC' on the FAT if it exists */
	if (pclst && (!_FS_EXFAT || fs->fs_type != FS_EXFAT || obj->stat != 2)) {
1a001822:	b132      	cbz	r2, 1a001832 <remove_chain+0x22>
		res = put_fat(fs, pclst, 0xFFFFFFFF);
1a001824:	4620      	mov	r0, r4
1a001826:	4611      	mov	r1, r2
1a001828:	f04f 32ff 	mov.w	r2, #4294967295	; 0xffffffff
1a00182c:	f7ff fe44 	bl	1a0014b8 <put_fat>
		if (res != FR_OK) return res;
1a001830:	bb28      	cbnz	r0, 1a00187e <remove_chain+0x6e>
	}

	/* Remove the chain */
	do {
		nxt = get_fat(obj, clst);			/* Get cluster status */
1a001832:	4638      	mov	r0, r7
1a001834:	4631      	mov	r1, r6
1a001836:	f7ff fec5 	bl	1a0015c4 <get_fat>
		if (nxt == 0) break;				/* Empty cluster? */
1a00183a:	4605      	mov	r5, r0
1a00183c:	b300      	cbz	r0, 1a001880 <remove_chain+0x70>
		if (nxt == 1) return FR_INT_ERR;	/* Internal error? */
1a00183e:	2801      	cmp	r0, #1
1a001840:	d020      	beq.n	1a001884 <remove_chain+0x74>
		if (nxt == 0xFFFFFFFF) return FR_DISK_ERR;	/* Disk error? */
1a001842:	f1b0 3fff 	cmp.w	r0, #4294967295	; 0xffffffff
1a001846:	d01f      	beq.n	1a001888 <remove_chain+0x78>
		if (!_FS_EXFAT || fs->fs_type != FS_EXFAT) {
			res = put_fat(fs, clst, 0);		/* Mark the cluster 'free' on the FAT */
1a001848:	4620      	mov	r0, r4
1a00184a:	4631      	mov	r1, r6
1a00184c:	2200      	movs	r2, #0
1a00184e:	f7ff fe33 	bl	1a0014b8 <put_fat>
			if (res != FR_OK) return res;
1a001852:	b100      	cbz	r0, 1a001856 <remove_chain+0x46>
1a001854:	bdf8      	pop	{r3, r4, r5, r6, r7, pc}
		}
		if (fs->free_clst != 0xFFFFFFFF) {	/* Update FSINFO */
1a001856:	6923      	ldr	r3, [r4, #16]
1a001858:	f1b3 3fff 	cmp.w	r3, #4294967295	; 0xffffffff
1a00185c:	d005      	beq.n	1a00186a <remove_chain+0x5a>
			fs->free_clst++;
1a00185e:	3301      	adds	r3, #1
1a001860:	6123      	str	r3, [r4, #16]
			fs->fsi_flag |= 1;
1a001862:	7923      	ldrb	r3, [r4, #4]
1a001864:	f043 0301 	orr.w	r3, r3, #1
1a001868:	7123      	strb	r3, [r4, #4]
#endif
			scl = ecl = nxt;
		}
#endif
		clst = nxt;					/* Next cluster */
	} while (clst < fs->n_fatent);	/* Repeat while not the last link */
1a00186a:	6963      	ldr	r3, [r4, #20]
			disk_ioctl(fs->drv, CTRL_TRIM, rt);				/* Inform device the block can be erased */
#endif
			scl = ecl = nxt;
		}
#endif
		clst = nxt;					/* Next cluster */
1a00186c:	462e      	mov	r6, r5
	} while (clst < fs->n_fatent);	/* Repeat while not the last link */
1a00186e:	429d      	cmp	r5, r3
1a001870:	d3df      	bcc.n	1a001832 <remove_chain+0x22>
				obj->stat = 2;	/* Change the object status 'contiguous' */
			}
		}
	}
#endif
	return FR_OK;
1a001872:	2000      	movs	r0, #0
1a001874:	bdf8      	pop	{r3, r4, r5, r6, r7, pc}
#endif
#if _USE_TRIM
	DWORD rt[2];
#endif

	if (clst < 2 || clst >= fs->n_fatent) return FR_INT_ERR;	/* Check if in valid range */
1a001876:	2002      	movs	r0, #2
1a001878:	bdf8      	pop	{r3, r4, r5, r6, r7, pc}
1a00187a:	2002      	movs	r0, #2
1a00187c:	bdf8      	pop	{r3, r4, r5, r6, r7, pc}
1a00187e:	bdf8      	pop	{r3, r4, r5, r6, r7, pc}
				obj->stat = 2;	/* Change the object status 'contiguous' */
			}
		}
	}
#endif
	return FR_OK;
1a001880:	2000      	movs	r0, #0
1a001882:	bdf8      	pop	{r3, r4, r5, r6, r7, pc}

	/* Remove the chain */
	do {
		nxt = get_fat(obj, clst);			/* Get cluster status */
		if (nxt == 0) break;				/* Empty cluster? */
		if (nxt == 1) return FR_INT_ERR;	/* Internal error? */
1a001884:	2002      	movs	r0, #2
1a001886:	bdf8      	pop	{r3, r4, r5, r6, r7, pc}
		if (nxt == 0xFFFFFFFF) return FR_DISK_ERR;	/* Disk error? */
1a001888:	2001      	movs	r0, #1
			}
		}
	}
#endif
	return FR_OK;
}
1a00188a:	bdf8      	pop	{r3, r4, r5, r6, r7, pc}

1a00188c <dir_next>:
static
FRESULT dir_next (	/* FR_OK(0):succeeded, FR_NO_FILE:End of table, FR_DENIED:Could not stretch */
	DIR* dp,		/* Pointer to the directory object */
	int stretch		/* 0: Do not stretch table, 1: Stretch table if needed */
)
{
1a00188c:	e92d 43f8 	stmdb	sp!, {r3, r4, r5, r6, r7, r8, r9, lr}
	DWORD ofs, clst;
	FATFS *fs = dp->obj.fs;
1a001890:	6806      	ldr	r6, [r0, #0]
#if !_FS_READONLY
	UINT n;
#endif

	ofs = dp->dptr + SZDIRE;	/* Next entry */
1a001892:	6903      	ldr	r3, [r0, #16]
1a001894:	f103 0520 	add.w	r5, r3, #32
	if (!dp->sect || ofs >= (DWORD)((_FS_EXFAT && fs->fs_type == FS_EXFAT) ? MAX_DIR_EX : MAX_DIR)) return FR_NO_FILE;	/* Report EOT when offset has reached max value */
1a001898:	6983      	ldr	r3, [r0, #24]
1a00189a:	2b00      	cmp	r3, #0
1a00189c:	d06e      	beq.n	1a00197c <dir_next+0xf0>
1a00189e:	f5b5 1f00 	cmp.w	r5, #2097152	; 0x200000
1a0018a2:	d26e      	bcs.n	1a001982 <dir_next+0xf6>
1a0018a4:	4688      	mov	r8, r1
1a0018a6:	4604      	mov	r4, r0

	if (ofs % SS(fs) == 0) {	/* Sector changed? */
1a0018a8:	f3c5 0708 	ubfx	r7, r5, #0, #9
1a0018ac:	2f00      	cmp	r7, #0
1a0018ae:	d15d      	bne.n	1a00196c <dir_next+0xe0>
		dp->sect++;				/* Next sector */
1a0018b0:	3301      	adds	r3, #1
1a0018b2:	6183      	str	r3, [r0, #24]

		if (!dp->clust) {		/* Static table */
1a0018b4:	6941      	ldr	r1, [r0, #20]
1a0018b6:	b941      	cbnz	r1, 1a0018ca <dir_next+0x3e>
			if (ofs / SZDIRE >= fs->n_rootdir) {	/* Report EOT if it reached end of static table */
1a0018b8:	8933      	ldrh	r3, [r6, #8]
1a0018ba:	ebb3 1f55 	cmp.w	r3, r5, lsr #5
1a0018be:	d855      	bhi.n	1a00196c <dir_next+0xe0>
				dp->sect = 0; return FR_NO_FILE;
1a0018c0:	2300      	movs	r3, #0
1a0018c2:	6183      	str	r3, [r0, #24]
1a0018c4:	2004      	movs	r0, #4
1a0018c6:	e8bd 83f8 	ldmia.w	sp!, {r3, r4, r5, r6, r7, r8, r9, pc}
			}
		}
		else {					/* Dynamic table */
			if ((ofs / SS(fs) & (fs->csize - 1)) == 0) {		/* Cluster changed? */
1a0018ca:	8973      	ldrh	r3, [r6, #10]
1a0018cc:	3b01      	subs	r3, #1
1a0018ce:	ea13 2355 	ands.w	r3, r3, r5, lsr #9
1a0018d2:	d14b      	bne.n	1a00196c <dir_next+0xe0>
				clst = get_fat(&dp->obj, dp->clust);			/* Get next cluster */
1a0018d4:	f7ff fe76 	bl	1a0015c4 <get_fat>
1a0018d8:	4681      	mov	r9, r0
				if (clst <= 1) return FR_INT_ERR;				/* Internal error */
1a0018da:	2801      	cmp	r0, #1
1a0018dc:	d954      	bls.n	1a001988 <dir_next+0xfc>
				if (clst == 0xFFFFFFFF) return FR_DISK_ERR;		/* Disk error */
1a0018de:	f1b0 3fff 	cmp.w	r0, #4294967295	; 0xffffffff
1a0018e2:	d054      	beq.n	1a00198e <dir_next+0x102>
				if (clst >= fs->n_fatent) {						/* Reached end of dynamic table */
1a0018e4:	6973      	ldr	r3, [r6, #20]
1a0018e6:	4283      	cmp	r3, r0
1a0018e8:	d839      	bhi.n	1a00195e <dir_next+0xd2>
#if !_FS_READONLY
					if (!stretch) {								/* If no stretch, report EOT */
1a0018ea:	f1b8 0f00 	cmp.w	r8, #0
1a0018ee:	d104      	bne.n	1a0018fa <dir_next+0x6e>
						dp->sect = 0; return FR_NO_FILE;
1a0018f0:	2300      	movs	r3, #0
1a0018f2:	61a3      	str	r3, [r4, #24]
1a0018f4:	2004      	movs	r0, #4
1a0018f6:	e8bd 83f8 	ldmia.w	sp!, {r3, r4, r5, r6, r7, r8, r9, pc}
					}
					clst = create_chain(&dp->obj, dp->clust);	/* Allocate a cluster */
1a0018fa:	4620      	mov	r0, r4
1a0018fc:	6961      	ldr	r1, [r4, #20]
1a0018fe:	f7ff ff21 	bl	1a001744 <create_chain>
					if (clst == 0) return FR_DENIED;			/* No free cluster */
1a001902:	4681      	mov	r9, r0
1a001904:	2800      	cmp	r0, #0
1a001906:	d045      	beq.n	1a001994 <dir_next+0x108>
					if (clst == 1) return FR_INT_ERR;			/* Internal error */
1a001908:	2801      	cmp	r0, #1
1a00190a:	d046      	beq.n	1a00199a <dir_next+0x10e>
					if (clst == 0xFFFFFFFF) return FR_DISK_ERR;	/* Disk error */
1a00190c:	f1b0 3fff 	cmp.w	r0, #4294967295	; 0xffffffff
1a001910:	d046      	beq.n	1a0019a0 <dir_next+0x114>
					/* Clean-up the stretched table */
					if (_FS_EXFAT) dp->obj.stat |= 4;			/* The directory needs to be updated */
					if (sync_window(fs) != FR_OK) return FR_DISK_ERR;	/* Flush disk access window */
1a001912:	4630      	mov	r0, r6
1a001914:	f7ff fbe4 	bl	1a0010e0 <sync_window>
1a001918:	2800      	cmp	r0, #0
1a00191a:	d144      	bne.n	1a0019a6 <dir_next+0x11a>
					mem_set(fs->win, 0, SS(fs));				/* Clear window buffer */
1a00191c:	f106 0030 	add.w	r0, r6, #48	; 0x30
1a001920:	2100      	movs	r1, #0
1a001922:	f44f 7200 	mov.w	r2, #512	; 0x200
1a001926:	f7ff fadf 	bl	1a000ee8 <mem_set>
					for (n = 0, fs->winsect = clust2sect(fs, clst); n < fs->csize; n++, fs->winsect++) {	/* Fill the new cluster with 0 */
1a00192a:	4630      	mov	r0, r6
1a00192c:	4649      	mov	r1, r9
1a00192e:	f7ff faf9 	bl	1a000f24 <clust2sect>
1a001932:	62f0      	str	r0, [r6, #44]	; 0x2c
1a001934:	f04f 0800 	mov.w	r8, #0
1a001938:	e00a      	b.n	1a001950 <dir_next+0xc4>
						fs->wflag = 1;
1a00193a:	2301      	movs	r3, #1
1a00193c:	70f3      	strb	r3, [r6, #3]
						if (sync_window(fs) != FR_OK) return FR_DISK_ERR;
1a00193e:	4630      	mov	r0, r6
1a001940:	f7ff fbce 	bl	1a0010e0 <sync_window>
1a001944:	bb90      	cbnz	r0, 1a0019ac <dir_next+0x120>
					if (clst == 0xFFFFFFFF) return FR_DISK_ERR;	/* Disk error */
					/* Clean-up the stretched table */
					if (_FS_EXFAT) dp->obj.stat |= 4;			/* The directory needs to be updated */
					if (sync_window(fs) != FR_OK) return FR_DISK_ERR;	/* Flush disk access window */
					mem_set(fs->win, 0, SS(fs));				/* Clear window buffer */
					for (n = 0, fs->winsect = clust2sect(fs, clst); n < fs->csize; n++, fs->winsect++) {	/* Fill the new cluster with 0 */
1a001946:	f108 0801 	add.w	r8, r8, #1
1a00194a:	6af3      	ldr	r3, [r6, #44]	; 0x2c
1a00194c:	3301      	adds	r3, #1
1a00194e:	62f3      	str	r3, [r6, #44]	; 0x2c
1a001950:	8973      	ldrh	r3, [r6, #10]
1a001952:	4543      	cmp	r3, r8
1a001954:	d8f1      	bhi.n	1a00193a <dir_next+0xae>
						fs->wflag = 1;
						if (sync_window(fs) != FR_OK) return FR_DISK_ERR;
					}
					fs->winsect -= n;							/* Restore window offset */
1a001956:	6af3      	ldr	r3, [r6, #44]	; 0x2c
1a001958:	ebc8 0303 	rsb	r3, r8, r3
1a00195c:	62f3      	str	r3, [r6, #44]	; 0x2c
#else
					if (!stretch) dp->sect = 0;					/* If no stretch, report EOT (this is to suppress warning) */
					dp->sect = 0; return FR_NO_FILE;			/* Report EOT */
#endif
				}
				dp->clust = clst;		/* Initialize data for new cluster */
1a00195e:	f8c4 9014 	str.w	r9, [r4, #20]
				dp->sect = clust2sect(fs, clst);
1a001962:	4630      	mov	r0, r6
1a001964:	4649      	mov	r1, r9
1a001966:	f7ff fadd 	bl	1a000f24 <clust2sect>
1a00196a:	61a0      	str	r0, [r4, #24]
			}
		}
	}
	dp->dptr = ofs;						/* Current entry */
1a00196c:	6125      	str	r5, [r4, #16]
	dp->dir = fs->win + ofs % SS(fs);	/* Pointer to the entry in the win[] */
1a00196e:	f107 0830 	add.w	r8, r7, #48	; 0x30
1a001972:	4446      	add	r6, r8
1a001974:	61e6      	str	r6, [r4, #28]

	return FR_OK;
1a001976:	2000      	movs	r0, #0
1a001978:	e8bd 83f8 	ldmia.w	sp!, {r3, r4, r5, r6, r7, r8, r9, pc}
#if !_FS_READONLY
	UINT n;
#endif

	ofs = dp->dptr + SZDIRE;	/* Next entry */
	if (!dp->sect || ofs >= (DWORD)((_FS_EXFAT && fs->fs_type == FS_EXFAT) ? MAX_DIR_EX : MAX_DIR)) return FR_NO_FILE;	/* Report EOT when offset has reached max value */
1a00197c:	2004      	movs	r0, #4
1a00197e:	e8bd 83f8 	ldmia.w	sp!, {r3, r4, r5, r6, r7, r8, r9, pc}
1a001982:	2004      	movs	r0, #4
1a001984:	e8bd 83f8 	ldmia.w	sp!, {r3, r4, r5, r6, r7, r8, r9, pc}
			}
		}
		else {					/* Dynamic table */
			if ((ofs / SS(fs) & (fs->csize - 1)) == 0) {		/* Cluster changed? */
				clst = get_fat(&dp->obj, dp->clust);			/* Get next cluster */
				if (clst <= 1) return FR_INT_ERR;				/* Internal error */
1a001988:	2002      	movs	r0, #2
1a00198a:	e8bd 83f8 	ldmia.w	sp!, {r3, r4, r5, r6, r7, r8, r9, pc}
				if (clst == 0xFFFFFFFF) return FR_DISK_ERR;		/* Disk error */
1a00198e:	2001      	movs	r0, #1
1a001990:	e8bd 83f8 	ldmia.w	sp!, {r3, r4, r5, r6, r7, r8, r9, pc}
#if !_FS_READONLY
					if (!stretch) {								/* If no stretch, report EOT */
						dp->sect = 0; return FR_NO_FILE;
					}
					clst = create_chain(&dp->obj, dp->clust);	/* Allocate a cluster */
					if (clst == 0) return FR_DENIED;			/* No free cluster */
1a001994:	2007      	movs	r0, #7
1a001996:	e8bd 83f8 	ldmia.w	sp!, {r3, r4, r5, r6, r7, r8, r9, pc}
					if (clst == 1) return FR_INT_ERR;			/* Internal error */
1a00199a:	2002      	movs	r0, #2
1a00199c:	e8bd 83f8 	ldmia.w	sp!, {r3, r4, r5, r6, r7, r8, r9, pc}
					if (clst == 0xFFFFFFFF) return FR_DISK_ERR;	/* Disk error */
1a0019a0:	2001      	movs	r0, #1
1a0019a2:	e8bd 83f8 	ldmia.w	sp!, {r3, r4, r5, r6, r7, r8, r9, pc}
					/* Clean-up the stretched table */
					if (_FS_EXFAT) dp->obj.stat |= 4;			/* The directory needs to be updated */
					if (sync_window(fs) != FR_OK) return FR_DISK_ERR;	/* Flush disk access window */
1a0019a6:	2001      	movs	r0, #1
1a0019a8:	e8bd 83f8 	ldmia.w	sp!, {r3, r4, r5, r6, r7, r8, r9, pc}
					mem_set(fs->win, 0, SS(fs));				/* Clear window buffer */
					for (n = 0, fs->winsect = clust2sect(fs, clst); n < fs->csize; n++, fs->winsect++) {	/* Fill the new cluster with 0 */
						fs->wflag = 1;
						if (sync_window(fs) != FR_OK) return FR_DISK_ERR;
1a0019ac:	2001      	movs	r0, #1
	}
	dp->dptr = ofs;						/* Current entry */
	dp->dir = fs->win + ofs % SS(fs);	/* Pointer to the entry in the win[] */

	return FR_OK;
}
1a0019ae:	e8bd 83f8 	ldmia.w	sp!, {r3, r4, r5, r6, r7, r8, r9, pc}
1a0019b2:	bf00      	nop

1a0019b4 <dir_find>:

static
FRESULT dir_find (	/* FR_OK(0):succeeded, !=0:error */
	DIR* dp			/* Pointer to the directory object with the file name */
)
{
1a0019b4:	b570      	push	{r4, r5, r6, lr}
1a0019b6:	4604      	mov	r4, r0
	FRESULT res;
	FATFS *fs = dp->obj.fs;
1a0019b8:	6806      	ldr	r6, [r0, #0]
	BYTE c;
#if _USE_LFN != 0
	BYTE a, ord, sum;
#endif

	res = dir_sdi(dp, 0);			/* Rewind directory object */
1a0019ba:	2100      	movs	r1, #0
1a0019bc:	f7ff fe6a 	bl	1a001694 <dir_sdi>
	if (res != FR_OK) return res;
1a0019c0:	bb08      	cbnz	r0, 1a001a06 <dir_find+0x52>
	/* At the FAT12/16/32 */
#if _USE_LFN != 0
	ord = sum = 0xFF; dp->blk_ofs = 0xFFFFFFFF;	/* Reset LFN sequence */
#endif
	do {
		res = move_window(fs, dp->sect);
1a0019c2:	4630      	mov	r0, r6
1a0019c4:	69a1      	ldr	r1, [r4, #24]
1a0019c6:	f7ff fbb5 	bl	1a001134 <move_window>
		if (res != FR_OK) break;
1a0019ca:	4605      	mov	r5, r0
1a0019cc:	b9c8      	cbnz	r0, 1a001a02 <dir_find+0x4e>
		c = dp->dir[DIR_Name];
1a0019ce:	69e0      	ldr	r0, [r4, #28]
1a0019d0:	7803      	ldrb	r3, [r0, #0]
		if (c == 0) { res = FR_NO_FILE; break; }	/* Reached to end of table */
1a0019d2:	b1ab      	cbz	r3, 1a001a00 <dir_find+0x4c>
				if (!(dp->fn[NSFLAG] & NS_LOSS) && !mem_cmp(dp->dir, dp->fn, 11)) break;	/* SFN matched? */
				ord = 0xFF; dp->blk_ofs = 0xFFFFFFFF;	/* Reset LFN sequence */
			}
		}
#else		/* Non LFN configuration */
		dp->obj.attr = dp->dir[DIR_Attr] & AM_MASK;
1a0019d4:	7ac3      	ldrb	r3, [r0, #11]
1a0019d6:	f003 033f 	and.w	r3, r3, #63	; 0x3f
1a0019da:	71a3      	strb	r3, [r4, #6]
		if (!(dp->dir[DIR_Attr] & AM_VOL) && !mem_cmp(dp->dir, dp->fn, 11)) break;	/* Is it a valid entry? */
1a0019dc:	7ac3      	ldrb	r3, [r0, #11]
1a0019de:	f013 0f08 	tst.w	r3, #8
1a0019e2:	d105      	bne.n	1a0019f0 <dir_find+0x3c>
1a0019e4:	f104 0120 	add.w	r1, r4, #32
1a0019e8:	220b      	movs	r2, #11
1a0019ea:	f7ff fa83 	bl	1a000ef4 <mem_cmp>
1a0019ee:	b140      	cbz	r0, 1a001a02 <dir_find+0x4e>
#endif
		res = dir_next(dp, 0);	/* Next entry */
1a0019f0:	4620      	mov	r0, r4
1a0019f2:	2100      	movs	r1, #0
1a0019f4:	f7ff ff4a 	bl	1a00188c <dir_next>
	} while (res == FR_OK);
1a0019f8:	4605      	mov	r5, r0
1a0019fa:	2800      	cmp	r0, #0
1a0019fc:	d0e1      	beq.n	1a0019c2 <dir_find+0xe>
1a0019fe:	e000      	b.n	1a001a02 <dir_find+0x4e>
#endif
	do {
		res = move_window(fs, dp->sect);
		if (res != FR_OK) break;
		c = dp->dir[DIR_Name];
		if (c == 0) { res = FR_NO_FILE; break; }	/* Reached to end of table */
1a001a00:	2504      	movs	r5, #4
		if (!(dp->dir[DIR_Attr] & AM_VOL) && !mem_cmp(dp->dir, dp->fn, 11)) break;	/* Is it a valid entry? */
#endif
		res = dir_next(dp, 0);	/* Next entry */
	} while (res == FR_OK);

	return res;
1a001a02:	4628      	mov	r0, r5
1a001a04:	bd70      	pop	{r4, r5, r6, pc}
}
1a001a06:	bd70      	pop	{r4, r5, r6, pc}

1a001a08 <follow_path>:
static
FRESULT follow_path (	/* FR_OK(0): successful, !=0: error code */
	DIR* dp,			/* Directory object to return last directory and found object */
	const TCHAR* path	/* Full-path string to find a file or directory */
)
{
1a001a08:	b530      	push	{r4, r5, lr}
1a001a0a:	b083      	sub	sp, #12
1a001a0c:	4604      	mov	r4, r0
1a001a0e:	9101      	str	r1, [sp, #4]
	FRESULT res;
	BYTE ns;
	_FDID *obj = &dp->obj;
	FATFS *fs = obj->fs;
1a001a10:	6805      	ldr	r5, [r0, #0]
	if (*path != '/' && *path != '\\') {	/* Without heading separator */
		obj->sclust = fs->cdir;				/* Start from the current directory */
	} else
#endif
	{										/* With heading separator */
		while (*path == '/' || *path == '\\') path++;	/* Strip heading separator */
1a001a12:	e001      	b.n	1a001a18 <follow_path+0x10>
1a001a14:	3301      	adds	r3, #1
1a001a16:	9301      	str	r3, [sp, #4]
1a001a18:	9b01      	ldr	r3, [sp, #4]
1a001a1a:	781a      	ldrb	r2, [r3, #0]
1a001a1c:	2a2f      	cmp	r2, #47	; 0x2f
1a001a1e:	d0f9      	beq.n	1a001a14 <follow_path+0xc>
1a001a20:	2a5c      	cmp	r2, #92	; 0x5c
1a001a22:	d0f7      	beq.n	1a001a14 <follow_path+0xc>
		obj->sclust = 0;					/* Start from the root directory */
1a001a24:	2200      	movs	r2, #0
1a001a26:	60a2      	str	r2, [r4, #8]
		obj->objsize = ld_dword(fs->dirbuf + XDIR_FileSize);
		obj->stat = fs->dirbuf[XDIR_GenFlags] & 2;
	}
#endif

	if ((UINT)*path < ' ') {				/* Null path name is the origin directory itself */
1a001a28:	781b      	ldrb	r3, [r3, #0]
1a001a2a:	2b1f      	cmp	r3, #31
1a001a2c:	d808      	bhi.n	1a001a40 <follow_path+0x38>
		dp->fn[NSFLAG] = NS_NONAME;
1a001a2e:	2380      	movs	r3, #128	; 0x80
1a001a30:	f884 302b 	strb.w	r3, [r4, #43]	; 0x2b
		res = dir_sdi(dp, 0);
1a001a34:	4620      	mov	r0, r4
1a001a36:	4611      	mov	r1, r2
1a001a38:	f7ff fe2c 	bl	1a001694 <dir_sdi>
1a001a3c:	4603      	mov	r3, r0
1a001a3e:	e026      	b.n	1a001a8e <follow_path+0x86>

	} else {								/* Follow path */
		for (;;) {
			res = create_name(dp, &path);	/* Get a segment name of the path */
1a001a40:	4620      	mov	r0, r4
1a001a42:	a901      	add	r1, sp, #4
1a001a44:	f7ff fa9e 	bl	1a000f84 <create_name>
			if (res != FR_OK) break;
1a001a48:	4603      	mov	r3, r0
1a001a4a:	bb00      	cbnz	r0, 1a001a8e <follow_path+0x86>
			res = dir_find(dp);				/* Find an object with the segment name */
1a001a4c:	4620      	mov	r0, r4
1a001a4e:	f7ff ffb1 	bl	1a0019b4 <dir_find>
			ns = dp->fn[NSFLAG];
1a001a52:	f894 202b 	ldrb.w	r2, [r4, #43]	; 0x2b
			if (res != FR_OK) {				/* Failed to find the object */
1a001a56:	4603      	mov	r3, r0
1a001a58:	b128      	cbz	r0, 1a001a66 <follow_path+0x5e>
				if (res == FR_NO_FILE) {	/* Object is not found */
1a001a5a:	2804      	cmp	r0, #4
1a001a5c:	d117      	bne.n	1a001a8e <follow_path+0x86>
					if (_FS_RPATH && (ns & NS_DOT)) {	/* If dot entry is not exist, stay there */
						if (!(ns & NS_LAST)) continue;	/* Continue to follow if not last segment */
						dp->fn[NSFLAG] = NS_NONAME;
						res = FR_OK;
					} else {							/* Could not find the object */
						if (!(ns & NS_LAST)) res = FR_NO_PATH;	/* Adjust error code if not last segment */
1a001a5e:	f012 0f04 	tst.w	r2, #4
1a001a62:	d011      	beq.n	1a001a88 <follow_path+0x80>
1a001a64:	e013      	b.n	1a001a8e <follow_path+0x86>
					}
				}
				break;
			}
			if (ns & NS_LAST) break;			/* Last segment matched. Function completed. */
1a001a66:	f012 0f04 	tst.w	r2, #4
1a001a6a:	d110      	bne.n	1a001a8e <follow_path+0x86>
			/* Get into the sub-directory */
			if (!(obj->attr & AM_DIR)) {		/* It is not a sub-directory and cannot follow */
1a001a6c:	79a3      	ldrb	r3, [r4, #6]
1a001a6e:	f013 0f10 	tst.w	r3, #16
1a001a72:	d00b      	beq.n	1a001a8c <follow_path+0x84>
				obj->stat = fs->dirbuf[XDIR_GenFlags] & 2;
				obj->objsize = ld_qword(fs->dirbuf + XDIR_FileSize);
			} else
#endif
			{
				obj->sclust = ld_clust(fs, fs->win + dp->dptr % SS(fs));	/* Open next directory */
1a001a74:	6921      	ldr	r1, [r4, #16]
1a001a76:	f3c1 0108 	ubfx	r1, r1, #0, #9
1a001a7a:	3130      	adds	r1, #48	; 0x30
1a001a7c:	4628      	mov	r0, r5
1a001a7e:	4429      	add	r1, r5
1a001a80:	f7ff fa5c 	bl	1a000f3c <ld_clust>
1a001a84:	60a0      	str	r0, [r4, #8]
			}
		}
1a001a86:	e7db      	b.n	1a001a40 <follow_path+0x38>
					if (_FS_RPATH && (ns & NS_DOT)) {	/* If dot entry is not exist, stay there */
						if (!(ns & NS_LAST)) continue;	/* Continue to follow if not last segment */
						dp->fn[NSFLAG] = NS_NONAME;
						res = FR_OK;
					} else {							/* Could not find the object */
						if (!(ns & NS_LAST)) res = FR_NO_PATH;	/* Adjust error code if not last segment */
1a001a88:	2305      	movs	r3, #5
1a001a8a:	e000      	b.n	1a001a8e <follow_path+0x86>
				break;
			}
			if (ns & NS_LAST) break;			/* Last segment matched. Function completed. */
			/* Get into the sub-directory */
			if (!(obj->attr & AM_DIR)) {		/* It is not a sub-directory and cannot follow */
				res = FR_NO_PATH; break;
1a001a8c:	2305      	movs	r3, #5
			}
		}
	}

	return res;
}
1a001a8e:	4618      	mov	r0, r3
1a001a90:	b003      	add	sp, #12
1a001a92:	bd30      	pop	{r4, r5, pc}

1a001a94 <dir_alloc>:
static
FRESULT dir_alloc (	/* FR_OK(0):succeeded, !=0:error */
	DIR* dp,		/* Pointer to the directory object */
	UINT nent		/* Number of contiguous entries to allocate */
)
{
1a001a94:	b5f8      	push	{r3, r4, r5, r6, r7, lr}
1a001a96:	4604      	mov	r4, r0
1a001a98:	460f      	mov	r7, r1
	FRESULT res;
	UINT n;
	FATFS *fs = dp->obj.fs;
1a001a9a:	6806      	ldr	r6, [r0, #0]


	res = dir_sdi(dp, 0);
1a001a9c:	2100      	movs	r1, #0
1a001a9e:	f7ff fdf9 	bl	1a001694 <dir_sdi>
	if (res == FR_OK) {
1a001aa2:	4602      	mov	r2, r0
1a001aa4:	b9b8      	cbnz	r0, 1a001ad6 <dir_alloc+0x42>
1a001aa6:	2500      	movs	r5, #0
		n = 0;
		do {
			res = move_window(fs, dp->sect);
1a001aa8:	4630      	mov	r0, r6
1a001aaa:	69a1      	ldr	r1, [r4, #24]
1a001aac:	f7ff fb42 	bl	1a001134 <move_window>
			if (res != FR_OK) break;
1a001ab0:	4602      	mov	r2, r0
1a001ab2:	b980      	cbnz	r0, 1a001ad6 <dir_alloc+0x42>
#if _FS_EXFAT
			if ((fs->fs_type == FS_EXFAT) ? (int)((dp->dir[XDIR_Type] & 0x80) == 0) : (int)(dp->dir[DIR_Name] == DDEM || dp->dir[DIR_Name] == 0)) {
#else
			if (dp->dir[DIR_Name] == DDEM || dp->dir[DIR_Name] == 0) {
1a001ab4:	69e3      	ldr	r3, [r4, #28]
1a001ab6:	781b      	ldrb	r3, [r3, #0]
1a001ab8:	2be5      	cmp	r3, #229	; 0xe5
1a001aba:	d000      	beq.n	1a001abe <dir_alloc+0x2a>
1a001abc:	b91b      	cbnz	r3, 1a001ac6 <dir_alloc+0x32>
#endif
				if (++n == nent) break;	/* A block of contiguous free entries is found */
1a001abe:	3501      	adds	r5, #1
1a001ac0:	42bd      	cmp	r5, r7
1a001ac2:	d101      	bne.n	1a001ac8 <dir_alloc+0x34>
1a001ac4:	e007      	b.n	1a001ad6 <dir_alloc+0x42>
			} else {
				n = 0;					/* Not a blank entry. Restart to search */
1a001ac6:	2500      	movs	r5, #0
			}
			res = dir_next(dp, 1);
1a001ac8:	4620      	mov	r0, r4
1a001aca:	2101      	movs	r1, #1
1a001acc:	f7ff fede 	bl	1a00188c <dir_next>
		} while (res == FR_OK);	/* Next entry with table stretch enabled */
1a001ad0:	4602      	mov	r2, r0
1a001ad2:	2800      	cmp	r0, #0
1a001ad4:	d0e8      	beq.n	1a001aa8 <dir_alloc+0x14>
	}

	if (res == FR_NO_FILE) res = FR_DENIED;	/* No directory entry to allocate */
1a001ad6:	2a04      	cmp	r2, #4
1a001ad8:	d100      	bne.n	1a001adc <dir_alloc+0x48>
1a001ada:	2207      	movs	r2, #7
	return res;
}
1a001adc:	4610      	mov	r0, r2
1a001ade:	bdf8      	pop	{r3, r4, r5, r6, r7, pc}

1a001ae0 <dir_register>:

static
FRESULT dir_register (	/* FR_OK:succeeded, FR_DENIED:no free entry or too many SFN collision, FR_DISK_ERR:disk error */
	DIR* dp				/* Target directory with object name to be created */
)
{
1a001ae0:	b570      	push	{r4, r5, r6, lr}
1a001ae2:	4604      	mov	r4, r0
	FRESULT res;
	FATFS *fs = dp->obj.fs;
1a001ae4:	6806      	ldr	r6, [r0, #0]
			} while (res == FR_OK && --nent);
		}
	}

#else	/* Non LFN configuration */
	res = dir_alloc(dp, 1);		/* Allocate an entry for SFN */
1a001ae6:	2101      	movs	r1, #1
1a001ae8:	f7ff ffd4 	bl	1a001a94 <dir_alloc>

#endif

	/* Set SFN entry */
	if (res == FR_OK) {
1a001aec:	4605      	mov	r5, r0
1a001aee:	b990      	cbnz	r0, 1a001b16 <dir_register+0x36>
		res = move_window(fs, dp->sect);
1a001af0:	4630      	mov	r0, r6
1a001af2:	69a1      	ldr	r1, [r4, #24]
1a001af4:	f7ff fb1e 	bl	1a001134 <move_window>
		if (res == FR_OK) {
1a001af8:	4605      	mov	r5, r0
1a001afa:	b960      	cbnz	r0, 1a001b16 <dir_register+0x36>
			mem_set(dp->dir, 0, SZDIRE);	/* Clean the entry */
1a001afc:	69e0      	ldr	r0, [r4, #28]
1a001afe:	2100      	movs	r1, #0
1a001b00:	2220      	movs	r2, #32
1a001b02:	f7ff f9f1 	bl	1a000ee8 <mem_set>
			mem_cpy(dp->dir + DIR_Name, dp->fn, 11);	/* Put SFN */
1a001b06:	69e0      	ldr	r0, [r4, #28]
1a001b08:	f104 0120 	add.w	r1, r4, #32
1a001b0c:	220b      	movs	r2, #11
1a001b0e:	f7ff f9e1 	bl	1a000ed4 <mem_cpy>
#if _USE_LFN != 0
			dp->dir[DIR_NTres] = dp->fn[NSFLAG] & (NS_BODY | NS_EXT);	/* Put NT flag */
#endif
			fs->wflag = 1;
1a001b12:	2301      	movs	r3, #1
1a001b14:	70f3      	strb	r3, [r6, #3]
		}
	}

	return res;
}
1a001b16:	4628      	mov	r0, r5
1a001b18:	bd70      	pop	{r4, r5, r6, pc}
1a001b1a:	bf00      	nop

1a001b1c <sync_fs>:

static
FRESULT sync_fs (	/* FR_OK:succeeded, !=0:error */
	FATFS* fs		/* File system object */
)
{
1a001b1c:	b570      	push	{r4, r5, r6, lr}
1a001b1e:	4604      	mov	r4, r0
	FRESULT res;


	res = sync_window(fs);
1a001b20:	f7ff fade 	bl	1a0010e0 <sync_window>
	if (res == FR_OK) {
1a001b24:	4605      	mov	r5, r0
1a001b26:	2800      	cmp	r0, #0
1a001b28:	d137      	bne.n	1a001b9a <sync_fs+0x7e>
		/* Update FSInfo sector if needed */
		if (fs->fs_type == FS_FAT32 && fs->fsi_flag == 1) {
1a001b2a:	7823      	ldrb	r3, [r4, #0]
1a001b2c:	2b03      	cmp	r3, #3
1a001b2e:	d12d      	bne.n	1a001b8c <sync_fs+0x70>
1a001b30:	7923      	ldrb	r3, [r4, #4]
1a001b32:	2b01      	cmp	r3, #1
1a001b34:	d12a      	bne.n	1a001b8c <sync_fs+0x70>
			/* Create FSInfo structure */
			mem_set(fs->win, 0, SS(fs));
1a001b36:	f104 0630 	add.w	r6, r4, #48	; 0x30
1a001b3a:	4630      	mov	r0, r6
1a001b3c:	2100      	movs	r1, #0
1a001b3e:	f44f 7200 	mov.w	r2, #512	; 0x200
1a001b42:	f7ff f9d1 	bl	1a000ee8 <mem_set>
			st_word(fs->win + BS_55AA, 0xAA55);
1a001b46:	f204 202e 	addw	r0, r4, #558	; 0x22e
1a001b4a:	f64a 2155 	movw	r1, #43605	; 0xaa55
1a001b4e:	f7ff f9b3 	bl	1a000eb8 <st_word>
			st_dword(fs->win + FSI_LeadSig, 0x41615252);
1a001b52:	4630      	mov	r0, r6
1a001b54:	4912      	ldr	r1, [pc, #72]	; (1a001ba0 <sync_fs+0x84>)
1a001b56:	f7ff f9b3 	bl	1a000ec0 <st_dword>
			st_dword(fs->win + FSI_StrucSig, 0x61417272);
1a001b5a:	f504 7005 	add.w	r0, r4, #532	; 0x214
1a001b5e:	4911      	ldr	r1, [pc, #68]	; (1a001ba4 <sync_fs+0x88>)
1a001b60:	f7ff f9ae 	bl	1a000ec0 <st_dword>
			st_dword(fs->win + FSI_Free_Count, fs->free_clst);
1a001b64:	f504 7006 	add.w	r0, r4, #536	; 0x218
1a001b68:	6921      	ldr	r1, [r4, #16]
1a001b6a:	f7ff f9a9 	bl	1a000ec0 <st_dword>
			st_dword(fs->win + FSI_Nxt_Free, fs->last_clst);
1a001b6e:	f504 7007 	add.w	r0, r4, #540	; 0x21c
1a001b72:	68e1      	ldr	r1, [r4, #12]
1a001b74:	f7ff f9a4 	bl	1a000ec0 <st_dword>
			/* Write it into the FSInfo sector */
			fs->winsect = fs->volbase + 1;
1a001b78:	69e2      	ldr	r2, [r4, #28]
1a001b7a:	3201      	adds	r2, #1
1a001b7c:	62e2      	str	r2, [r4, #44]	; 0x2c
			disk_write(fs->drv, fs->win, fs->winsect, 1);
1a001b7e:	7860      	ldrb	r0, [r4, #1]
1a001b80:	4631      	mov	r1, r6
1a001b82:	2301      	movs	r3, #1
1a001b84:	f000 fc68 	bl	1a002458 <disk_write>
			fs->fsi_flag = 0;
1a001b88:	2300      	movs	r3, #0
1a001b8a:	7123      	strb	r3, [r4, #4]
		}
		/* Make sure that no pending write process in the physical drive */
		if (disk_ioctl(fs->drv, CTRL_SYNC, 0) != RES_OK) res = FR_DISK_ERR;
1a001b8c:	7860      	ldrb	r0, [r4, #1]
1a001b8e:	2100      	movs	r1, #0
1a001b90:	460a      	mov	r2, r1
1a001b92:	f000 fcb7 	bl	1a002504 <disk_ioctl>
1a001b96:	b100      	cbz	r0, 1a001b9a <sync_fs+0x7e>
1a001b98:	2501      	movs	r5, #1
	}

	return res;
}
1a001b9a:	4628      	mov	r0, r5
1a001b9c:	bd70      	pop	{r4, r5, r6, pc}
1a001b9e:	bf00      	nop
1a001ba0:	41615252 	.word	0x41615252
1a001ba4:	61417272 	.word	0x61417272

1a001ba8 <f_mount>:
FRESULT f_mount (
	FATFS* fs,			/* Pointer to the file system object (NULL:unmount)*/
	const TCHAR* path,	/* Logical drive number to be mounted/unmounted */
	BYTE opt			/* Mode option 0:Do not mount (delayed mount), 1:Mount immediately */
)
{
1a001ba8:	b510      	push	{r4, lr}
1a001baa:	b084      	sub	sp, #16
1a001bac:	9001      	str	r0, [sp, #4]
1a001bae:	9100      	str	r1, [sp, #0]
1a001bb0:	4614      	mov	r4, r2
	FATFS *cfs;
	int vol;
	FRESULT res;
	const TCHAR *rp = path;
1a001bb2:	a804      	add	r0, sp, #16
1a001bb4:	f840 1d04 	str.w	r1, [r0, #-4]!


	vol = get_ldnumber(&rp);
1a001bb8:	f7ff fa4c 	bl	1a001054 <get_ldnumber>
	if (vol < 0) return FR_INVALID_DRIVE;
1a001bbc:	2800      	cmp	r0, #0
1a001bbe:	db16      	blt.n	1a001bee <f_mount+0x46>
	cfs = FatFs[vol];					/* Pointer to fs object */
1a001bc0:	4b0e      	ldr	r3, [pc, #56]	; (1a001bfc <f_mount+0x54>)
1a001bc2:	f853 3020 	ldr.w	r3, [r3, r0, lsl #2]

	if (cfs) {
1a001bc6:	b10b      	cbz	r3, 1a001bcc <f_mount+0x24>
		clear_lock(cfs);
#endif
#if _FS_REENTRANT						/* Discard sync object of the current volume */
		if (!ff_del_syncobj(cfs->sobj)) return FR_INT_ERR;
#endif
		cfs->fs_type = 0;				/* Clear old fs object */
1a001bc8:	2200      	movs	r2, #0
1a001bca:	701a      	strb	r2, [r3, #0]
	}

	if (fs) {
1a001bcc:	9b01      	ldr	r3, [sp, #4]
1a001bce:	b10b      	cbz	r3, 1a001bd4 <f_mount+0x2c>
		fs->fs_type = 0;				/* Clear new fs object */
1a001bd0:	2200      	movs	r2, #0
1a001bd2:	701a      	strb	r2, [r3, #0]
#if _FS_REENTRANT						/* Create sync object for the new volume */
		if (!ff_cre_syncobj((BYTE)vol, &fs->sobj)) return FR_INT_ERR;
#endif
	}
	FatFs[vol] = fs;					/* Register new fs object */
1a001bd4:	9b01      	ldr	r3, [sp, #4]
1a001bd6:	4a09      	ldr	r2, [pc, #36]	; (1a001bfc <f_mount+0x54>)
1a001bd8:	f842 3020 	str.w	r3, [r2, r0, lsl #2]

	if (!fs || opt != 1) return FR_OK;	/* Do not mount now, it will be mounted later */
1a001bdc:	b14b      	cbz	r3, 1a001bf2 <f_mount+0x4a>
1a001bde:	2c01      	cmp	r4, #1
1a001be0:	d109      	bne.n	1a001bf6 <f_mount+0x4e>

	res = find_volume(&path, &fs, 0);	/* Force mounted the volume */
1a001be2:	4668      	mov	r0, sp
1a001be4:	a901      	add	r1, sp, #4
1a001be6:	2200      	movs	r2, #0
1a001be8:	f7ff fafc 	bl	1a0011e4 <find_volume>
	LEAVE_FF(fs, res);
1a001bec:	e004      	b.n	1a001bf8 <f_mount+0x50>
	FRESULT res;
	const TCHAR *rp = path;


	vol = get_ldnumber(&rp);
	if (vol < 0) return FR_INVALID_DRIVE;
1a001bee:	200b      	movs	r0, #11
1a001bf0:	e002      	b.n	1a001bf8 <f_mount+0x50>
		if (!ff_cre_syncobj((BYTE)vol, &fs->sobj)) return FR_INT_ERR;
#endif
	}
	FatFs[vol] = fs;					/* Register new fs object */

	if (!fs || opt != 1) return FR_OK;	/* Do not mount now, it will be mounted later */
1a001bf2:	2000      	movs	r0, #0
1a001bf4:	e000      	b.n	1a001bf8 <f_mount+0x50>
1a001bf6:	2000      	movs	r0, #0

	res = find_volume(&path, &fs, 0);	/* Force mounted the volume */
	LEAVE_FF(fs, res);
}
1a001bf8:	b004      	add	sp, #16
1a001bfa:	bd10      	pop	{r4, pc}
1a001bfc:	1000052c 	.word	0x1000052c

1a001c00 <f_open>:
FRESULT f_open (
	FIL* fp,			/* Pointer to the blank file object */
	const TCHAR* path,	/* Pointer to the file name */
	BYTE mode			/* Access mode and file open mode flags */
)
{
1a001c00:	e92d 43f0 	stmdb	sp!, {r4, r5, r6, r7, r8, r9, lr}
1a001c04:	b08f      	sub	sp, #60	; 0x3c
1a001c06:	9101      	str	r1, [sp, #4]
	FSIZE_t ofs;
#endif
	DEF_NAMBUF


	if (!fp) return FR_INVALID_OBJECT;
1a001c08:	2800      	cmp	r0, #0
1a001c0a:	f000 80e0 	beq.w	1a001dce <f_open+0x1ce>
1a001c0e:	4606      	mov	r6, r0
1a001c10:	4615      	mov	r5, r2

	/* Get logical drive number */
	mode &= _FS_READONLY ? FA_READ : FA_READ | FA_WRITE | FA_CREATE_ALWAYS | FA_CREATE_NEW | FA_OPEN_ALWAYS | FA_OPEN_APPEND | FA_SEEKEND;
1a001c12:	f002 073f 	and.w	r7, r2, #63	; 0x3f
	res = find_volume(&path, &fs, mode);
1a001c16:	a801      	add	r0, sp, #4
1a001c18:	a902      	add	r1, sp, #8
1a001c1a:	463a      	mov	r2, r7
1a001c1c:	f7ff fae2 	bl	1a0011e4 <find_volume>
	if (res == FR_OK) {
1a001c20:	4604      	mov	r4, r0
1a001c22:	2800      	cmp	r0, #0
1a001c24:	f040 80ce 	bne.w	1a001dc4 <f_open+0x1c4>
		dj.obj.fs = fs;
1a001c28:	9b02      	ldr	r3, [sp, #8]
1a001c2a:	9303      	str	r3, [sp, #12]
		INIT_NAMBUF(fs);
		res = follow_path(&dj, path);	/* Follow the file path */
1a001c2c:	a803      	add	r0, sp, #12
1a001c2e:	9901      	ldr	r1, [sp, #4]
1a001c30:	f7ff feea 	bl	1a001a08 <follow_path>
#if !_FS_READONLY	/* R/W configuration */
		if (res == FR_OK) {
1a001c34:	4604      	mov	r4, r0
1a001c36:	b920      	cbnz	r0, 1a001c42 <f_open+0x42>
			if (dj.fn[NSFLAG] & NS_NONAME) {	/* Origin directory itself? */
1a001c38:	f99d 3037 	ldrsb.w	r3, [sp, #55]	; 0x37
1a001c3c:	2b00      	cmp	r3, #0
1a001c3e:	da00      	bge.n	1a001c42 <f_open+0x42>
				res = FR_INVALID_NAME;
1a001c40:	2406      	movs	r4, #6
				res = chk_lock(&dj, (mode & ~FA_READ) ? 1 : 0);
			}
#endif
		}
		/* Create or Open a file */
		if (mode & (FA_CREATE_ALWAYS | FA_OPEN_ALWAYS | FA_CREATE_NEW)) {
1a001c42:	f015 0f1c 	tst.w	r5, #28
1a001c46:	d053      	beq.n	1a001cf0 <f_open+0xf0>
			if (res != FR_OK) {					/* No file, create new */
1a001c48:	b144      	cbz	r4, 1a001c5c <f_open+0x5c>
				if (res == FR_NO_FILE)			/* There is no file to open, create a new entry */
1a001c4a:	2c04      	cmp	r4, #4
1a001c4c:	d103      	bne.n	1a001c56 <f_open+0x56>
#if _FS_LOCK != 0
					res = enq_lock() ? dir_register(&dj) : FR_TOO_MANY_OPEN_FILES;
#else
					res = dir_register(&dj);
1a001c4e:	a803      	add	r0, sp, #12
1a001c50:	f7ff ff46 	bl	1a001ae0 <dir_register>
1a001c54:	4604      	mov	r4, r0
#endif
				mode |= FA_CREATE_ALWAYS;		/* File is created */
1a001c56:	f047 0708 	orr.w	r7, r7, #8
1a001c5a:	e00b      	b.n	1a001c74 <f_open+0x74>
			}
			else {								/* Any object is already existing */
				if (dj.obj.attr & (AM_RDO | AM_DIR)) {	/* Cannot overwrite it (R/O or DIR) */
1a001c5c:	f89d 3012 	ldrb.w	r3, [sp, #18]
1a001c60:	f013 0f11 	tst.w	r3, #17
1a001c64:	d103      	bne.n	1a001c6e <f_open+0x6e>
					res = FR_DENIED;
				} else {
					if (mode & FA_CREATE_NEW) res = FR_EXIST;	/* Cannot create as new file */
1a001c66:	f015 0f04 	tst.w	r5, #4
1a001c6a:	d102      	bne.n	1a001c72 <f_open+0x72>
1a001c6c:	e002      	b.n	1a001c74 <f_open+0x74>
#endif
				mode |= FA_CREATE_ALWAYS;		/* File is created */
			}
			else {								/* Any object is already existing */
				if (dj.obj.attr & (AM_RDO | AM_DIR)) {	/* Cannot overwrite it (R/O or DIR) */
					res = FR_DENIED;
1a001c6e:	2407      	movs	r4, #7
1a001c70:	e000      	b.n	1a001c74 <f_open+0x74>
				} else {
					if (mode & FA_CREATE_NEW) res = FR_EXIST;	/* Cannot create as new file */
1a001c72:	2408      	movs	r4, #8
				}
			}
			if (res == FR_OK && (mode & FA_CREATE_ALWAYS)) {	/* Truncate it if overwrite mode */
1a001c74:	2c00      	cmp	r4, #0
1a001c76:	d14b      	bne.n	1a001d10 <f_open+0x110>
1a001c78:	f017 0f08 	tst.w	r7, #8
1a001c7c:	d048      	beq.n	1a001d10 <f_open+0x110>
					}
				} else
#endif
				{
					/* Clean directory info */
					st_dword(dj.dir + DIR_CrtTime, dw);	/* Set created time */
1a001c7e:	4d56      	ldr	r5, [pc, #344]	; (1a001dd8 <f_open+0x1d8>)
1a001c80:	980a      	ldr	r0, [sp, #40]	; 0x28
1a001c82:	300e      	adds	r0, #14
1a001c84:	4629      	mov	r1, r5
1a001c86:	f7ff f91b 	bl	1a000ec0 <st_dword>
					st_dword(dj.dir + DIR_ModTime, dw);	/* Set modified time */
1a001c8a:	980a      	ldr	r0, [sp, #40]	; 0x28
1a001c8c:	3016      	adds	r0, #22
1a001c8e:	4629      	mov	r1, r5
1a001c90:	f7ff f916 	bl	1a000ec0 <st_dword>
					dj.dir[DIR_Attr] = AM_ARC;			/* Reset attribute */
1a001c94:	2220      	movs	r2, #32
1a001c96:	9b0a      	ldr	r3, [sp, #40]	; 0x28
1a001c98:	72da      	strb	r2, [r3, #11]
					cl = ld_clust(fs, dj.dir);			/* Get cluster chain */
1a001c9a:	f8dd 8008 	ldr.w	r8, [sp, #8]
1a001c9e:	9d0a      	ldr	r5, [sp, #40]	; 0x28
1a001ca0:	4640      	mov	r0, r8
1a001ca2:	4629      	mov	r1, r5
1a001ca4:	f7ff f94a 	bl	1a000f3c <ld_clust>
1a001ca8:	4681      	mov	r9, r0
					st_clust(fs, dj.dir, 0);			/* Reset file allocation info */
1a001caa:	4640      	mov	r0, r8
1a001cac:	4629      	mov	r1, r5
1a001cae:	2200      	movs	r2, #0
1a001cb0:	f7ff f956 	bl	1a000f60 <st_clust>
					st_dword(dj.dir + DIR_FileSize, 0);
1a001cb4:	980a      	ldr	r0, [sp, #40]	; 0x28
1a001cb6:	301c      	adds	r0, #28
1a001cb8:	2100      	movs	r1, #0
1a001cba:	f7ff f901 	bl	1a000ec0 <st_dword>
					fs->wflag = 1;
1a001cbe:	2201      	movs	r2, #1
1a001cc0:	9b02      	ldr	r3, [sp, #8]
1a001cc2:	70da      	strb	r2, [r3, #3]

					if (cl) {							/* Remove the cluster chain if exist */
1a001cc4:	f1b9 0f00 	cmp.w	r9, #0
1a001cc8:	d022      	beq.n	1a001d10 <f_open+0x110>
						dw = fs->winsect;
1a001cca:	9b02      	ldr	r3, [sp, #8]
1a001ccc:	6add      	ldr	r5, [r3, #44]	; 0x2c
						res = remove_chain(&dj.obj, cl, 0);
1a001cce:	a803      	add	r0, sp, #12
1a001cd0:	4649      	mov	r1, r9
1a001cd2:	2200      	movs	r2, #0
1a001cd4:	f7ff fd9c 	bl	1a001810 <remove_chain>
						if (res == FR_OK) {
1a001cd8:	4604      	mov	r4, r0
1a001cda:	b9c8      	cbnz	r0, 1a001d10 <f_open+0x110>
							res = move_window(fs, dw);
1a001cdc:	9802      	ldr	r0, [sp, #8]
1a001cde:	4629      	mov	r1, r5
1a001ce0:	f7ff fa28 	bl	1a001134 <move_window>
1a001ce4:	4604      	mov	r4, r0
							fs->last_clst = cl - 1;		/* Reuse the cluster hole */
1a001ce6:	f109 33ff 	add.w	r3, r9, #4294967295	; 0xffffffff
1a001cea:	9a02      	ldr	r2, [sp, #8]
1a001cec:	60d3      	str	r3, [r2, #12]
1a001cee:	e00f      	b.n	1a001d10 <f_open+0x110>
					}
				}
			}
		}
		else {	/* Open an existing file */
			if (res == FR_OK) {					/* Following succeeded */
1a001cf0:	b974      	cbnz	r4, 1a001d10 <f_open+0x110>
				if (dj.obj.attr & AM_DIR) {		/* It is a directory */
1a001cf2:	f89d 3012 	ldrb.w	r3, [sp, #18]
1a001cf6:	f013 0f10 	tst.w	r3, #16
1a001cfa:	d106      	bne.n	1a001d0a <f_open+0x10a>
					res = FR_NO_FILE;
				} else {
					if ((mode & FA_WRITE) && (dj.obj.attr & AM_RDO)) { /* R/O violation */
1a001cfc:	f015 0f02 	tst.w	r5, #2
1a001d00:	d006      	beq.n	1a001d10 <f_open+0x110>
1a001d02:	f013 0f01 	tst.w	r3, #1
1a001d06:	d102      	bne.n	1a001d0e <f_open+0x10e>
1a001d08:	e002      	b.n	1a001d10 <f_open+0x110>
			}
		}
		else {	/* Open an existing file */
			if (res == FR_OK) {					/* Following succeeded */
				if (dj.obj.attr & AM_DIR) {		/* It is a directory */
					res = FR_NO_FILE;
1a001d0a:	2404      	movs	r4, #4
1a001d0c:	e000      	b.n	1a001d10 <f_open+0x110>
				} else {
					if ((mode & FA_WRITE) && (dj.obj.attr & AM_RDO)) { /* R/O violation */
						res = FR_DENIED;
1a001d0e:	2407      	movs	r4, #7
					}
				}
			}
		}
		if (res == FR_OK) {
1a001d10:	b94c      	cbnz	r4, 1a001d26 <f_open+0x126>
			if (mode & FA_CREATE_ALWAYS)		/* Set file change flag if created or overwritten */
1a001d12:	f017 0f08 	tst.w	r7, #8
1a001d16:	d001      	beq.n	1a001d1c <f_open+0x11c>
				mode |= FA_MODIFIED;
1a001d18:	f047 0740 	orr.w	r7, r7, #64	; 0x40
			fp->dir_sect = fs->winsect;			/* Pointer to the directory entry */
1a001d1c:	9b02      	ldr	r3, [sp, #8]
1a001d1e:	6adb      	ldr	r3, [r3, #44]	; 0x2c
1a001d20:	6233      	str	r3, [r6, #32]
			fp->dir_ptr = dj.dir;
1a001d22:	9b0a      	ldr	r3, [sp, #40]	; 0x28
1a001d24:	6273      	str	r3, [r6, #36]	; 0x24
				}
			}
		}
#endif

		if (res == FR_OK) {
1a001d26:	2c00      	cmp	r4, #0
1a001d28:	d14c      	bne.n	1a001dc4 <f_open+0x1c4>
				fp->obj.c_size = ((DWORD)dj.obj.objsize & 0xFFFFFF00) | dj.obj.stat;
				fp->obj.c_ofs = dj.blk_ofs;
			} else
#endif
			{
				fp->obj.sclust = ld_clust(fs, dj.dir);				/* Get allocation info */
1a001d2a:	9d02      	ldr	r5, [sp, #8]
1a001d2c:	f8dd 8028 	ldr.w	r8, [sp, #40]	; 0x28
1a001d30:	4628      	mov	r0, r5
1a001d32:	4641      	mov	r1, r8
1a001d34:	f7ff f902 	bl	1a000f3c <ld_clust>
1a001d38:	60b0      	str	r0, [r6, #8]
				fp->obj.objsize = ld_dword(dj.dir + DIR_FileSize);
1a001d3a:	f108 001c 	add.w	r0, r8, #28
1a001d3e:	f7ff f8af 	bl	1a000ea0 <ld_dword>
1a001d42:	60f0      	str	r0, [r6, #12]
			}
#if _USE_FASTSEEK
			fp->cltbl = 0;			/* Disable fast seek mode */
#endif
			fp->obj.fs = fs;	 	/* Validate the file object */
1a001d44:	6035      	str	r5, [r6, #0]
			fp->obj.id = fs->id;
1a001d46:	88eb      	ldrh	r3, [r5, #6]
1a001d48:	80b3      	strh	r3, [r6, #4]
			fp->flag = mode;		/* Set file access mode */
1a001d4a:	7437      	strb	r7, [r6, #16]
			fp->err = 0;			/* Clear error flag */
1a001d4c:	2100      	movs	r1, #0
1a001d4e:	7471      	strb	r1, [r6, #17]
			fp->sect = 0;			/* Invalidate current data sector */
1a001d50:	61f1      	str	r1, [r6, #28]
			fp->fptr = 0;			/* Set file pointer top of the file */
1a001d52:	6171      	str	r1, [r6, #20]
#if !_FS_READONLY
#if !_FS_TINY
			mem_set(fp->buf, 0, _MAX_SS);	/* Clear sector buffer */
1a001d54:	f106 0828 	add.w	r8, r6, #40	; 0x28
1a001d58:	4640      	mov	r0, r8
1a001d5a:	f44f 7200 	mov.w	r2, #512	; 0x200
1a001d5e:	f7ff f8c3 	bl	1a000ee8 <mem_set>
#endif
			if ((mode & FA_SEEKEND) && fp->obj.objsize > 0) {	/* Seek to end of file if FA_OPEN_APPEND is specified */
1a001d62:	f017 0f20 	tst.w	r7, #32
1a001d66:	d02d      	beq.n	1a001dc4 <f_open+0x1c4>
1a001d68:	68f5      	ldr	r5, [r6, #12]
1a001d6a:	b35d      	cbz	r5, 1a001dc4 <f_open+0x1c4>
				fp->fptr = fp->obj.objsize;			/* Offset to seek */
1a001d6c:	6175      	str	r5, [r6, #20]
				bcs = (DWORD)fs->csize * SS(fs);	/* Cluster size in byte */
1a001d6e:	9b02      	ldr	r3, [sp, #8]
1a001d70:	895f      	ldrh	r7, [r3, #10]
1a001d72:	027f      	lsls	r7, r7, #9
				clst = fp->obj.sclust;				/* Follow the cluster chain */
1a001d74:	68b1      	ldr	r1, [r6, #8]
				for (ofs = fp->obj.objsize; res == FR_OK && ofs > bcs; ofs -= bcs) {
1a001d76:	e00b      	b.n	1a001d90 <f_open+0x190>
					clst = get_fat(&fp->obj, clst);
1a001d78:	4630      	mov	r0, r6
1a001d7a:	f7ff fc23 	bl	1a0015c4 <get_fat>
1a001d7e:	4601      	mov	r1, r0
					if (clst <= 1) res = FR_INT_ERR;
1a001d80:	2801      	cmp	r0, #1
1a001d82:	d800      	bhi.n	1a001d86 <f_open+0x186>
1a001d84:	2402      	movs	r4, #2
					if (clst == 0xFFFFFFFF) res = FR_DISK_ERR;
1a001d86:	f1b1 3fff 	cmp.w	r1, #4294967295	; 0xffffffff
1a001d8a:	d100      	bne.n	1a001d8e <f_open+0x18e>
1a001d8c:	2401      	movs	r4, #1
#endif
			if ((mode & FA_SEEKEND) && fp->obj.objsize > 0) {	/* Seek to end of file if FA_OPEN_APPEND is specified */
				fp->fptr = fp->obj.objsize;			/* Offset to seek */
				bcs = (DWORD)fs->csize * SS(fs);	/* Cluster size in byte */
				clst = fp->obj.sclust;				/* Follow the cluster chain */
				for (ofs = fp->obj.objsize; res == FR_OK && ofs > bcs; ofs -= bcs) {
1a001d8e:	1bed      	subs	r5, r5, r7
1a001d90:	b90c      	cbnz	r4, 1a001d96 <f_open+0x196>
1a001d92:	42bd      	cmp	r5, r7
1a001d94:	d8f0      	bhi.n	1a001d78 <f_open+0x178>
					clst = get_fat(&fp->obj, clst);
					if (clst <= 1) res = FR_INT_ERR;
					if (clst == 0xFFFFFFFF) res = FR_DISK_ERR;
				}
				fp->clust = clst;
1a001d96:	61b1      	str	r1, [r6, #24]
				if (res == FR_OK && ofs % SS(fs)) {	/* Fill sector buffer if not on the sector boundary */
1a001d98:	b9a4      	cbnz	r4, 1a001dc4 <f_open+0x1c4>
1a001d9a:	f3c5 0308 	ubfx	r3, r5, #0, #9
1a001d9e:	b18b      	cbz	r3, 1a001dc4 <f_open+0x1c4>
					if ((sc = clust2sect(fs, clst)) == 0) {
1a001da0:	9f02      	ldr	r7, [sp, #8]
1a001da2:	4638      	mov	r0, r7
1a001da4:	f7ff f8be 	bl	1a000f24 <clust2sect>
1a001da8:	b148      	cbz	r0, 1a001dbe <f_open+0x1be>
						res = FR_INT_ERR;
					} else {
						fp->sect = sc + (DWORD)(ofs / SS(fs));
1a001daa:	eb00 2255 	add.w	r2, r0, r5, lsr #9
1a001dae:	61f2      	str	r2, [r6, #28]
#if !_FS_TINY
						if (disk_read(fs->drv, fp->buf, fp->sect, 1) != RES_OK) res = FR_DISK_ERR;
1a001db0:	7878      	ldrb	r0, [r7, #1]
1a001db2:	4641      	mov	r1, r8
1a001db4:	2301      	movs	r3, #1
1a001db6:	f000 fb0b 	bl	1a0023d0 <disk_read>
1a001dba:	b910      	cbnz	r0, 1a001dc2 <f_open+0x1c2>
1a001dbc:	e002      	b.n	1a001dc4 <f_open+0x1c4>
					if (clst == 0xFFFFFFFF) res = FR_DISK_ERR;
				}
				fp->clust = clst;
				if (res == FR_OK && ofs % SS(fs)) {	/* Fill sector buffer if not on the sector boundary */
					if ((sc = clust2sect(fs, clst)) == 0) {
						res = FR_INT_ERR;
1a001dbe:	2402      	movs	r4, #2
1a001dc0:	e000      	b.n	1a001dc4 <f_open+0x1c4>
					} else {
						fp->sect = sc + (DWORD)(ofs / SS(fs));
#if !_FS_TINY
						if (disk_read(fs->drv, fp->buf, fp->sect, 1) != RES_OK) res = FR_DISK_ERR;
1a001dc2:	2401      	movs	r4, #1
		}

		FREE_NAMBUF();
	}

	if (res != FR_OK) fp->obj.fs = 0;	/* Invalidate file object on error */
1a001dc4:	b10c      	cbz	r4, 1a001dca <f_open+0x1ca>
1a001dc6:	2300      	movs	r3, #0
1a001dc8:	6033      	str	r3, [r6, #0]

	LEAVE_FF(fs, res);
1a001dca:	4620      	mov	r0, r4
1a001dcc:	e000      	b.n	1a001dd0 <f_open+0x1d0>
	FSIZE_t ofs;
#endif
	DEF_NAMBUF


	if (!fp) return FR_INVALID_OBJECT;
1a001dce:	2009      	movs	r0, #9
	}

	if (res != FR_OK) fp->obj.fs = 0;	/* Invalidate file object on error */

	LEAVE_FF(fs, res);
}
1a001dd0:	b00f      	add	sp, #60	; 0x3c
1a001dd2:	e8bd 83f0 	ldmia.w	sp!, {r4, r5, r6, r7, r8, r9, pc}
1a001dd6:	bf00      	nop
1a001dd8:	48210000 	.word	0x48210000

1a001ddc <f_write>:
	FIL* fp,			/* Pointer to the file object */
	const void* buff,	/* Pointer to the data to be written */
	UINT btw,			/* Number of bytes to write */
	UINT* bw			/* Pointer to number of bytes written */
)
{
1a001ddc:	e92d 4ff0 	stmdb	sp!, {r4, r5, r6, r7, r8, r9, sl, fp, lr}
1a001de0:	b083      	sub	sp, #12
1a001de2:	4604      	mov	r4, r0
1a001de4:	4688      	mov	r8, r1
1a001de6:	4616      	mov	r6, r2
1a001de8:	461f      	mov	r7, r3
	DWORD clst, sect;
	UINT wcnt, cc, csect;
	const BYTE *wbuff = (const BYTE*)buff;


	*bw = 0;	/* Clear write byte counter */
1a001dea:	2300      	movs	r3, #0
1a001dec:	603b      	str	r3, [r7, #0]
	res = validate(fp, &fs);
1a001dee:	a901      	add	r1, sp, #4
1a001df0:	f7ff f95c 	bl	1a0010ac <validate>
	if (res != FR_OK || (res = (FRESULT)fp->err) != FR_OK) LEAVE_FF(fs, res);	/* Check validity */
1a001df4:	4603      	mov	r3, r0
1a001df6:	b908      	cbnz	r0, 1a001dfc <f_write+0x20>
1a001df8:	7c63      	ldrb	r3, [r4, #17]
1a001dfa:	b10b      	cbz	r3, 1a001e00 <f_write+0x24>
1a001dfc:	4618      	mov	r0, r3
1a001dfe:	e0be      	b.n	1a001f7e <f_write+0x1a2>
	if (!(fp->flag & FA_WRITE)) LEAVE_FF(fs, FR_DENIED);	/* Check access mode */
1a001e00:	7c23      	ldrb	r3, [r4, #16]
1a001e02:	f013 0f02 	tst.w	r3, #2
1a001e06:	f000 80b9 	beq.w	1a001f7c <f_write+0x1a0>

	/* Check fptr wrap-around (file size cannot exceed the limit on each FAT specs) */
	if ((_FS_EXFAT && fs->fs_type == FS_EXFAT && fp->fptr + btw < fp->fptr)
		|| (DWORD)fp->fptr + btw < (DWORD)fp->fptr) {
1a001e0a:	6963      	ldr	r3, [r4, #20]
	res = validate(fp, &fs);
	if (res != FR_OK || (res = (FRESULT)fp->err) != FR_OK) LEAVE_FF(fs, res);	/* Check validity */
	if (!(fp->flag & FA_WRITE)) LEAVE_FF(fs, FR_DENIED);	/* Check access mode */

	/* Check fptr wrap-around (file size cannot exceed the limit on each FAT specs) */
	if ((_FS_EXFAT && fs->fs_type == FS_EXFAT && fp->fptr + btw < fp->fptr)
1a001e0c:	42f3      	cmn	r3, r6
1a001e0e:	f0c0 80ac 	bcc.w	1a001f6a <f_write+0x18e>
		|| (DWORD)fp->fptr + btw < (DWORD)fp->fptr) {
		btw = (UINT)(0xFFFFFFFF - (DWORD)fp->fptr);
1a001e12:	43de      	mvns	r6, r3
1a001e14:	e0a9      	b.n	1a001f6a <f_write+0x18e>
	}

	for ( ;  btw;							/* Repeat until all data written */
		wbuff += wcnt, fp->fptr += wcnt, fp->obj.objsize = (fp->fptr > fp->obj.objsize) ? fp->fptr : fp->obj.objsize, *bw += wcnt, btw -= wcnt) {
		if (fp->fptr % SS(fs) == 0) {		/* On the sector boundary? */
1a001e16:	6963      	ldr	r3, [r4, #20]
1a001e18:	f3c3 0208 	ubfx	r2, r3, #0, #9
1a001e1c:	2a00      	cmp	r2, #0
1a001e1e:	f040 8085 	bne.w	1a001f2c <f_write+0x150>
			csect = (UINT)(fp->fptr / SS(fs)) & (fs->csize - 1);	/* Sector offset in the cluster */
1a001e22:	9a01      	ldr	r2, [sp, #4]
1a001e24:	8952      	ldrh	r2, [r2, #10]
1a001e26:	3a01      	subs	r2, #1
			if (csect == 0) {				/* On the cluster boundary? */
1a001e28:	ea12 2953 	ands.w	r9, r2, r3, lsr #9
1a001e2c:	d11f      	bne.n	1a001e6e <f_write+0x92>
				if (fp->fptr == 0) {		/* On the top of the file? */
1a001e2e:	b933      	cbnz	r3, 1a001e3e <f_write+0x62>
					clst = fp->obj.sclust;	/* Follow from the origin */
1a001e30:	68a0      	ldr	r0, [r4, #8]
					if (clst == 0) {		/* If no cluster is allocated, */
1a001e32:	b940      	cbnz	r0, 1a001e46 <f_write+0x6a>
						clst = create_chain(&fp->obj, 0);	/* create a new cluster chain */
1a001e34:	4620      	mov	r0, r4
1a001e36:	2100      	movs	r1, #0
1a001e38:	f7ff fc84 	bl	1a001744 <create_chain>
1a001e3c:	e003      	b.n	1a001e46 <f_write+0x6a>
					if (fp->cltbl) {
						clst = clmt_clust(fp, fp->fptr);	/* Get cluster# from the CLMT */
					} else
#endif
					{
						clst = create_chain(&fp->obj, fp->clust);	/* Follow or stretch cluster chain on the FAT */
1a001e3e:	4620      	mov	r0, r4
1a001e40:	69a1      	ldr	r1, [r4, #24]
1a001e42:	f7ff fc7f 	bl	1a001744 <create_chain>
					}
				}
				if (clst == 0) break;		/* Could not allocate a new cluster (disk full) */
1a001e46:	2800      	cmp	r0, #0
1a001e48:	f000 8092 	beq.w	1a001f70 <f_write+0x194>
				if (clst == 1) ABORT(fs, FR_INT_ERR);
1a001e4c:	2801      	cmp	r0, #1
1a001e4e:	d103      	bne.n	1a001e58 <f_write+0x7c>
1a001e50:	2302      	movs	r3, #2
1a001e52:	7463      	strb	r3, [r4, #17]
1a001e54:	4618      	mov	r0, r3
1a001e56:	e092      	b.n	1a001f7e <f_write+0x1a2>
				if (clst == 0xFFFFFFFF) ABORT(fs, FR_DISK_ERR);
1a001e58:	f1b0 3fff 	cmp.w	r0, #4294967295	; 0xffffffff
1a001e5c:	d103      	bne.n	1a001e66 <f_write+0x8a>
1a001e5e:	2301      	movs	r3, #1
1a001e60:	7463      	strb	r3, [r4, #17]
1a001e62:	4618      	mov	r0, r3
1a001e64:	e08b      	b.n	1a001f7e <f_write+0x1a2>
				fp->clust = clst;			/* Update current cluster */
1a001e66:	61a0      	str	r0, [r4, #24]
				if (fp->obj.sclust == 0) fp->obj.sclust = clst;	/* Set start cluster if the first write */
1a001e68:	68a3      	ldr	r3, [r4, #8]
1a001e6a:	b903      	cbnz	r3, 1a001e6e <f_write+0x92>
1a001e6c:	60a0      	str	r0, [r4, #8]
			}
#if _FS_TINY
			if (fs->winsect == fp->sect && sync_window(fs) != FR_OK) ABORT(fs, FR_DISK_ERR);	/* Write-back sector cache */
#else
			if (fp->flag & FA_DIRTY) {		/* Write-back sector cache */
1a001e6e:	f994 3010 	ldrsb.w	r3, [r4, #16]
1a001e72:	2b00      	cmp	r3, #0
1a001e74:	da10      	bge.n	1a001e98 <f_write+0xbc>
				if (disk_write(fs->drv, fp->buf, fp->sect, 1) != RES_OK) ABORT(fs, FR_DISK_ERR);
1a001e76:	9b01      	ldr	r3, [sp, #4]
1a001e78:	7858      	ldrb	r0, [r3, #1]
1a001e7a:	f104 0128 	add.w	r1, r4, #40	; 0x28
1a001e7e:	69e2      	ldr	r2, [r4, #28]
1a001e80:	2301      	movs	r3, #1
1a001e82:	f000 fae9 	bl	1a002458 <disk_write>
1a001e86:	b118      	cbz	r0, 1a001e90 <f_write+0xb4>
1a001e88:	2301      	movs	r3, #1
1a001e8a:	7463      	strb	r3, [r4, #17]
1a001e8c:	4618      	mov	r0, r3
1a001e8e:	e076      	b.n	1a001f7e <f_write+0x1a2>
				fp->flag &= ~FA_DIRTY;
1a001e90:	7c23      	ldrb	r3, [r4, #16]
1a001e92:	f003 037f 	and.w	r3, r3, #127	; 0x7f
1a001e96:	7423      	strb	r3, [r4, #16]
			}
#endif
			sect = clust2sect(fs, fp->clust);	/* Get current sector */
1a001e98:	f8dd a004 	ldr.w	sl, [sp, #4]
1a001e9c:	4650      	mov	r0, sl
1a001e9e:	69a1      	ldr	r1, [r4, #24]
1a001ea0:	f7ff f840 	bl	1a000f24 <clust2sect>
			if (!sect) ABORT(fs, FR_INT_ERR);
1a001ea4:	4605      	mov	r5, r0
1a001ea6:	b910      	cbnz	r0, 1a001eae <f_write+0xd2>
1a001ea8:	2002      	movs	r0, #2
1a001eaa:	7460      	strb	r0, [r4, #17]
1a001eac:	e067      	b.n	1a001f7e <f_write+0x1a2>
			sect += csect;
1a001eae:	444d      	add	r5, r9
			cc = btw / SS(fs);				/* When remaining bytes >= sector size, */
			if (cc) {						/* Write maximum contiguous sectors directly */
1a001eb0:	ea5f 2b56 	movs.w	fp, r6, lsr #9
1a001eb4:	d025      	beq.n	1a001f02 <f_write+0x126>
				if (csect + cc > fs->csize) {	/* Clip at cluster boundary */
1a001eb6:	eb09 030b 	add.w	r3, r9, fp
1a001eba:	f8ba 200a 	ldrh.w	r2, [sl, #10]
1a001ebe:	4293      	cmp	r3, r2
1a001ec0:	d901      	bls.n	1a001ec6 <f_write+0xea>
					cc = fs->csize - csect;
1a001ec2:	ebc9 0b02 	rsb	fp, r9, r2
				}
				if (disk_write(fs->drv, wbuff, sect, cc) != RES_OK) {
1a001ec6:	f89a 0001 	ldrb.w	r0, [sl, #1]
1a001eca:	4641      	mov	r1, r8
1a001ecc:	462a      	mov	r2, r5
1a001ece:	465b      	mov	r3, fp
1a001ed0:	f000 fac2 	bl	1a002458 <disk_write>
1a001ed4:	b110      	cbz	r0, 1a001edc <f_write+0x100>
					ABORT(fs, FR_DISK_ERR);
1a001ed6:	2001      	movs	r0, #1
1a001ed8:	7460      	strb	r0, [r4, #17]
1a001eda:	e050      	b.n	1a001f7e <f_write+0x1a2>
				if (fs->winsect - sect < cc) {	/* Refill sector cache if it gets invalidated by the direct write */
					mem_cpy(fs->win, wbuff + ((fs->winsect - sect) * SS(fs)), SS(fs));
					fs->wflag = 0;
				}
#else
				if (fp->sect - sect < cc) { /* Refill sector cache if it gets invalidated by the direct write */
1a001edc:	69e1      	ldr	r1, [r4, #28]
1a001ede:	1b49      	subs	r1, r1, r5
1a001ee0:	4559      	cmp	r1, fp
1a001ee2:	d20b      	bcs.n	1a001efc <f_write+0x120>
					mem_cpy(fp->buf, wbuff + ((fp->sect - sect) * SS(fs)), SS(fs));
1a001ee4:	f104 0028 	add.w	r0, r4, #40	; 0x28
1a001ee8:	eb08 2141 	add.w	r1, r8, r1, lsl #9
1a001eec:	f44f 7200 	mov.w	r2, #512	; 0x200
1a001ef0:	f7fe fff0 	bl	1a000ed4 <mem_cpy>
					fp->flag &= ~FA_DIRTY;
1a001ef4:	7c23      	ldrb	r3, [r4, #16]
1a001ef6:	f003 037f 	and.w	r3, r3, #127	; 0x7f
1a001efa:	7423      	strb	r3, [r4, #16]
				}
#endif
#endif
				wcnt = SS(fs) * cc;		/* Number of bytes transferred */
1a001efc:	ea4f 254b 	mov.w	r5, fp, lsl #9
				continue;
1a001f00:	e026      	b.n	1a001f50 <f_write+0x174>
			if (fp->fptr >= fp->obj.objsize) {	/* Avoid silly cache filling at growing edge */
				if (sync_window(fs) != FR_OK) ABORT(fs, FR_DISK_ERR);
				fs->winsect = sect;
			}
#else
			if (fp->sect != sect) {		/* Fill sector cache with file data */
1a001f02:	69e3      	ldr	r3, [r4, #28]
1a001f04:	42ab      	cmp	r3, r5
1a001f06:	d010      	beq.n	1a001f2a <f_write+0x14e>
				if (fp->fptr < fp->obj.objsize &&
1a001f08:	6962      	ldr	r2, [r4, #20]
1a001f0a:	68e3      	ldr	r3, [r4, #12]
1a001f0c:	429a      	cmp	r2, r3
1a001f0e:	d20c      	bcs.n	1a001f2a <f_write+0x14e>
					disk_read(fs->drv, fp->buf, sect, 1) != RES_OK) {
1a001f10:	f89a 0001 	ldrb.w	r0, [sl, #1]
1a001f14:	f104 0128 	add.w	r1, r4, #40	; 0x28
1a001f18:	462a      	mov	r2, r5
1a001f1a:	2301      	movs	r3, #1
1a001f1c:	f000 fa58 	bl	1a0023d0 <disk_read>
				if (sync_window(fs) != FR_OK) ABORT(fs, FR_DISK_ERR);
				fs->winsect = sect;
			}
#else
			if (fp->sect != sect) {		/* Fill sector cache with file data */
				if (fp->fptr < fp->obj.objsize &&
1a001f20:	b118      	cbz	r0, 1a001f2a <f_write+0x14e>
					disk_read(fs->drv, fp->buf, sect, 1) != RES_OK) {
						ABORT(fs, FR_DISK_ERR);
1a001f22:	2301      	movs	r3, #1
1a001f24:	7463      	strb	r3, [r4, #17]
1a001f26:	4618      	mov	r0, r3
1a001f28:	e029      	b.n	1a001f7e <f_write+0x1a2>
				}
			}
#endif
			fp->sect = sect;
1a001f2a:	61e5      	str	r5, [r4, #28]
		}
		wcnt = SS(fs) - (UINT)fp->fptr % SS(fs);	/* Number of bytes left in the sector */
1a001f2c:	6960      	ldr	r0, [r4, #20]
1a001f2e:	f3c0 0008 	ubfx	r0, r0, #0, #9
1a001f32:	f5c0 7500 	rsb	r5, r0, #512	; 0x200
		if (wcnt > btw) wcnt = btw;					/* Clip it by btw if needed */
1a001f36:	42b5      	cmp	r5, r6
1a001f38:	d900      	bls.n	1a001f3c <f_write+0x160>
1a001f3a:	4635      	mov	r5, r6
#if _FS_TINY
		if (move_window(fs, fp->sect) != FR_OK) ABORT(fs, FR_DISK_ERR);	/* Move sector window */
		mem_cpy(fs->win + fp->fptr % SS(fs), wbuff, wcnt);	/* Fit data to the sector */
		fs->wflag = 1;
#else
		mem_cpy(fp->buf + fp->fptr % SS(fs), wbuff, wcnt);	/* Fit data to the sector */
1a001f3c:	3028      	adds	r0, #40	; 0x28
1a001f3e:	4420      	add	r0, r4
1a001f40:	4641      	mov	r1, r8
1a001f42:	462a      	mov	r2, r5
1a001f44:	f7fe ffc6 	bl	1a000ed4 <mem_cpy>
		fp->flag |= FA_DIRTY;
1a001f48:	7c23      	ldrb	r3, [r4, #16]
1a001f4a:	f063 037f 	orn	r3, r3, #127	; 0x7f
1a001f4e:	7423      	strb	r3, [r4, #16]
		|| (DWORD)fp->fptr + btw < (DWORD)fp->fptr) {
		btw = (UINT)(0xFFFFFFFF - (DWORD)fp->fptr);
	}

	for ( ;  btw;							/* Repeat until all data written */
		wbuff += wcnt, fp->fptr += wcnt, fp->obj.objsize = (fp->fptr > fp->obj.objsize) ? fp->fptr : fp->obj.objsize, *bw += wcnt, btw -= wcnt) {
1a001f50:	44a8      	add	r8, r5
1a001f52:	6963      	ldr	r3, [r4, #20]
1a001f54:	442b      	add	r3, r5
1a001f56:	6163      	str	r3, [r4, #20]
1a001f58:	68e2      	ldr	r2, [r4, #12]
1a001f5a:	4293      	cmp	r3, r2
1a001f5c:	bf38      	it	cc
1a001f5e:	4613      	movcc	r3, r2
1a001f60:	60e3      	str	r3, [r4, #12]
1a001f62:	683b      	ldr	r3, [r7, #0]
1a001f64:	442b      	add	r3, r5
1a001f66:	603b      	str	r3, [r7, #0]
1a001f68:	1b76      	subs	r6, r6, r5
	if ((_FS_EXFAT && fs->fs_type == FS_EXFAT && fp->fptr + btw < fp->fptr)
		|| (DWORD)fp->fptr + btw < (DWORD)fp->fptr) {
		btw = (UINT)(0xFFFFFFFF - (DWORD)fp->fptr);
	}

	for ( ;  btw;							/* Repeat until all data written */
1a001f6a:	2e00      	cmp	r6, #0
1a001f6c:	f47f af53 	bne.w	1a001e16 <f_write+0x3a>
		mem_cpy(fp->buf + fp->fptr % SS(fs), wbuff, wcnt);	/* Fit data to the sector */
		fp->flag |= FA_DIRTY;
#endif
	}

	fp->flag |= FA_MODIFIED;						/* Set file change flag */
1a001f70:	7c23      	ldrb	r3, [r4, #16]
1a001f72:	f043 0340 	orr.w	r3, r3, #64	; 0x40
1a001f76:	7423      	strb	r3, [r4, #16]

	LEAVE_FF(fs, FR_OK);
1a001f78:	2000      	movs	r0, #0
1a001f7a:	e000      	b.n	1a001f7e <f_write+0x1a2>


	*bw = 0;	/* Clear write byte counter */
	res = validate(fp, &fs);
	if (res != FR_OK || (res = (FRESULT)fp->err) != FR_OK) LEAVE_FF(fs, res);	/* Check validity */
	if (!(fp->flag & FA_WRITE)) LEAVE_FF(fs, FR_DENIED);	/* Check access mode */
1a001f7c:	2007      	movs	r0, #7
	}

	fp->flag |= FA_MODIFIED;						/* Set file change flag */

	LEAVE_FF(fs, FR_OK);
}
1a001f7e:	b003      	add	sp, #12
1a001f80:	e8bd 8ff0 	ldmia.w	sp!, {r4, r5, r6, r7, r8, r9, sl, fp, pc}

1a001f84 <f_sync>:
/*-----------------------------------------------------------------------*/

FRESULT f_sync (
	FIL* fp		/* Pointer to the file object */
)
{
1a001f84:	b530      	push	{r4, r5, lr}
1a001f86:	b083      	sub	sp, #12
1a001f88:	4604      	mov	r4, r0
	DWORD tm;
	BYTE *dir;
	DEF_NAMBUF


	res = validate(fp, &fs);	/* Check validity of the object */
1a001f8a:	a901      	add	r1, sp, #4
1a001f8c:	f7ff f88e 	bl	1a0010ac <validate>
	if (res == FR_OK) {
1a001f90:	4603      	mov	r3, r0
1a001f92:	2800      	cmp	r0, #0
1a001f94:	d13d      	bne.n	1a002012 <f_sync+0x8e>
		if (fp->flag & FA_MODIFIED) {	/* Is there any change to the file? */
1a001f96:	7c22      	ldrb	r2, [r4, #16]
1a001f98:	f012 0f40 	tst.w	r2, #64	; 0x40
1a001f9c:	d039      	beq.n	1a002012 <f_sync+0x8e>
#if !_FS_TINY
			if (fp->flag & FA_DIRTY) {	/* Write-back cached data if needed */
1a001f9e:	f012 0f80 	tst.w	r2, #128	; 0x80
1a001fa2:	d00c      	beq.n	1a001fbe <f_sync+0x3a>
				if (disk_write(fs->drv, fp->buf, fp->sect, 1) != RES_OK) LEAVE_FF(fs, FR_DISK_ERR);
1a001fa4:	9b01      	ldr	r3, [sp, #4]
1a001fa6:	7858      	ldrb	r0, [r3, #1]
1a001fa8:	f104 0128 	add.w	r1, r4, #40	; 0x28
1a001fac:	69e2      	ldr	r2, [r4, #28]
1a001fae:	2301      	movs	r3, #1
1a001fb0:	f000 fa52 	bl	1a002458 <disk_write>
1a001fb4:	bb78      	cbnz	r0, 1a002016 <f_sync+0x92>
				fp->flag &= ~FA_DIRTY;
1a001fb6:	7c23      	ldrb	r3, [r4, #16]
1a001fb8:	f003 037f 	and.w	r3, r3, #127	; 0x7f
1a001fbc:	7423      	strb	r3, [r4, #16]
					FREE_NAMBUF();
				}
			} else
#endif
			{
				res = move_window(fs, fp->dir_sect);
1a001fbe:	9801      	ldr	r0, [sp, #4]
1a001fc0:	6a21      	ldr	r1, [r4, #32]
1a001fc2:	f7ff f8b7 	bl	1a001134 <move_window>
				if (res == FR_OK) {
1a001fc6:	4603      	mov	r3, r0
1a001fc8:	bb18      	cbnz	r0, 1a002012 <f_sync+0x8e>
					dir = fp->dir_ptr;
1a001fca:	6a65      	ldr	r5, [r4, #36]	; 0x24
					dir[DIR_Attr] |= AM_ARC;						/* Set archive bit */
1a001fcc:	7aeb      	ldrb	r3, [r5, #11]
1a001fce:	f043 0320 	orr.w	r3, r3, #32
1a001fd2:	72eb      	strb	r3, [r5, #11]
					st_clust(fp->obj.fs, dir, fp->obj.sclust);		/* Update file allocation info  */
1a001fd4:	6820      	ldr	r0, [r4, #0]
1a001fd6:	4629      	mov	r1, r5
1a001fd8:	68a2      	ldr	r2, [r4, #8]
1a001fda:	f7fe ffc1 	bl	1a000f60 <st_clust>
					st_dword(dir + DIR_FileSize, (DWORD)fp->obj.objsize);	/* Update file size */
1a001fde:	f105 001c 	add.w	r0, r5, #28
1a001fe2:	68e1      	ldr	r1, [r4, #12]
1a001fe4:	f7fe ff6c 	bl	1a000ec0 <st_dword>
					st_dword(dir + DIR_ModTime, tm);				/* Update modified time */
1a001fe8:	f105 0016 	add.w	r0, r5, #22
1a001fec:	490b      	ldr	r1, [pc, #44]	; (1a00201c <f_sync+0x98>)
1a001fee:	f7fe ff67 	bl	1a000ec0 <st_dword>
					st_word(dir + DIR_LstAccDate, 0);
1a001ff2:	f105 0012 	add.w	r0, r5, #18
1a001ff6:	2100      	movs	r1, #0
1a001ff8:	f7fe ff5e 	bl	1a000eb8 <st_word>
					fs->wflag = 1;
1a001ffc:	2201      	movs	r2, #1
1a001ffe:	9b01      	ldr	r3, [sp, #4]
1a002000:	70da      	strb	r2, [r3, #3]
					res = sync_fs(fs);					/* Restore it to the directory */
1a002002:	9801      	ldr	r0, [sp, #4]
1a002004:	f7ff fd8a 	bl	1a001b1c <sync_fs>
1a002008:	4603      	mov	r3, r0
					fp->flag &= ~FA_MODIFIED;
1a00200a:	7c22      	ldrb	r2, [r4, #16]
1a00200c:	f022 0240 	bic.w	r2, r2, #64	; 0x40
1a002010:	7422      	strb	r2, [r4, #16]
				}
			}
		}
	}

	LEAVE_FF(fs, res);
1a002012:	4618      	mov	r0, r3
1a002014:	e000      	b.n	1a002018 <f_sync+0x94>
	res = validate(fp, &fs);	/* Check validity of the object */
	if (res == FR_OK) {
		if (fp->flag & FA_MODIFIED) {	/* Is there any change to the file? */
#if !_FS_TINY
			if (fp->flag & FA_DIRTY) {	/* Write-back cached data if needed */
				if (disk_write(fs->drv, fp->buf, fp->sect, 1) != RES_OK) LEAVE_FF(fs, FR_DISK_ERR);
1a002016:	2001      	movs	r0, #1
			}
		}
	}

	LEAVE_FF(fs, res);
}
1a002018:	b003      	add	sp, #12
1a00201a:	bd30      	pop	{r4, r5, pc}
1a00201c:	48210000 	.word	0x48210000

1a002020 <f_close>:
/*-----------------------------------------------------------------------*/

FRESULT f_close (
	FIL* fp		/* Pointer to the file object to be closed */
)
{
1a002020:	b510      	push	{r4, lr}
1a002022:	b082      	sub	sp, #8
1a002024:	4604      	mov	r4, r0
	FRESULT res;
	FATFS *fs;

#if !_FS_READONLY
	res = f_sync(fp);					/* Flush cached data */
1a002026:	f7ff ffad 	bl	1a001f84 <f_sync>
	if (res == FR_OK)
1a00202a:	4603      	mov	r3, r0
1a00202c:	b938      	cbnz	r0, 1a00203e <f_close+0x1e>
#endif
	{
		res = validate(fp, &fs);	/* Lock volume */
1a00202e:	4620      	mov	r0, r4
1a002030:	a901      	add	r1, sp, #4
1a002032:	f7ff f83b 	bl	1a0010ac <validate>
		if (res == FR_OK) {
1a002036:	4603      	mov	r3, r0
1a002038:	b908      	cbnz	r0, 1a00203e <f_close+0x1e>
#if _FS_LOCK != 0
			res = dec_lock(fp->obj.lockid);	/* Decrement file open counter */
			if (res == FR_OK)
#endif
			{
				fp->obj.fs = 0;			/* Invalidate file object */
1a00203a:	2200      	movs	r2, #0
1a00203c:	6022      	str	r2, [r4, #0]
			unlock_fs(fs, FR_OK);		/* Unlock volume */
#endif
		}
	}
	return res;
}
1a00203e:	4618      	mov	r0, r3
1a002040:	b002      	add	sp, #8
1a002042:	bd10      	pop	{r4, pc}

1a002044 <chk_power>:

static
int chk_power(void)		/* Socket power state: 0=off, 1=on */
{
	return 1;
}
1a002044:	2001      	movs	r0, #1
1a002046:	4770      	bx	lr

1a002048 <SSPSend>:

static
BYTE CardType;			/* Card type flags */

static void SSPSend(uint8_t *buf, uint32_t Length)
{
1a002048:	b500      	push	{lr}
1a00204a:	b087      	sub	sp, #28
    Chip_SSP_DATA_SETUP_T xferConfig;

	xferConfig.tx_data = buf;
1a00204c:	9001      	str	r0, [sp, #4]
	xferConfig.tx_cnt  = 0;
1a00204e:	2300      	movs	r3, #0
1a002050:	9302      	str	r3, [sp, #8]
	xferConfig.rx_data = NULL;
1a002052:	9303      	str	r3, [sp, #12]
	xferConfig.rx_cnt  = 0;
1a002054:	9304      	str	r3, [sp, #16]
	xferConfig.length  = Length;
1a002056:	9105      	str	r1, [sp, #20]

	Chip_SSP_RWFrames_Blocking(LPC_SSP1, &xferConfig);
1a002058:	4803      	ldr	r0, [pc, #12]	; (1a002068 <SSPSend+0x20>)
1a00205a:	a901      	add	r1, sp, #4
1a00205c:	f002 f9ac 	bl	1a0043b8 <Chip_SSP_RWFrames_Blocking>
}
1a002060:	b007      	add	sp, #28
1a002062:	f85d fb04 	ldr.w	pc, [sp], #4
1a002066:	bf00      	nop
1a002068:	400c5000 	.word	0x400c5000

1a00206c <xmit_spi>:
/* Transmit a byte to MMC via SPI  (Platform dependent)                  */
/*-----------------------------------------------------------------------*/

//#define xmit_spi(dat) (SSPSend((uint8_t*)&(dat), 1))
static void xmit_spi(BYTE dat)
{
1a00206c:	b500      	push	{lr}
1a00206e:	b083      	sub	sp, #12
1a002070:	ab02      	add	r3, sp, #8
1a002072:	f803 0d01 	strb.w	r0, [r3, #-1]!
    SSPSend((uint8_t*) &dat, 1);
1a002076:	4618      	mov	r0, r3
1a002078:	2101      	movs	r1, #1
1a00207a:	f7ff ffe5 	bl	1a002048 <SSPSend>
}
1a00207e:	b003      	add	sp, #12
1a002080:	f85d fb04 	ldr.w	pc, [sp], #4

1a002084 <SSPReceive>:

	Chip_SSP_RWFrames_Blocking(LPC_SSP1, &xferConfig);
}

void SSPReceive( uint8_t *buf, uint32_t Length )
{
1a002084:	b500      	push	{lr}
1a002086:	b087      	sub	sp, #28
    Chip_SSP_DATA_SETUP_T xferConfig;

	xferConfig.tx_data = NULL;
1a002088:	2300      	movs	r3, #0
1a00208a:	9301      	str	r3, [sp, #4]
	xferConfig.tx_cnt  = 0;
1a00208c:	9302      	str	r3, [sp, #8]
	xferConfig.rx_data = buf;
1a00208e:	9003      	str	r0, [sp, #12]
	xferConfig.rx_cnt  = 0;
1a002090:	9304      	str	r3, [sp, #16]
	xferConfig.length  = Length;
1a002092:	9105      	str	r1, [sp, #20]

	Chip_SSP_RWFrames_Blocking(LPC_SSP1, &xferConfig);
1a002094:	4803      	ldr	r0, [pc, #12]	; (1a0020a4 <SSPReceive+0x20>)
1a002096:	a901      	add	r1, sp, #4
1a002098:	f002 f98e 	bl	1a0043b8 <Chip_SSP_RWFrames_Blocking>
}
1a00209c:	b007      	add	sp, #28
1a00209e:	f85d fb04 	ldr.w	pc, [sp], #4
1a0020a2:	bf00      	nop
1a0020a4:	400c5000 	.word	0x400c5000

1a0020a8 <rcvr_spi>:
/* Receive a byte from MMC via SPI  (Platform dependent)                 */
/*-----------------------------------------------------------------------*/

static
BYTE rcvr_spi (void)
{
1a0020a8:	b500      	push	{lr}
1a0020aa:	b083      	sub	sp, #12
    BYTE data = 0;
1a0020ac:	a802      	add	r0, sp, #8
1a0020ae:	2300      	movs	r3, #0
1a0020b0:	f800 3d01 	strb.w	r3, [r0, #-1]!

    SSPReceive(&data, 1);
1a0020b4:	2101      	movs	r1, #1
1a0020b6:	f7ff ffe5 	bl	1a002084 <SSPReceive>

    return data;
}
1a0020ba:	f89d 0007 	ldrb.w	r0, [sp, #7]
1a0020be:	b003      	add	sp, #12
1a0020c0:	f85d fb04 	ldr.w	pc, [sp], #4

1a0020c4 <wait_ready>:
/* Wait for card ready                                                   */
/*-----------------------------------------------------------------------*/

static
BYTE wait_ready (void)
{
1a0020c4:	b508      	push	{r3, lr}
	BYTE res;


	Timer2 = 50;	/* Wait for ready in timeout of 500ms */
1a0020c6:	2232      	movs	r2, #50	; 0x32
1a0020c8:	4b06      	ldr	r3, [pc, #24]	; (1a0020e4 <wait_ready+0x20>)
1a0020ca:	701a      	strb	r2, [r3, #0]
	rcvr_spi();
1a0020cc:	f7ff ffec 	bl	1a0020a8 <rcvr_spi>
	do
		res = rcvr_spi();
1a0020d0:	f7ff ffea 	bl	1a0020a8 <rcvr_spi>
	while ((res != 0xFF) && Timer2);
1a0020d4:	28ff      	cmp	r0, #255	; 0xff
1a0020d6:	d004      	beq.n	1a0020e2 <wait_ready+0x1e>
1a0020d8:	4b02      	ldr	r3, [pc, #8]	; (1a0020e4 <wait_ready+0x20>)
1a0020da:	781b      	ldrb	r3, [r3, #0]
1a0020dc:	f013 0fff 	tst.w	r3, #255	; 0xff
1a0020e0:	d1f6      	bne.n	1a0020d0 <wait_ready+0xc>

	return res;
}
1a0020e2:	bd08      	pop	{r3, pc}
1a0020e4:	10000531 	.word	0x10000531

1a0020e8 <deselect>:
/* Deselect the card and release SPI bus                                 */
/*-----------------------------------------------------------------------*/

static
void deselect (void)
{
1a0020e8:	b508      	push	{r3, lr}
 * @note	Any bit set as a '0' will not have it's state changed. This only
 * applies to ports configured as an output.
 */
STATIC INLINE void Chip_GPIO_SetPinOutHigh(LPC_GPIO_T *pGPIO, uint8_t port, uint8_t pin)
{
	pGPIO->SET[port] = (1 << pin);
1a0020ea:	2101      	movs	r1, #1
1a0020ec:	f242 230c 	movw	r3, #8716	; 0x220c
1a0020f0:	4a02      	ldr	r2, [pc, #8]	; (1a0020fc <deselect+0x14>)
1a0020f2:	50d1      	str	r1, [r2, r3]
	CS_HIGH();
	rcvr_spi();
1a0020f4:	f7ff ffd8 	bl	1a0020a8 <rcvr_spi>
1a0020f8:	bd08      	pop	{r3, pc}
1a0020fa:	bf00      	nop
1a0020fc:	400f4000 	.word	0x400f4000

1a002100 <select_>:
/* Select the card and wait ready                                        */
/*-----------------------------------------------------------------------*/

static
BOOL select_ (void)	/* TRUE:Successful, FALSE:Timeout */
{
1a002100:	b508      	push	{r3, lr}
 * @note	Any bit set as a '0' will not have it's state changed. This only
 * applies to ports configured as an output.
 */
STATIC INLINE void Chip_GPIO_SetPinOutLow(LPC_GPIO_T *pGPIO, uint8_t port, uint8_t pin)
{
	pGPIO->CLR[port] = (1 << pin);
1a002102:	2101      	movs	r1, #1
1a002104:	f242 238c 	movw	r3, #8844	; 0x228c
1a002108:	4a05      	ldr	r2, [pc, #20]	; (1a002120 <select_+0x20>)
1a00210a:	50d1      	str	r1, [r2, r3]
	CS_LOW();
	if (wait_ready() != 0xFF) {
1a00210c:	f7ff ffda 	bl	1a0020c4 <wait_ready>
1a002110:	28ff      	cmp	r0, #255	; 0xff
1a002112:	d003      	beq.n	1a00211c <select_+0x1c>
		deselect();
1a002114:	f7ff ffe8 	bl	1a0020e8 <deselect>
		return FALSE;
1a002118:	2000      	movs	r0, #0
1a00211a:	bd08      	pop	{r3, pc}
	}
	return TRUE;
1a00211c:	2001      	movs	r0, #1
}
1a00211e:	bd08      	pop	{r3, pc}
1a002120:	400f4000 	.word	0x400f4000

1a002124 <send_cmd>:
static
BYTE send_cmd (
	BYTE cmd,		/* Command byte */
	DWORD arg		/* Argument */
)
{
1a002124:	b538      	push	{r3, r4, r5, lr}
1a002126:	4604      	mov	r4, r0
1a002128:	460d      	mov	r5, r1
	BYTE n, res;


	if (cmd & 0x80) {	/* ACMD<n> is the command sequense of CMD55-CMD<n> */
1a00212a:	f010 0f80 	tst.w	r0, #128	; 0x80
1a00212e:	d007      	beq.n	1a002140 <send_cmd+0x1c>
		cmd &= 0x7F;
1a002130:	f000 047f 	and.w	r4, r0, #127	; 0x7f
		res = send_cmd(CMD55, 0);
1a002134:	2077      	movs	r0, #119	; 0x77
1a002136:	2100      	movs	r1, #0
1a002138:	f7ff fff4 	bl	1a002124 <send_cmd>
		if (res > 1) return res;
1a00213c:	2801      	cmp	r0, #1
1a00213e:	d82f      	bhi.n	1a0021a0 <send_cmd+0x7c>
	}

	/* Select the card and wait for ready */
	deselect();
1a002140:	f7ff ffd2 	bl	1a0020e8 <deselect>
	if (!select_()) return 0xFF;
1a002144:	f7ff ffdc 	bl	1a002100 <select_>
1a002148:	b348      	cbz	r0, 1a00219e <send_cmd+0x7a>

	/* Send command packet */
	xmit_spi(cmd);						/* Start + Command index */
1a00214a:	4620      	mov	r0, r4
1a00214c:	f7ff ff8e 	bl	1a00206c <xmit_spi>
	xmit_spi((BYTE)(arg >> 24));		/* Argument[31..24] */
1a002150:	0e28      	lsrs	r0, r5, #24
1a002152:	f7ff ff8b 	bl	1a00206c <xmit_spi>
	xmit_spi((BYTE)(arg >> 16));		/* Argument[23..16] */
1a002156:	f3c5 4007 	ubfx	r0, r5, #16, #8
1a00215a:	f7ff ff87 	bl	1a00206c <xmit_spi>
	xmit_spi((BYTE)(arg >> 8));			/* Argument[15..8] */
1a00215e:	f3c5 2007 	ubfx	r0, r5, #8, #8
1a002162:	f7ff ff83 	bl	1a00206c <xmit_spi>
	xmit_spi((BYTE)arg);				/* Argument[7..0] */
1a002166:	b2e8      	uxtb	r0, r5
1a002168:	f7ff ff80 	bl	1a00206c <xmit_spi>
	n = 0x01;							/* Dummy CRC + Stop */
	if (cmd == CMD0_) n = 0x95;			/* Valid CRC for CMD0_(0) */
1a00216c:	2c40      	cmp	r4, #64	; 0x40
1a00216e:	d001      	beq.n	1a002174 <send_cmd+0x50>
	xmit_spi(cmd);						/* Start + Command index */
	xmit_spi((BYTE)(arg >> 24));		/* Argument[31..24] */
	xmit_spi((BYTE)(arg >> 16));		/* Argument[23..16] */
	xmit_spi((BYTE)(arg >> 8));			/* Argument[15..8] */
	xmit_spi((BYTE)arg);				/* Argument[7..0] */
	n = 0x01;							/* Dummy CRC + Stop */
1a002170:	2001      	movs	r0, #1
1a002172:	e000      	b.n	1a002176 <send_cmd+0x52>
	if (cmd == CMD0_) n = 0x95;			/* Valid CRC for CMD0_(0) */
1a002174:	2095      	movs	r0, #149	; 0x95
	if (cmd == CMD8) n = 0x87;			/* Valid CRC for CMD8(0x1AA) */
1a002176:	2c48      	cmp	r4, #72	; 0x48
1a002178:	d100      	bne.n	1a00217c <send_cmd+0x58>
1a00217a:	2087      	movs	r0, #135	; 0x87
	xmit_spi(n);
1a00217c:	f7ff ff76 	bl	1a00206c <xmit_spi>

	/* Receive command response */
	if (cmd == CMD12) rcvr_spi();		/* Skip a stuff byte when stop reading */
1a002180:	2c4c      	cmp	r4, #76	; 0x4c
1a002182:	d101      	bne.n	1a002188 <send_cmd+0x64>
1a002184:	f7ff ff90 	bl	1a0020a8 <rcvr_spi>
	xmit_spi((BYTE)(arg >> 16));		/* Argument[23..16] */
	xmit_spi((BYTE)(arg >> 8));			/* Argument[15..8] */
	xmit_spi((BYTE)arg);				/* Argument[7..0] */
	n = 0x01;							/* Dummy CRC + Stop */
	if (cmd == CMD0_) n = 0x95;			/* Valid CRC for CMD0_(0) */
	if (cmd == CMD8) n = 0x87;			/* Valid CRC for CMD8(0x1AA) */
1a002188:	240a      	movs	r4, #10

	/* Receive command response */
	if (cmd == CMD12) rcvr_spi();		/* Skip a stuff byte when stop reading */
	n = 10;								/* Wait for a valid response in timeout of 10 attempts */
	do
		res = rcvr_spi();
1a00218a:	f7ff ff8d 	bl	1a0020a8 <rcvr_spi>
	while ((res & 0x80) && --n);
1a00218e:	f010 0f80 	tst.w	r0, #128	; 0x80
1a002192:	d005      	beq.n	1a0021a0 <send_cmd+0x7c>
1a002194:	1e63      	subs	r3, r4, #1
1a002196:	f013 04ff 	ands.w	r4, r3, #255	; 0xff
1a00219a:	d1f6      	bne.n	1a00218a <send_cmd+0x66>

	return res;			/* Return with the response value */
1a00219c:	bd38      	pop	{r3, r4, r5, pc}
		if (res > 1) return res;
	}

	/* Select the card and wait for ready */
	deselect();
	if (!select_()) return 0xFF;
1a00219e:	20ff      	movs	r0, #255	; 0xff
	do
		res = rcvr_spi();
	while ((res & 0x80) && --n);

	return res;			/* Return with the response value */
}
1a0021a0:	bd38      	pop	{r3, r4, r5, pc}
1a0021a2:	bf00      	nop

1a0021a4 <xmit_datablock>:
static
BOOL xmit_datablock (
	const BYTE *buff,	/* 512 byte data block to be transmitted */
	BYTE token			/* Data/Stop token */
)
{
1a0021a4:	b570      	push	{r4, r5, r6, lr}
1a0021a6:	4606      	mov	r6, r0
1a0021a8:	460c      	mov	r4, r1
	BYTE resp, wc;


	if (wait_ready() != 0xFF) return FALSE;
1a0021aa:	f7ff ff8b 	bl	1a0020c4 <wait_ready>
1a0021ae:	28ff      	cmp	r0, #255	; 0xff
1a0021b0:	d120      	bne.n	1a0021f4 <xmit_datablock+0x50>

	xmit_spi(token);					/* Xmit data token */
1a0021b2:	4620      	mov	r0, r4
1a0021b4:	f7ff ff5a 	bl	1a00206c <xmit_spi>
	if (token != 0xFD) {	/* Is data token */
1a0021b8:	2cfd      	cmp	r4, #253	; 0xfd
1a0021ba:	d01d      	beq.n	1a0021f8 <xmit_datablock+0x54>
1a0021bc:	2400      	movs	r4, #0
		wc = 0;
		do {							/* Xmit the 512 byte data block to MMC */
			xmit_spi(*buff++);
1a0021be:	4635      	mov	r5, r6
1a0021c0:	f815 0b02 	ldrb.w	r0, [r5], #2
1a0021c4:	f7ff ff52 	bl	1a00206c <xmit_spi>
			xmit_spi(*buff++);
1a0021c8:	7870      	ldrb	r0, [r6, #1]
1a0021ca:	f7ff ff4f 	bl	1a00206c <xmit_spi>
		} while (--wc);
1a0021ce:	1e63      	subs	r3, r4, #1
	xmit_spi(token);					/* Xmit data token */
	if (token != 0xFD) {	/* Is data token */
		wc = 0;
		do {							/* Xmit the 512 byte data block to MMC */
			xmit_spi(*buff++);
			xmit_spi(*buff++);
1a0021d0:	462e      	mov	r6, r5
		} while (--wc);
1a0021d2:	f013 04ff 	ands.w	r4, r3, #255	; 0xff
1a0021d6:	d1f2      	bne.n	1a0021be <xmit_datablock+0x1a>
		xmit_spi(0xFF);					/* CRC (Dummy) */
1a0021d8:	20ff      	movs	r0, #255	; 0xff
1a0021da:	f7ff ff47 	bl	1a00206c <xmit_spi>
		xmit_spi(0xFF);
1a0021de:	20ff      	movs	r0, #255	; 0xff
1a0021e0:	f7ff ff44 	bl	1a00206c <xmit_spi>
		resp = rcvr_spi();				/* Reveive data response */
1a0021e4:	f7ff ff60 	bl	1a0020a8 <rcvr_spi>
		if ((resp & 0x1F) != 0x05)		/* If not accepted, return with error */
1a0021e8:	f000 001f 	and.w	r0, r0, #31
1a0021ec:	2805      	cmp	r0, #5
1a0021ee:	d005      	beq.n	1a0021fc <xmit_datablock+0x58>
			return FALSE;
1a0021f0:	2000      	movs	r0, #0
1a0021f2:	bd70      	pop	{r4, r5, r6, pc}
)
{
	BYTE resp, wc;


	if (wait_ready() != 0xFF) return FALSE;
1a0021f4:	2000      	movs	r0, #0
1a0021f6:	bd70      	pop	{r4, r5, r6, pc}
		resp = rcvr_spi();				/* Reveive data response */
		if ((resp & 0x1F) != 0x05)		/* If not accepted, return with error */
			return FALSE;
	}

	return TRUE;
1a0021f8:	2001      	movs	r0, #1
1a0021fa:	bd70      	pop	{r4, r5, r6, pc}
1a0021fc:	2001      	movs	r0, #1
}
1a0021fe:	bd70      	pop	{r4, r5, r6, pc}

1a002200 <rcvr_datablock>:
static
BOOL rcvr_datablock (
	BYTE *buff,			/* Data buffer to store received data */
	UINT btr			/* Byte count (must be multiple of 4) */
)
{
1a002200:	b5f8      	push	{r3, r4, r5, r6, r7, lr}
1a002202:	4604      	mov	r4, r0
1a002204:	460e      	mov	r6, r1
	BYTE token;


	Timer1 = 20;
1a002206:	2214      	movs	r2, #20
1a002208:	4b15      	ldr	r3, [pc, #84]	; (1a002260 <rcvr_datablock+0x60>)
1a00220a:	701a      	strb	r2, [r3, #0]
	do {							/* Wait for data packet in timeout of 200ms */
		token = rcvr_spi();
1a00220c:	f7ff ff4c 	bl	1a0020a8 <rcvr_spi>
	} while ((token == 0xFF) && Timer1);
1a002210:	28ff      	cmp	r0, #255	; 0xff
1a002212:	d104      	bne.n	1a00221e <rcvr_datablock+0x1e>
1a002214:	4b12      	ldr	r3, [pc, #72]	; (1a002260 <rcvr_datablock+0x60>)
1a002216:	781b      	ldrb	r3, [r3, #0]
1a002218:	f013 0fff 	tst.w	r3, #255	; 0xff
1a00221c:	d1f6      	bne.n	1a00220c <rcvr_datablock+0xc>
	if(token != 0xFE) return FALSE;	/* If not valid data token, retutn with error */
1a00221e:	28fe      	cmp	r0, #254	; 0xfe
1a002220:	d11b      	bne.n	1a00225a <rcvr_datablock+0x5a>

	do {							/* Receive the data block into buffer */
		rcvr_spi_m(buff++);
1a002222:	1c65      	adds	r5, r4, #1
1a002224:	4620      	mov	r0, r4
1a002226:	2101      	movs	r1, #1
1a002228:	f7ff ff2c 	bl	1a002084 <SSPReceive>
		rcvr_spi_m(buff++);
1a00222c:	1ca7      	adds	r7, r4, #2
1a00222e:	4628      	mov	r0, r5
1a002230:	2101      	movs	r1, #1
1a002232:	f7ff ff27 	bl	1a002084 <SSPReceive>
		rcvr_spi_m(buff++);
1a002236:	1ce5      	adds	r5, r4, #3
1a002238:	4638      	mov	r0, r7
1a00223a:	2101      	movs	r1, #1
1a00223c:	f7ff ff22 	bl	1a002084 <SSPReceive>
		rcvr_spi_m(buff++);
1a002240:	4628      	mov	r0, r5
1a002242:	3404      	adds	r4, #4
1a002244:	2101      	movs	r1, #1
1a002246:	f7ff ff1d 	bl	1a002084 <SSPReceive>
	} while (btr -= 4);
1a00224a:	3e04      	subs	r6, #4
1a00224c:	d1e9      	bne.n	1a002222 <rcvr_datablock+0x22>
	rcvr_spi();						/* Discard CRC */
1a00224e:	f7ff ff2b 	bl	1a0020a8 <rcvr_spi>
	rcvr_spi();
1a002252:	f7ff ff29 	bl	1a0020a8 <rcvr_spi>

	return TRUE;					/* Return with success */
1a002256:	2001      	movs	r0, #1
1a002258:	bdf8      	pop	{r3, r4, r5, r6, r7, pc}

	Timer1 = 20;
	do {							/* Wait for data packet in timeout of 200ms */
		token = rcvr_spi();
	} while ((token == 0xFF) && Timer1);
	if(token != 0xFE) return FALSE;	/* If not valid data token, retutn with error */
1a00225a:	2000      	movs	r0, #0
	} while (btr -= 4);
	rcvr_spi();						/* Discard CRC */
	rcvr_spi();

	return TRUE;					/* Return with success */
}
1a00225c:	bdf8      	pop	{r3, r4, r5, r6, r7, pc}
1a00225e:	bf00      	nop
1a002260:	10000530 	.word	0x10000530

1a002264 <disk_initialize>:
	BYTE drv		/* Physical drive nmuber (0) */
)
{
	BYTE n, cmd, ty, ocr[4];

	if (drv) return STA_NOINIT;			/* Supports only single drive */
1a002264:	2800      	cmp	r0, #0
1a002266:	f040 809e 	bne.w	1a0023a6 <disk_initialize+0x142>
	if (Stat & STA_NODISK) return Stat;	/* No card in the socket */
1a00226a:	4b51      	ldr	r3, [pc, #324]	; (1a0023b0 <disk_initialize+0x14c>)
1a00226c:	781b      	ldrb	r3, [r3, #0]
1a00226e:	f013 0f02 	tst.w	r3, #2
1a002272:	d008      	beq.n	1a002286 <disk_initialize+0x22>
1a002274:	4b4e      	ldr	r3, [pc, #312]	; (1a0023b0 <disk_initialize+0x14c>)
1a002276:	7818      	ldrb	r0, [r3, #0]
1a002278:	b2c0      	uxtb	r0, r0
1a00227a:	4770      	bx	lr

	power_on();							/* Force socket power on */
	FCLK_SLOW();
	for (n = 10; n; n--) rcvr_spi();	/* 80 dummy clocks */
1a00227c:	f7ff ff14 	bl	1a0020a8 <rcvr_spi>
1a002280:	3c01      	subs	r4, #1
1a002282:	b2e4      	uxtb	r4, r4
1a002284:	e002      	b.n	1a00228c <disk_initialize+0x28>
/*-----------------------------------------------------------------------*/

DSTATUS disk_initialize (
	BYTE drv		/* Physical drive nmuber (0) */
)
{
1a002286:	b530      	push	{r4, r5, lr}
1a002288:	b083      	sub	sp, #12
1a00228a:	240a      	movs	r4, #10
	if (drv) return STA_NOINIT;			/* Supports only single drive */
	if (Stat & STA_NODISK) return Stat;	/* No card in the socket */

	power_on();							/* Force socket power on */
	FCLK_SLOW();
	for (n = 10; n; n--) rcvr_spi();	/* 80 dummy clocks */
1a00228c:	2c00      	cmp	r4, #0
1a00228e:	d1f5      	bne.n	1a00227c <disk_initialize+0x18>

	ty = 0;
	if (send_cmd(CMD0_, 0) == 1) {			/* Enter Idle state */
1a002290:	2040      	movs	r0, #64	; 0x40
1a002292:	2100      	movs	r1, #0
1a002294:	f7ff ff46 	bl	1a002124 <send_cmd>
1a002298:	2801      	cmp	r0, #1
1a00229a:	d16b      	bne.n	1a002374 <disk_initialize+0x110>
		Timer1 = 100;						/* Initialization timeout of 1000 msec */
1a00229c:	2264      	movs	r2, #100	; 0x64
1a00229e:	4b45      	ldr	r3, [pc, #276]	; (1a0023b4 <disk_initialize+0x150>)
1a0022a0:	701a      	strb	r2, [r3, #0]
		if (send_cmd(CMD8, 0x1AA) == 1) {	/* SDHC */
1a0022a2:	2048      	movs	r0, #72	; 0x48
1a0022a4:	f44f 71d5 	mov.w	r1, #426	; 0x1aa
1a0022a8:	f7ff ff3c 	bl	1a002124 <send_cmd>
1a0022ac:	2801      	cmp	r0, #1
1a0022ae:	d13f      	bne.n	1a002330 <disk_initialize+0xcc>
1a0022b0:	e008      	b.n	1a0022c4 <disk_initialize+0x60>
			for (n = 0; n < 4; n++) ocr[n] = rcvr_spi();		/* Get trailing return value of R7 resp */
1a0022b2:	f7ff fef9 	bl	1a0020a8 <rcvr_spi>
1a0022b6:	ab02      	add	r3, sp, #8
1a0022b8:	442b      	add	r3, r5
1a0022ba:	f803 0c04 	strb.w	r0, [r3, #-4]
1a0022be:	3501      	adds	r5, #1
1a0022c0:	b2ed      	uxtb	r5, r5
1a0022c2:	e000      	b.n	1a0022c6 <disk_initialize+0x62>
1a0022c4:	4625      	mov	r5, r4
1a0022c6:	2d03      	cmp	r5, #3
1a0022c8:	d9f3      	bls.n	1a0022b2 <disk_initialize+0x4e>
			if (ocr[2] == 0x01 && ocr[3] == 0xAA) {				/* The card can work at vdd range of 2.7-3.6V */
1a0022ca:	f89d 3006 	ldrb.w	r3, [sp, #6]
1a0022ce:	2b01      	cmp	r3, #1
1a0022d0:	d152      	bne.n	1a002378 <disk_initialize+0x114>
1a0022d2:	f89d 3007 	ldrb.w	r3, [sp, #7]
1a0022d6:	2baa      	cmp	r3, #170	; 0xaa
1a0022d8:	d150      	bne.n	1a00237c <disk_initialize+0x118>
				while (Timer1 && send_cmd(ACMD41, 1UL << 30));	/* Wait for leaving idle state (ACMD41 with HCS bit) */
1a0022da:	4b36      	ldr	r3, [pc, #216]	; (1a0023b4 <disk_initialize+0x150>)
1a0022dc:	781b      	ldrb	r3, [r3, #0]
1a0022de:	f013 0fff 	tst.w	r3, #255	; 0xff
1a0022e2:	d006      	beq.n	1a0022f2 <disk_initialize+0x8e>
1a0022e4:	20e9      	movs	r0, #233	; 0xe9
1a0022e6:	f04f 4180 	mov.w	r1, #1073741824	; 0x40000000
1a0022ea:	f7ff ff1b 	bl	1a002124 <send_cmd>
1a0022ee:	2800      	cmp	r0, #0
1a0022f0:	d1f3      	bne.n	1a0022da <disk_initialize+0x76>
				if (Timer1 && send_cmd(CMD58, 0) == 0) {		/* Check CCS bit in the OCR */
1a0022f2:	4b30      	ldr	r3, [pc, #192]	; (1a0023b4 <disk_initialize+0x150>)
1a0022f4:	781b      	ldrb	r3, [r3, #0]
1a0022f6:	f013 0fff 	tst.w	r3, #255	; 0xff
1a0022fa:	d041      	beq.n	1a002380 <disk_initialize+0x11c>
1a0022fc:	207a      	movs	r0, #122	; 0x7a
1a0022fe:	2100      	movs	r1, #0
1a002300:	f7ff ff10 	bl	1a002124 <send_cmd>
1a002304:	b148      	cbz	r0, 1a00231a <disk_initialize+0xb6>

	power_on();							/* Force socket power on */
	FCLK_SLOW();
	for (n = 10; n; n--) rcvr_spi();	/* 80 dummy clocks */

	ty = 0;
1a002306:	2400      	movs	r4, #0
1a002308:	e03f      	b.n	1a00238a <disk_initialize+0x126>
		if (send_cmd(CMD8, 0x1AA) == 1) {	/* SDHC */
			for (n = 0; n < 4; n++) ocr[n] = rcvr_spi();		/* Get trailing return value of R7 resp */
			if (ocr[2] == 0x01 && ocr[3] == 0xAA) {				/* The card can work at vdd range of 2.7-3.6V */
				while (Timer1 && send_cmd(ACMD41, 1UL << 30));	/* Wait for leaving idle state (ACMD41 with HCS bit) */
				if (Timer1 && send_cmd(CMD58, 0) == 0) {		/* Check CCS bit in the OCR */
					for (n = 0; n < 4; n++) ocr[n] = rcvr_spi();
1a00230a:	f7ff fecd 	bl	1a0020a8 <rcvr_spi>
1a00230e:	ab02      	add	r3, sp, #8
1a002310:	4423      	add	r3, r4
1a002312:	f803 0c04 	strb.w	r0, [r3, #-4]
1a002316:	3401      	adds	r4, #1
1a002318:	b2e4      	uxtb	r4, r4
1a00231a:	2c03      	cmp	r4, #3
1a00231c:	d9f5      	bls.n	1a00230a <disk_initialize+0xa6>
					ty = (ocr[0] & 0x40) ? CT_SD2 | CT_BLOCK : CT_SD2;	/* SDv2 */
1a00231e:	f89d 3004 	ldrb.w	r3, [sp, #4]
1a002322:	f013 0f40 	tst.w	r3, #64	; 0x40
1a002326:	d001      	beq.n	1a00232c <disk_initialize+0xc8>
1a002328:	240c      	movs	r4, #12
1a00232a:	e02e      	b.n	1a00238a <disk_initialize+0x126>
1a00232c:	2404      	movs	r4, #4
1a00232e:	e02c      	b.n	1a00238a <disk_initialize+0x126>
				}
			}
		} else {							/* SDSC or MMC */
			if (send_cmd(ACMD41, 0) <= 1) 	{
1a002330:	20e9      	movs	r0, #233	; 0xe9
1a002332:	2100      	movs	r1, #0
1a002334:	f7ff fef6 	bl	1a002124 <send_cmd>
1a002338:	2801      	cmp	r0, #1
1a00233a:	d802      	bhi.n	1a002342 <disk_initialize+0xde>
				ty = CT_SD1; cmd = ACMD41;	/* SDv1 */
1a00233c:	2402      	movs	r4, #2
1a00233e:	25e9      	movs	r5, #233	; 0xe9
1a002340:	e001      	b.n	1a002346 <disk_initialize+0xe2>
			} else {
				ty = CT_MMC; cmd = CMD1;	/* MMCv3 */
1a002342:	2401      	movs	r4, #1
1a002344:	2541      	movs	r5, #65	; 0x41
			}
			while (Timer1 && send_cmd(cmd, 0));			/* Wait for leaving idle state */
1a002346:	4b1b      	ldr	r3, [pc, #108]	; (1a0023b4 <disk_initialize+0x150>)
1a002348:	781b      	ldrb	r3, [r3, #0]
1a00234a:	f013 0fff 	tst.w	r3, #255	; 0xff
1a00234e:	d005      	beq.n	1a00235c <disk_initialize+0xf8>
1a002350:	4628      	mov	r0, r5
1a002352:	2100      	movs	r1, #0
1a002354:	f7ff fee6 	bl	1a002124 <send_cmd>
1a002358:	2800      	cmp	r0, #0
1a00235a:	d1f4      	bne.n	1a002346 <disk_initialize+0xe2>
			if (!Timer1 || send_cmd(CMD16, 512) != 0)	/* Set R/W block length to 512 */
1a00235c:	4b15      	ldr	r3, [pc, #84]	; (1a0023b4 <disk_initialize+0x150>)
1a00235e:	781b      	ldrb	r3, [r3, #0]
1a002360:	f013 0fff 	tst.w	r3, #255	; 0xff
1a002364:	d00e      	beq.n	1a002384 <disk_initialize+0x120>
1a002366:	2050      	movs	r0, #80	; 0x50
1a002368:	f44f 7100 	mov.w	r1, #512	; 0x200
1a00236c:	f7ff feda 	bl	1a002124 <send_cmd>
1a002370:	b950      	cbnz	r0, 1a002388 <disk_initialize+0x124>
1a002372:	e00a      	b.n	1a00238a <disk_initialize+0x126>

	power_on();							/* Force socket power on */
	FCLK_SLOW();
	for (n = 10; n; n--) rcvr_spi();	/* 80 dummy clocks */

	ty = 0;
1a002374:	2400      	movs	r4, #0
1a002376:	e008      	b.n	1a00238a <disk_initialize+0x126>
1a002378:	2400      	movs	r4, #0
1a00237a:	e006      	b.n	1a00238a <disk_initialize+0x126>
1a00237c:	2400      	movs	r4, #0
1a00237e:	e004      	b.n	1a00238a <disk_initialize+0x126>
1a002380:	2400      	movs	r4, #0
1a002382:	e002      	b.n	1a00238a <disk_initialize+0x126>
			} else {
				ty = CT_MMC; cmd = CMD1;	/* MMCv3 */
			}
			while (Timer1 && send_cmd(cmd, 0));			/* Wait for leaving idle state */
			if (!Timer1 || send_cmd(CMD16, 512) != 0)	/* Set R/W block length to 512 */
				ty = 0;
1a002384:	2400      	movs	r4, #0
1a002386:	e000      	b.n	1a00238a <disk_initialize+0x126>
1a002388:	2400      	movs	r4, #0
		}
	}
	CardType = ty;
1a00238a:	4b0b      	ldr	r3, [pc, #44]	; (1a0023b8 <disk_initialize+0x154>)
1a00238c:	701c      	strb	r4, [r3, #0]
	deselect();
1a00238e:	f7ff feab 	bl	1a0020e8 <deselect>

	if (ty) {			/* Initialization succeded */
1a002392:	b124      	cbz	r4, 1a00239e <disk_initialize+0x13a>
		Stat &= ~STA_NOINIT;		/* Clear STA_NOINIT */
1a002394:	4a06      	ldr	r2, [pc, #24]	; (1a0023b0 <disk_initialize+0x14c>)
1a002396:	7813      	ldrb	r3, [r2, #0]
1a002398:	f003 03fe 	and.w	r3, r3, #254	; 0xfe
1a00239c:	7013      	strb	r3, [r2, #0]
		FCLK_FAST();
	} else {			/* Initialization failed */
		power_off();
	}

	return Stat;
1a00239e:	4b04      	ldr	r3, [pc, #16]	; (1a0023b0 <disk_initialize+0x14c>)
1a0023a0:	7818      	ldrb	r0, [r3, #0]
1a0023a2:	b2c0      	uxtb	r0, r0
1a0023a4:	e001      	b.n	1a0023aa <disk_initialize+0x146>
	BYTE drv		/* Physical drive nmuber (0) */
)
{
	BYTE n, cmd, ty, ocr[4];

	if (drv) return STA_NOINIT;			/* Supports only single drive */
1a0023a6:	2001      	movs	r0, #1
1a0023a8:	4770      	bx	lr
	} else {			/* Initialization failed */
		power_off();
	}

	return Stat;
}
1a0023aa:	b003      	add	sp, #12
1a0023ac:	bd30      	pop	{r4, r5, pc}
1a0023ae:	bf00      	nop
1a0023b0:	10000009 	.word	0x10000009
1a0023b4:	10000530 	.word	0x10000530
1a0023b8:	10000532 	.word	0x10000532

1a0023bc <disk_status>:

DSTATUS disk_status (
	BYTE drv		/* Physical drive nmuber (0) */
)
{
	if (drv) return STA_NOINIT;		/* Supports only single drive */
1a0023bc:	b918      	cbnz	r0, 1a0023c6 <disk_status+0xa>
	return Stat;
1a0023be:	4b03      	ldr	r3, [pc, #12]	; (1a0023cc <disk_status+0x10>)
1a0023c0:	7818      	ldrb	r0, [r3, #0]
1a0023c2:	b2c0      	uxtb	r0, r0
1a0023c4:	4770      	bx	lr

DSTATUS disk_status (
	BYTE drv		/* Physical drive nmuber (0) */
)
{
	if (drv) return STA_NOINIT;		/* Supports only single drive */
1a0023c6:	2001      	movs	r0, #1
	return Stat;
}
1a0023c8:	4770      	bx	lr
1a0023ca:	bf00      	nop
1a0023cc:	10000009 	.word	0x10000009

1a0023d0 <disk_read>:
	BYTE *buff,			/* Pointer to the data buffer to store read data */
	DWORD sector,		/* Start sector number (LBA) */
	UINT count			/* Sector count (1..255) */
)
{
	if (drv || !count) return RES_PARERR;
1a0023d0:	bbb8      	cbnz	r0, 1a002442 <disk_read+0x72>
	BYTE drv,			/* Physical drive nmuber (0) */
	BYTE *buff,			/* Pointer to the data buffer to store read data */
	DWORD sector,		/* Start sector number (LBA) */
	UINT count			/* Sector count (1..255) */
)
{
1a0023d2:	b538      	push	{r3, r4, r5, lr}
1a0023d4:	460d      	mov	r5, r1
1a0023d6:	461c      	mov	r4, r3
	if (drv || !count) return RES_PARERR;
1a0023d8:	b3ab      	cbz	r3, 1a002446 <disk_read+0x76>
	if (Stat & STA_NOINIT) return RES_NOTRDY;
1a0023da:	4b1d      	ldr	r3, [pc, #116]	; (1a002450 <disk_read+0x80>)
1a0023dc:	781b      	ldrb	r3, [r3, #0]
1a0023de:	f013 0f01 	tst.w	r3, #1
1a0023e2:	d132      	bne.n	1a00244a <disk_read+0x7a>

	if (!(CardType & CT_BLOCK)) sector *= 512;	/* Convert to byte address if needed */
1a0023e4:	4b1b      	ldr	r3, [pc, #108]	; (1a002454 <disk_read+0x84>)
1a0023e6:	781b      	ldrb	r3, [r3, #0]
1a0023e8:	f013 0f08 	tst.w	r3, #8
1a0023ec:	d100      	bne.n	1a0023f0 <disk_read+0x20>
1a0023ee:	0252      	lsls	r2, r2, #9

	if (count == 1) {	/* Single block read */
1a0023f0:	2c01      	cmp	r4, #1
1a0023f2:	d10b      	bne.n	1a00240c <disk_read+0x3c>
		if ((send_cmd(CMD17, sector) == 0)	/* READ_SINGLE_BLOCK */
1a0023f4:	2051      	movs	r0, #81	; 0x51
1a0023f6:	4611      	mov	r1, r2
1a0023f8:	f7ff fe94 	bl	1a002124 <send_cmd>
1a0023fc:	b9d8      	cbnz	r0, 1a002436 <disk_read+0x66>
			&& rcvr_datablock(buff, 512))
1a0023fe:	4628      	mov	r0, r5
1a002400:	f44f 7100 	mov.w	r1, #512	; 0x200
1a002404:	f7ff fefc 	bl	1a002200 <rcvr_datablock>
1a002408:	b9a0      	cbnz	r0, 1a002434 <disk_read+0x64>
1a00240a:	e014      	b.n	1a002436 <disk_read+0x66>
			count = 0;
	}
	else {				/* Multiple block read */
		if (send_cmd(CMD18, sector) == 0) {	/* READ_MULTIPLE_BLOCK */
1a00240c:	2052      	movs	r0, #82	; 0x52
1a00240e:	4611      	mov	r1, r2
1a002410:	f7ff fe88 	bl	1a002124 <send_cmd>
1a002414:	b978      	cbnz	r0, 1a002436 <disk_read+0x66>
			do {
				if (!rcvr_datablock(buff, 512)) break;
1a002416:	4628      	mov	r0, r5
1a002418:	f44f 7100 	mov.w	r1, #512	; 0x200
1a00241c:	f7ff fef0 	bl	1a002200 <rcvr_datablock>
1a002420:	b118      	cbz	r0, 1a00242a <disk_read+0x5a>
				buff += 512;
1a002422:	f505 7500 	add.w	r5, r5, #512	; 0x200
			} while (--count);
1a002426:	3c01      	subs	r4, #1
1a002428:	d1f5      	bne.n	1a002416 <disk_read+0x46>
			send_cmd(CMD12, 0);				/* STOP_TRANSMISSION */
1a00242a:	204c      	movs	r0, #76	; 0x4c
1a00242c:	2100      	movs	r1, #0
1a00242e:	f7ff fe79 	bl	1a002124 <send_cmd>
1a002432:	e000      	b.n	1a002436 <disk_read+0x66>
	if (!(CardType & CT_BLOCK)) sector *= 512;	/* Convert to byte address if needed */

	if (count == 1) {	/* Single block read */
		if ((send_cmd(CMD17, sector) == 0)	/* READ_SINGLE_BLOCK */
			&& rcvr_datablock(buff, 512))
			count = 0;
1a002434:	2400      	movs	r4, #0
				buff += 512;
			} while (--count);
			send_cmd(CMD12, 0);				/* STOP_TRANSMISSION */
		}
	}
	deselect();
1a002436:	f7ff fe57 	bl	1a0020e8 <deselect>

	return count ? RES_ERROR : RES_OK;
1a00243a:	1c20      	adds	r0, r4, #0
1a00243c:	bf18      	it	ne
1a00243e:	2001      	movne	r0, #1
1a002440:	bd38      	pop	{r3, r4, r5, pc}
	BYTE *buff,			/* Pointer to the data buffer to store read data */
	DWORD sector,		/* Start sector number (LBA) */
	UINT count			/* Sector count (1..255) */
)
{
	if (drv || !count) return RES_PARERR;
1a002442:	2004      	movs	r0, #4
		}
	}
	deselect();

	return count ? RES_ERROR : RES_OK;
}
1a002444:	4770      	bx	lr
	BYTE *buff,			/* Pointer to the data buffer to store read data */
	DWORD sector,		/* Start sector number (LBA) */
	UINT count			/* Sector count (1..255) */
)
{
	if (drv || !count) return RES_PARERR;
1a002446:	2004      	movs	r0, #4
1a002448:	bd38      	pop	{r3, r4, r5, pc}
	if (Stat & STA_NOINIT) return RES_NOTRDY;
1a00244a:	2003      	movs	r0, #3
		}
	}
	deselect();

	return count ? RES_ERROR : RES_OK;
}
1a00244c:	bd38      	pop	{r3, r4, r5, pc}
1a00244e:	bf00      	nop
1a002450:	10000009 	.word	0x10000009
1a002454:	10000532 	.word	0x10000532

1a002458 <disk_write>:
	const BYTE *buff,	/* Pointer to the data to be written */
	DWORD sector,		/* Start sector number (LBA) */
	UINT count			/* Sector count (1..255) */
)
{
	if (drv || !count) return RES_PARERR;
1a002458:	2800      	cmp	r0, #0
1a00245a:	d146      	bne.n	1a0024ea <disk_write+0x92>
	BYTE drv,			/* Physical drive nmuber (0) */
	const BYTE *buff,	/* Pointer to the data to be written */
	DWORD sector,		/* Start sector number (LBA) */
	UINT count			/* Sector count (1..255) */
)
{
1a00245c:	b570      	push	{r4, r5, r6, lr}
1a00245e:	460d      	mov	r5, r1
1a002460:	4616      	mov	r6, r2
1a002462:	461c      	mov	r4, r3
	if (drv || !count) return RES_PARERR;
1a002464:	2b00      	cmp	r3, #0
1a002466:	d042      	beq.n	1a0024ee <disk_write+0x96>
	if (Stat & STA_NOINIT) return RES_NOTRDY;
1a002468:	4b24      	ldr	r3, [pc, #144]	; (1a0024fc <disk_write+0xa4>)
1a00246a:	781b      	ldrb	r3, [r3, #0]
1a00246c:	f013 0f01 	tst.w	r3, #1
1a002470:	d13f      	bne.n	1a0024f2 <disk_write+0x9a>
	if (Stat & STA_PROTECT) return RES_WRPRT;
1a002472:	4b22      	ldr	r3, [pc, #136]	; (1a0024fc <disk_write+0xa4>)
1a002474:	781b      	ldrb	r3, [r3, #0]
1a002476:	f013 0f04 	tst.w	r3, #4
1a00247a:	d13c      	bne.n	1a0024f6 <disk_write+0x9e>

	if (!(CardType & CT_BLOCK)) sector *= 512;	/* Convert to byte address if needed */
1a00247c:	4b20      	ldr	r3, [pc, #128]	; (1a002500 <disk_write+0xa8>)
1a00247e:	781b      	ldrb	r3, [r3, #0]
1a002480:	f013 0f08 	tst.w	r3, #8
1a002484:	d100      	bne.n	1a002488 <disk_write+0x30>
1a002486:	0256      	lsls	r6, r2, #9

	if (count == 1) {	/* Single block write */
1a002488:	2c01      	cmp	r4, #1
1a00248a:	d10a      	bne.n	1a0024a2 <disk_write+0x4a>
		if ((send_cmd(CMD24, sector) == 0)	/* WRITE_BLOCK */
1a00248c:	2058      	movs	r0, #88	; 0x58
1a00248e:	4631      	mov	r1, r6
1a002490:	f7ff fe48 	bl	1a002124 <send_cmd>
1a002494:	bb18      	cbnz	r0, 1a0024de <disk_write+0x86>
			&& xmit_datablock(buff, 0xFE))
1a002496:	4628      	mov	r0, r5
1a002498:	21fe      	movs	r1, #254	; 0xfe
1a00249a:	f7ff fe83 	bl	1a0021a4 <xmit_datablock>
1a00249e:	b9d8      	cbnz	r0, 1a0024d8 <disk_write+0x80>
1a0024a0:	e01d      	b.n	1a0024de <disk_write+0x86>
			count = 0;
	}
	else {				/* Multiple block write */
		if (CardType & CT_SDC) send_cmd(ACMD23, count);
1a0024a2:	f013 0f06 	tst.w	r3, #6
1a0024a6:	d003      	beq.n	1a0024b0 <disk_write+0x58>
1a0024a8:	20d7      	movs	r0, #215	; 0xd7
1a0024aa:	4621      	mov	r1, r4
1a0024ac:	f7ff fe3a 	bl	1a002124 <send_cmd>
		if (send_cmd(CMD25, sector) == 0) {	/* WRITE_MULTIPLE_BLOCK */
1a0024b0:	2059      	movs	r0, #89	; 0x59
1a0024b2:	4631      	mov	r1, r6
1a0024b4:	f7ff fe36 	bl	1a002124 <send_cmd>
1a0024b8:	b988      	cbnz	r0, 1a0024de <disk_write+0x86>
			do {
				if (!xmit_datablock(buff, 0xFC)) break;
1a0024ba:	4628      	mov	r0, r5
1a0024bc:	21fc      	movs	r1, #252	; 0xfc
1a0024be:	f7ff fe71 	bl	1a0021a4 <xmit_datablock>
1a0024c2:	b118      	cbz	r0, 1a0024cc <disk_write+0x74>
				buff += 512;
1a0024c4:	f505 7500 	add.w	r5, r5, #512	; 0x200
			} while (--count);
1a0024c8:	3c01      	subs	r4, #1
1a0024ca:	d1f6      	bne.n	1a0024ba <disk_write+0x62>
			if (!xmit_datablock(0, 0xFD))	/* STOP_TRAN token */
1a0024cc:	2000      	movs	r0, #0
1a0024ce:	21fd      	movs	r1, #253	; 0xfd
1a0024d0:	f7ff fe68 	bl	1a0021a4 <xmit_datablock>
1a0024d4:	b110      	cbz	r0, 1a0024dc <disk_write+0x84>
1a0024d6:	e002      	b.n	1a0024de <disk_write+0x86>
	if (!(CardType & CT_BLOCK)) sector *= 512;	/* Convert to byte address if needed */

	if (count == 1) {	/* Single block write */
		if ((send_cmd(CMD24, sector) == 0)	/* WRITE_BLOCK */
			&& xmit_datablock(buff, 0xFE))
			count = 0;
1a0024d8:	2400      	movs	r4, #0
1a0024da:	e000      	b.n	1a0024de <disk_write+0x86>
			do {
				if (!xmit_datablock(buff, 0xFC)) break;
				buff += 512;
			} while (--count);
			if (!xmit_datablock(0, 0xFD))	/* STOP_TRAN token */
				count = 1;
1a0024dc:	2401      	movs	r4, #1
		}
	}
	deselect();
1a0024de:	f7ff fe03 	bl	1a0020e8 <deselect>

	return count ? RES_ERROR : RES_OK;
1a0024e2:	1c20      	adds	r0, r4, #0
1a0024e4:	bf18      	it	ne
1a0024e6:	2001      	movne	r0, #1
1a0024e8:	bd70      	pop	{r4, r5, r6, pc}
	const BYTE *buff,	/* Pointer to the data to be written */
	DWORD sector,		/* Start sector number (LBA) */
	UINT count			/* Sector count (1..255) */
)
{
	if (drv || !count) return RES_PARERR;
1a0024ea:	2004      	movs	r0, #4
		}
	}
	deselect();

	return count ? RES_ERROR : RES_OK;
}
1a0024ec:	4770      	bx	lr
	const BYTE *buff,	/* Pointer to the data to be written */
	DWORD sector,		/* Start sector number (LBA) */
	UINT count			/* Sector count (1..255) */
)
{
	if (drv || !count) return RES_PARERR;
1a0024ee:	2004      	movs	r0, #4
1a0024f0:	bd70      	pop	{r4, r5, r6, pc}
	if (Stat & STA_NOINIT) return RES_NOTRDY;
1a0024f2:	2003      	movs	r0, #3
1a0024f4:	bd70      	pop	{r4, r5, r6, pc}
	if (Stat & STA_PROTECT) return RES_WRPRT;
1a0024f6:	2002      	movs	r0, #2
		}
	}
	deselect();

	return count ? RES_ERROR : RES_OK;
}
1a0024f8:	bd70      	pop	{r4, r5, r6, pc}
1a0024fa:	bf00      	nop
1a0024fc:	10000009 	.word	0x10000009
1a002500:	10000532 	.word	0x10000532

1a002504 <disk_ioctl>:
	DRESULT res;
	BYTE n, csd[16], *ptr = buff;
	WORD csize;


	if (drv) return RES_PARERR;
1a002504:	2800      	cmp	r0, #0
1a002506:	f040 8136 	bne.w	1a002776 <disk_ioctl+0x272>
DRESULT disk_ioctl (
	BYTE drv,		/* Physical drive nmuber (0) */
	BYTE ctrl,		/* Control code */
	void *buff		/* Buffer to send/receive control data */
)
{
1a00250a:	b570      	push	{r4, r5, r6, lr}
1a00250c:	b084      	sub	sp, #16
1a00250e:	4614      	mov	r4, r2

	if (drv) return RES_PARERR;

	res = RES_ERROR;

	if (ctrl == CTRL_POWER) {
1a002510:	2905      	cmp	r1, #5
1a002512:	d10c      	bne.n	1a00252e <disk_ioctl+0x2a>
		switch (*ptr) {
1a002514:	7813      	ldrb	r3, [r2, #0]
1a002516:	2b01      	cmp	r3, #1
1a002518:	f240 812a 	bls.w	1a002770 <disk_ioctl+0x26c>
1a00251c:	2b02      	cmp	r3, #2
1a00251e:	d001      	beq.n	1a002524 <disk_ioctl+0x20>
		case 2:		/* Sub control code == 2 (POWER_GET) */
			*(ptr+1) = (BYTE)chk_power();
			res = RES_OK;
			break;
		default :
			res = RES_PARERR;
1a002520:	2404      	movs	r4, #4
1a002522:	e126      	b.n	1a002772 <disk_ioctl+0x26e>
		case 1:		/* Sub control code == 1 (POWER_ON) */
			power_on();				/* Power on */
			res = RES_OK;
			break;
		case 2:		/* Sub control code == 2 (POWER_GET) */
			*(ptr+1) = (BYTE)chk_power();
1a002524:	f7ff fd8e 	bl	1a002044 <chk_power>
1a002528:	7060      	strb	r0, [r4, #1]
			res = RES_OK;
1a00252a:	2400      	movs	r4, #0
			break;
1a00252c:	e121      	b.n	1a002772 <disk_ioctl+0x26e>
		default :
			res = RES_PARERR;
		}
	}
	else {
		if (Stat & STA_NOINIT) return RES_NOTRDY;
1a00252e:	4b94      	ldr	r3, [pc, #592]	; (1a002780 <disk_ioctl+0x27c>)
1a002530:	781b      	ldrb	r3, [r3, #0]
1a002532:	f013 0f01 	tst.w	r3, #1
1a002536:	f040 8120 	bne.w	1a00277a <disk_ioctl+0x276>

		switch (ctrl) {
1a00253a:	290e      	cmp	r1, #14
1a00253c:	f200 80fc 	bhi.w	1a002738 <disk_ioctl+0x234>
1a002540:	e8df f011 	tbh	[pc, r1, lsl #1]
1a002544:	0018000f 	.word	0x0018000f
1a002548:	0060005b 	.word	0x0060005b
1a00254c:	00fa00fa 	.word	0x00fa00fa
1a002550:	00fa00fa 	.word	0x00fa00fa
1a002554:	00fa00fa 	.word	0x00fa00fa
1a002558:	00be00b9 	.word	0x00be00b9
1a00255c:	00d800cc 	.word	0x00d800cc
1a002560:	00ec      	.short	0x00ec
		case CTRL_SYNC :		/* Make sure that no pending write process. Do not remove this or written sector might not left updated. */
			if (select_()) {
1a002562:	f7ff fdcd 	bl	1a002100 <select_>
1a002566:	2800      	cmp	r0, #0
1a002568:	f000 80e8 	beq.w	1a00273c <disk_ioctl+0x238>
				res = RES_OK;
				deselect();
1a00256c:	f7ff fdbc 	bl	1a0020e8 <deselect>
		if (Stat & STA_NOINIT) return RES_NOTRDY;

		switch (ctrl) {
		case CTRL_SYNC :		/* Make sure that no pending write process. Do not remove this or written sector might not left updated. */
			if (select_()) {
				res = RES_OK;
1a002570:	2400      	movs	r4, #0
1a002572:	e0fa      	b.n	1a00276a <disk_ioctl+0x266>
				deselect();
			}
			break;

		case GET_SECTOR_COUNT :	/* Get number of sectors on the disk (DWORD) */
			if ((send_cmd(CMD9, 0) == 0) && rcvr_datablock(csd, 16)) {
1a002574:	2049      	movs	r0, #73	; 0x49
1a002576:	2100      	movs	r1, #0
1a002578:	f7ff fdd4 	bl	1a002124 <send_cmd>
1a00257c:	2800      	cmp	r0, #0
1a00257e:	f040 80df 	bne.w	1a002740 <disk_ioctl+0x23c>
1a002582:	4668      	mov	r0, sp
1a002584:	2110      	movs	r1, #16
1a002586:	f7ff fe3b 	bl	1a002200 <rcvr_datablock>
1a00258a:	2800      	cmp	r0, #0
1a00258c:	f000 80da 	beq.w	1a002744 <disk_ioctl+0x240>
				if ((csd[0] >> 6) == 1) {	/* SDC ver 2.00 */
1a002590:	f89d 3000 	ldrb.w	r3, [sp]
1a002594:	099b      	lsrs	r3, r3, #6
1a002596:	2b01      	cmp	r3, #1
1a002598:	d10b      	bne.n	1a0025b2 <disk_ioctl+0xae>
					csize = csd[9] + ((WORD)csd[8] << 8) + 1;
1a00259a:	f89d 3009 	ldrb.w	r3, [sp, #9]
1a00259e:	f89d 2008 	ldrb.w	r2, [sp, #8]
1a0025a2:	eb03 2302 	add.w	r3, r3, r2, lsl #8
1a0025a6:	3301      	adds	r3, #1
1a0025a8:	b29b      	uxth	r3, r3
					*(DWORD*)buff = (DWORD)csize << 10;
1a0025aa:	029b      	lsls	r3, r3, #10
1a0025ac:	6023      	str	r3, [r4, #0]
				} else {					/* SDC ver 1.XX or MMC*/
					n = (csd[5] & 15) + ((csd[10] & 128) >> 7) + ((csd[9] & 3) << 1) + 2;
					csize = (csd[8] >> 6) + ((WORD)csd[7] << 2) + ((WORD)(csd[6] & 3) << 10) + 1;
					*(DWORD*)buff = (DWORD)csize << (n - 9);
				}
				res = RES_OK;
1a0025ae:	2400      	movs	r4, #0
1a0025b0:	e0db      	b.n	1a00276a <disk_ioctl+0x266>
			if ((send_cmd(CMD9, 0) == 0) && rcvr_datablock(csd, 16)) {
				if ((csd[0] >> 6) == 1) {	/* SDC ver 2.00 */
					csize = csd[9] + ((WORD)csd[8] << 8) + 1;
					*(DWORD*)buff = (DWORD)csize << 10;
				} else {					/* SDC ver 1.XX or MMC*/
					n = (csd[5] & 15) + ((csd[10] & 128) >> 7) + ((csd[9] & 3) << 1) + 2;
1a0025b2:	f89d 3005 	ldrb.w	r3, [sp, #5]
1a0025b6:	f89d 100a 	ldrb.w	r1, [sp, #10]
1a0025ba:	f89d 2009 	ldrb.w	r2, [sp, #9]
1a0025be:	f003 030f 	and.w	r3, r3, #15
1a0025c2:	eb03 13d1 	add.w	r3, r3, r1, lsr #7
1a0025c6:	f002 0203 	and.w	r2, r2, #3
1a0025ca:	eb03 0242 	add.w	r2, r3, r2, lsl #1
1a0025ce:	3202      	adds	r2, #2
1a0025d0:	b2d2      	uxtb	r2, r2
					csize = (csd[8] >> 6) + ((WORD)csd[7] << 2) + ((WORD)(csd[6] & 3) << 10) + 1;
1a0025d2:	f89d 0008 	ldrb.w	r0, [sp, #8]
1a0025d6:	f89d 3007 	ldrb.w	r3, [sp, #7]
1a0025da:	f89d 1006 	ldrb.w	r1, [sp, #6]
1a0025de:	009b      	lsls	r3, r3, #2
1a0025e0:	eb03 1390 	add.w	r3, r3, r0, lsr #6
1a0025e4:	f001 0103 	and.w	r1, r1, #3
1a0025e8:	eb03 2381 	add.w	r3, r3, r1, lsl #10
1a0025ec:	3301      	adds	r3, #1
1a0025ee:	b29b      	uxth	r3, r3
					*(DWORD*)buff = (DWORD)csize << (n - 9);
1a0025f0:	3a09      	subs	r2, #9
1a0025f2:	4093      	lsls	r3, r2
1a0025f4:	6023      	str	r3, [r4, #0]
				}
				res = RES_OK;
1a0025f6:	2400      	movs	r4, #0
1a0025f8:	e0b7      	b.n	1a00276a <disk_ioctl+0x266>
			}
			break;

		case GET_SECTOR_SIZE :	/* Get R/W sector size (WORD) */
			*(WORD*)buff = 512;
1a0025fa:	f44f 7300 	mov.w	r3, #512	; 0x200
1a0025fe:	8013      	strh	r3, [r2, #0]
			res = RES_OK;
1a002600:	2400      	movs	r4, #0
			break;
1a002602:	e0b2      	b.n	1a00276a <disk_ioctl+0x266>

		case GET_BLOCK_SIZE :	/* Get erase block size in unit of sector (DWORD) */
			if (CardType & CT_SD2) {	/* SDC ver 2.00 */
1a002604:	4b5f      	ldr	r3, [pc, #380]	; (1a002784 <disk_ioctl+0x280>)
1a002606:	781b      	ldrb	r3, [r3, #0]
1a002608:	f013 0f04 	tst.w	r3, #4
1a00260c:	d01f      	beq.n	1a00264e <disk_ioctl+0x14a>
				if (send_cmd(ACMD13, 0) == 0) {	/* Read SD status */
1a00260e:	20cd      	movs	r0, #205	; 0xcd
1a002610:	2100      	movs	r1, #0
1a002612:	f7ff fd87 	bl	1a002124 <send_cmd>
1a002616:	2800      	cmp	r0, #0
1a002618:	f040 8096 	bne.w	1a002748 <disk_ioctl+0x244>
					rcvr_spi();
1a00261c:	f7ff fd44 	bl	1a0020a8 <rcvr_spi>
					if (rcvr_datablock(csd, 16)) {				/* Read partial block */
1a002620:	4668      	mov	r0, sp
1a002622:	2110      	movs	r1, #16
1a002624:	f7ff fdec 	bl	1a002200 <rcvr_datablock>
1a002628:	b930      	cbnz	r0, 1a002638 <disk_ioctl+0x134>
	WORD csize;


	if (drv) return RES_PARERR;

	res = RES_ERROR;
1a00262a:	2401      	movs	r4, #1
1a00262c:	e09d      	b.n	1a00276a <disk_ioctl+0x266>
		case GET_BLOCK_SIZE :	/* Get erase block size in unit of sector (DWORD) */
			if (CardType & CT_SD2) {	/* SDC ver 2.00 */
				if (send_cmd(ACMD13, 0) == 0) {	/* Read SD status */
					rcvr_spi();
					if (rcvr_datablock(csd, 16)) {				/* Read partial block */
						for (n = 64 - 16; n; n--) rcvr_spi();	/* Purge trailing data */
1a00262e:	f7ff fd3b 	bl	1a0020a8 <rcvr_spi>
1a002632:	3d01      	subs	r5, #1
1a002634:	b2ed      	uxtb	r5, r5
1a002636:	e000      	b.n	1a00263a <disk_ioctl+0x136>
1a002638:	2530      	movs	r5, #48	; 0x30
1a00263a:	2d00      	cmp	r5, #0
1a00263c:	d1f7      	bne.n	1a00262e <disk_ioctl+0x12a>
						*(DWORD*)buff = 16UL << (csd[10] >> 4);
1a00263e:	f89d 200a 	ldrb.w	r2, [sp, #10]
1a002642:	0912      	lsrs	r2, r2, #4
1a002644:	2310      	movs	r3, #16
1a002646:	4093      	lsls	r3, r2
1a002648:	6023      	str	r3, [r4, #0]
						res = RES_OK;
1a00264a:	2400      	movs	r4, #0
1a00264c:	e08d      	b.n	1a00276a <disk_ioctl+0x266>
					}
				}
			} else {					/* SDC ver 1.XX or MMC */
				if ((send_cmd(CMD9, 0) == 0) && rcvr_datablock(csd, 16)) {	/* Read CSD */
1a00264e:	2049      	movs	r0, #73	; 0x49
1a002650:	2100      	movs	r1, #0
1a002652:	f7ff fd67 	bl	1a002124 <send_cmd>
1a002656:	2800      	cmp	r0, #0
1a002658:	d178      	bne.n	1a00274c <disk_ioctl+0x248>
1a00265a:	4668      	mov	r0, sp
1a00265c:	2110      	movs	r1, #16
1a00265e:	f7ff fdcf 	bl	1a002200 <rcvr_datablock>
1a002662:	2800      	cmp	r0, #0
1a002664:	d074      	beq.n	1a002750 <disk_ioctl+0x24c>
					if (CardType & CT_SD1) {	/* SDC ver 1.XX */
1a002666:	4b47      	ldr	r3, [pc, #284]	; (1a002784 <disk_ioctl+0x280>)
1a002668:	781b      	ldrb	r3, [r3, #0]
1a00266a:	f013 0f02 	tst.w	r3, #2
1a00266e:	d011      	beq.n	1a002694 <disk_ioctl+0x190>
						*(DWORD*)buff = (((csd[10] & 63) << 1) + ((WORD)(csd[11] & 128) >> 7) + 1) << ((csd[13] >> 6) - 1);
1a002670:	f89d 300a 	ldrb.w	r3, [sp, #10]
1a002674:	f003 023f 	and.w	r2, r3, #63	; 0x3f
1a002678:	f89d 300b 	ldrb.w	r3, [sp, #11]
1a00267c:	09db      	lsrs	r3, r3, #7
1a00267e:	eb03 0342 	add.w	r3, r3, r2, lsl #1
1a002682:	3301      	adds	r3, #1
1a002684:	f89d 200d 	ldrb.w	r2, [sp, #13]
1a002688:	0992      	lsrs	r2, r2, #6
1a00268a:	3a01      	subs	r2, #1
1a00268c:	4093      	lsls	r3, r2
1a00268e:	6023      	str	r3, [r4, #0]
					} else {					/* MMC */
						*(DWORD*)buff = ((WORD)((csd[10] & 124) >> 2) + 1) * (((csd[11] & 3) << 3) + ((csd[11] & 224) >> 5) + 1);
					}
					res = RES_OK;
1a002690:	2400      	movs	r4, #0
1a002692:	e06a      	b.n	1a00276a <disk_ioctl+0x266>
			} else {					/* SDC ver 1.XX or MMC */
				if ((send_cmd(CMD9, 0) == 0) && rcvr_datablock(csd, 16)) {	/* Read CSD */
					if (CardType & CT_SD1) {	/* SDC ver 1.XX */
						*(DWORD*)buff = (((csd[10] & 63) << 1) + ((WORD)(csd[11] & 128) >> 7) + 1) << ((csd[13] >> 6) - 1);
					} else {					/* MMC */
						*(DWORD*)buff = ((WORD)((csd[10] & 124) >> 2) + 1) * (((csd[11] & 3) << 3) + ((csd[11] & 224) >> 5) + 1);
1a002694:	f89d 300a 	ldrb.w	r3, [sp, #10]
1a002698:	f3c3 0184 	ubfx	r1, r3, #2, #5
1a00269c:	f89d 300b 	ldrb.w	r3, [sp, #11]
1a0026a0:	f003 0003 	and.w	r0, r3, #3
1a0026a4:	095a      	lsrs	r2, r3, #5
1a0026a6:	eb02 02c0 	add.w	r2, r2, r0, lsl #3
1a0026aa:	1c53      	adds	r3, r2, #1
1a0026ac:	fb01 3303 	mla	r3, r1, r3, r3
1a0026b0:	6023      	str	r3, [r4, #0]
					}
					res = RES_OK;
1a0026b2:	2400      	movs	r4, #0
1a0026b4:	e059      	b.n	1a00276a <disk_ioctl+0x266>
				}
			}
			break;

		case MMC_GET_TYPE :		/* Get card type flags (1 byte) */
			*ptr = CardType;
1a0026b6:	4b33      	ldr	r3, [pc, #204]	; (1a002784 <disk_ioctl+0x280>)
1a0026b8:	781b      	ldrb	r3, [r3, #0]
1a0026ba:	7013      	strb	r3, [r2, #0]
			res = RES_OK;
1a0026bc:	2400      	movs	r4, #0
			break;
1a0026be:	e054      	b.n	1a00276a <disk_ioctl+0x266>

		case MMC_GET_CSD :		/* Receive CSD as a data block (16 bytes) */
			if (send_cmd(CMD9, 0) == 0		/* READ_CSD */
1a0026c0:	2049      	movs	r0, #73	; 0x49
1a0026c2:	2100      	movs	r1, #0
1a0026c4:	f7ff fd2e 	bl	1a002124 <send_cmd>
1a0026c8:	2800      	cmp	r0, #0
1a0026ca:	d143      	bne.n	1a002754 <disk_ioctl+0x250>
				&& rcvr_datablock(ptr, 16))
1a0026cc:	4620      	mov	r0, r4
1a0026ce:	2110      	movs	r1, #16
1a0026d0:	f7ff fd96 	bl	1a002200 <rcvr_datablock>
1a0026d4:	2800      	cmp	r0, #0
1a0026d6:	d13f      	bne.n	1a002758 <disk_ioctl+0x254>
	WORD csize;


	if (drv) return RES_PARERR;

	res = RES_ERROR;
1a0026d8:	2401      	movs	r4, #1
1a0026da:	e046      	b.n	1a00276a <disk_ioctl+0x266>
				&& rcvr_datablock(ptr, 16))
				res = RES_OK;
			break;

		case MMC_GET_CID :		/* Receive CID as a data block (16 bytes) */
			if (send_cmd(CMD10, 0) == 0		/* READ_CID */
1a0026dc:	204a      	movs	r0, #74	; 0x4a
1a0026de:	2100      	movs	r1, #0
1a0026e0:	f7ff fd20 	bl	1a002124 <send_cmd>
1a0026e4:	bbd0      	cbnz	r0, 1a00275c <disk_ioctl+0x258>
				&& rcvr_datablock(ptr, 16))
1a0026e6:	4620      	mov	r0, r4
1a0026e8:	2110      	movs	r1, #16
1a0026ea:	f7ff fd89 	bl	1a002200 <rcvr_datablock>
1a0026ee:	bbb8      	cbnz	r0, 1a002760 <disk_ioctl+0x25c>
	WORD csize;


	if (drv) return RES_PARERR;

	res = RES_ERROR;
1a0026f0:	2401      	movs	r4, #1
1a0026f2:	e03a      	b.n	1a00276a <disk_ioctl+0x266>
				&& rcvr_datablock(ptr, 16))
				res = RES_OK;
			break;

		case MMC_GET_OCR :		/* Receive OCR as an R3 resp (4 bytes) */
			if (send_cmd(CMD58, 0) == 0) {	/* READ_OCR */
1a0026f4:	207a      	movs	r0, #122	; 0x7a
1a0026f6:	2100      	movs	r1, #0
1a0026f8:	f7ff fd14 	bl	1a002124 <send_cmd>
1a0026fc:	b148      	cbz	r0, 1a002712 <disk_ioctl+0x20e>
	WORD csize;


	if (drv) return RES_PARERR;

	res = RES_ERROR;
1a0026fe:	2401      	movs	r4, #1
1a002700:	e033      	b.n	1a00276a <disk_ioctl+0x266>
				res = RES_OK;
			break;

		case MMC_GET_OCR :		/* Receive OCR as an R3 resp (4 bytes) */
			if (send_cmd(CMD58, 0) == 0) {	/* READ_OCR */
				for (n = 4; n; n--) *ptr++ = rcvr_spi();
1a002702:	1c66      	adds	r6, r4, #1
1a002704:	f7ff fcd0 	bl	1a0020a8 <rcvr_spi>
1a002708:	7020      	strb	r0, [r4, #0]
1a00270a:	3d01      	subs	r5, #1
1a00270c:	b2ed      	uxtb	r5, r5
1a00270e:	4634      	mov	r4, r6
1a002710:	e000      	b.n	1a002714 <disk_ioctl+0x210>
1a002712:	2504      	movs	r5, #4
1a002714:	2d00      	cmp	r5, #0
1a002716:	d1f4      	bne.n	1a002702 <disk_ioctl+0x1fe>
				res = RES_OK;
1a002718:	2400      	movs	r4, #0
1a00271a:	e026      	b.n	1a00276a <disk_ioctl+0x266>
			}
			break;

		case MMC_GET_SDSTAT :	/* Receive SD statsu as a data block (64 bytes) */
			if (send_cmd(ACMD13, 0) == 0) {	/* SD_STATUS */
1a00271c:	20cd      	movs	r0, #205	; 0xcd
1a00271e:	2100      	movs	r1, #0
1a002720:	f7ff fd00 	bl	1a002124 <send_cmd>
1a002724:	b9f0      	cbnz	r0, 1a002764 <disk_ioctl+0x260>
				rcvr_spi();
1a002726:	f7ff fcbf 	bl	1a0020a8 <rcvr_spi>
				if (rcvr_datablock(ptr, 64))
1a00272a:	4620      	mov	r0, r4
1a00272c:	2140      	movs	r1, #64	; 0x40
1a00272e:	f7ff fd67 	bl	1a002200 <rcvr_datablock>
1a002732:	b9c8      	cbnz	r0, 1a002768 <disk_ioctl+0x264>
	WORD csize;


	if (drv) return RES_PARERR;

	res = RES_ERROR;
1a002734:	2401      	movs	r4, #1
1a002736:	e018      	b.n	1a00276a <disk_ioctl+0x266>
					res = RES_OK;
			}
			break;

		default:
			res = RES_PARERR;
1a002738:	2404      	movs	r4, #4
1a00273a:	e016      	b.n	1a00276a <disk_ioctl+0x266>
	WORD csize;


	if (drv) return RES_PARERR;

	res = RES_ERROR;
1a00273c:	2401      	movs	r4, #1
1a00273e:	e014      	b.n	1a00276a <disk_ioctl+0x266>
1a002740:	2401      	movs	r4, #1
1a002742:	e012      	b.n	1a00276a <disk_ioctl+0x266>
1a002744:	2401      	movs	r4, #1
1a002746:	e010      	b.n	1a00276a <disk_ioctl+0x266>
1a002748:	2401      	movs	r4, #1
1a00274a:	e00e      	b.n	1a00276a <disk_ioctl+0x266>
1a00274c:	2401      	movs	r4, #1
1a00274e:	e00c      	b.n	1a00276a <disk_ioctl+0x266>
1a002750:	2401      	movs	r4, #1
1a002752:	e00a      	b.n	1a00276a <disk_ioctl+0x266>
1a002754:	2401      	movs	r4, #1
1a002756:	e008      	b.n	1a00276a <disk_ioctl+0x266>
			break;

		case MMC_GET_CSD :		/* Receive CSD as a data block (16 bytes) */
			if (send_cmd(CMD9, 0) == 0		/* READ_CSD */
				&& rcvr_datablock(ptr, 16))
				res = RES_OK;
1a002758:	2400      	movs	r4, #0
1a00275a:	e006      	b.n	1a00276a <disk_ioctl+0x266>
	WORD csize;


	if (drv) return RES_PARERR;

	res = RES_ERROR;
1a00275c:	2401      	movs	r4, #1
1a00275e:	e004      	b.n	1a00276a <disk_ioctl+0x266>
			break;

		case MMC_GET_CID :		/* Receive CID as a data block (16 bytes) */
			if (send_cmd(CMD10, 0) == 0		/* READ_CID */
				&& rcvr_datablock(ptr, 16))
				res = RES_OK;
1a002760:	2400      	movs	r4, #0
1a002762:	e002      	b.n	1a00276a <disk_ioctl+0x266>
	WORD csize;


	if (drv) return RES_PARERR;

	res = RES_ERROR;
1a002764:	2401      	movs	r4, #1
1a002766:	e000      	b.n	1a00276a <disk_ioctl+0x266>

		case MMC_GET_SDSTAT :	/* Receive SD statsu as a data block (64 bytes) */
			if (send_cmd(ACMD13, 0) == 0) {	/* SD_STATUS */
				rcvr_spi();
				if (rcvr_datablock(ptr, 64))
					res = RES_OK;
1a002768:	2400      	movs	r4, #0

		default:
			res = RES_PARERR;
		}

		deselect();
1a00276a:	f7ff fcbd 	bl	1a0020e8 <deselect>
1a00276e:	e000      	b.n	1a002772 <disk_ioctl+0x26e>
	if (ctrl == CTRL_POWER) {
		switch (*ptr) {
		case 0:		/* Sub control code == 0 (POWER_OFF) */
			if (chk_power())
				power_off();		/* Power off */
			res = RES_OK;
1a002770:	2400      	movs	r4, #0
		}

		deselect();
	}

	return res;
1a002772:	4620      	mov	r0, r4
1a002774:	e002      	b.n	1a00277c <disk_ioctl+0x278>
	DRESULT res;
	BYTE n, csd[16], *ptr = buff;
	WORD csize;


	if (drv) return RES_PARERR;
1a002776:	2004      	movs	r0, #4

		deselect();
	}

	return res;
}
1a002778:	4770      	bx	lr
		default :
			res = RES_PARERR;
		}
	}
	else {
		if (Stat & STA_NOINIT) return RES_NOTRDY;
1a00277a:	2003      	movs	r0, #3

		deselect();
	}

	return res;
}
1a00277c:	b004      	add	sp, #16
1a00277e:	bd70      	pop	{r4, r5, r6, pc}
1a002780:	10000009 	.word	0x10000009
1a002784:	10000532 	.word	0x10000532

1a002788 <rtcRead>:
 * @Brief: Get time from RTC peripheral.
 * @param  rtc_t rtc: RTC structure
 * @return bool_t true (1) if config it is ok
 */
bool_t rtcRead( rtc_t * rtc )
{
1a002788:	b510      	push	{r4, lr}
1a00278a:	b088      	sub	sp, #32
1a00278c:	4604      	mov	r4, r0
   bool_t ret_val = 1;

   RTC_TIME_T rtcTime;

   Chip_RTC_GetFullTime(LPC_RTC, &rtcTime);
1a00278e:	480a      	ldr	r0, [pc, #40]	; (1a0027b8 <rtcRead+0x30>)
1a002790:	4669      	mov	r1, sp
1a002792:	f001 fcb5 	bl	1a004100 <Chip_RTC_GetFullTime>

   rtc->sec = rtcTime.time[RTC_TIMETYPE_SECOND];
1a002796:	9b00      	ldr	r3, [sp, #0]
1a002798:	71e3      	strb	r3, [r4, #7]
   rtc->min = rtcTime.time[RTC_TIMETYPE_MINUTE];
1a00279a:	9b01      	ldr	r3, [sp, #4]
1a00279c:	71a3      	strb	r3, [r4, #6]
   rtc->hour = rtcTime.time[RTC_TIMETYPE_HOUR];
1a00279e:	9b02      	ldr	r3, [sp, #8]
1a0027a0:	7163      	strb	r3, [r4, #5]
   rtc->wday = rtcTime.time[RTC_TIMETYPE_DAYOFWEEK];
1a0027a2:	9b04      	ldr	r3, [sp, #16]
1a0027a4:	7123      	strb	r3, [r4, #4]
   rtc->mday = rtcTime.time[RTC_TIMETYPE_DAYOFMONTH];
1a0027a6:	9b03      	ldr	r3, [sp, #12]
1a0027a8:	70e3      	strb	r3, [r4, #3]
   rtc->month = rtcTime.time[RTC_TIMETYPE_MONTH];
1a0027aa:	9b06      	ldr	r3, [sp, #24]
1a0027ac:	70a3      	strb	r3, [r4, #2]
   rtc->year = rtcTime.time[RTC_TIMETYPE_YEAR];
1a0027ae:	9b07      	ldr	r3, [sp, #28]
1a0027b0:	8023      	strh	r3, [r4, #0]

   return ret_val;
}
1a0027b2:	2001      	movs	r0, #1
1a0027b4:	b008      	add	sp, #32
1a0027b6:	bd10      	pop	{r4, pc}
1a0027b8:	40046000 	.word	0x40046000

1a0027bc <rtcWrite>:
 * @Brief: Set time on RTC peripheral.
 * @param  rtc_t rtc: RTC structure
 * @return bool_t true (1) if config it is ok
 */
bool_t rtcWrite( rtc_t * rtc )
{
1a0027bc:	b500      	push	{lr}
1a0027be:	b089      	sub	sp, #36	; 0x24
   bool_t ret_val = 1;

   RTC_TIME_T rtcTime;

   rtcTime.time[RTC_TIMETYPE_SECOND]     = rtc->sec;
1a0027c0:	79c3      	ldrb	r3, [r0, #7]
1a0027c2:	9300      	str	r3, [sp, #0]
   rtcTime.time[RTC_TIMETYPE_MINUTE]     = rtc->min;
1a0027c4:	7983      	ldrb	r3, [r0, #6]
1a0027c6:	9301      	str	r3, [sp, #4]
   rtcTime.time[RTC_TIMETYPE_HOUR]       = rtc->hour;
1a0027c8:	7943      	ldrb	r3, [r0, #5]
1a0027ca:	9302      	str	r3, [sp, #8]
   rtcTime.time[RTC_TIMETYPE_DAYOFMONTH] = rtc->wday;
   rtcTime.time[RTC_TIMETYPE_DAYOFMONTH] = rtc->mday;
1a0027cc:	78c3      	ldrb	r3, [r0, #3]
1a0027ce:	9303      	str	r3, [sp, #12]
   rtcTime.time[RTC_TIMETYPE_MONTH]      = rtc->month;
1a0027d0:	7883      	ldrb	r3, [r0, #2]
1a0027d2:	9306      	str	r3, [sp, #24]
   rtcTime.time[RTC_TIMETYPE_YEAR]	     = rtc->year;
1a0027d4:	8803      	ldrh	r3, [r0, #0]
1a0027d6:	9307      	str	r3, [sp, #28]

   Chip_RTC_SetFullTime(LPC_RTC, &rtcTime);
1a0027d8:	4803      	ldr	r0, [pc, #12]	; (1a0027e8 <rtcWrite+0x2c>)
1a0027da:	4669      	mov	r1, sp
1a0027dc:	f001 fc78 	bl	1a0040d0 <Chip_RTC_SetFullTime>

   return ret_val;
}
1a0027e0:	2001      	movs	r0, #1
1a0027e2:	b009      	add	sp, #36	; 0x24
1a0027e4:	f85d fb04 	ldr.w	pc, [sp], #4
1a0027e8:	40046000 	.word	0x40046000

1a0027ec <rtcInit>:
 * @Brief: Configure RTC peripheral.
 * @param  rtc_t rtc: RTC structure
 * @return bool_t true (1) if config it is ok
 */
bool_t rtcInit( rtc_t * rtc )
{
1a0027ec:	b538      	push	{r3, r4, r5, lr}
   bool_t ret_val = 1;

   static bool_t init;

   if( init ) {
1a0027ee:	4b0a      	ldr	r3, [pc, #40]	; (1a002818 <rtcInit+0x2c>)
1a0027f0:	781b      	ldrb	r3, [r3, #0]
1a0027f2:	b97b      	cbnz	r3, 1a002814 <rtcInit+0x28>
1a0027f4:	4604      	mov	r4, r0
      /* Already initialized */
      ret_val = 0;
   } else {

      /* RTC Block section ------------------------- */
      Chip_RTC_Init(LPC_RTC);
1a0027f6:	4d09      	ldr	r5, [pc, #36]	; (1a00281c <rtcInit+0x30>)
1a0027f8:	4628      	mov	r0, r5
1a0027fa:	f001 fca9 	bl	1a004150 <Chip_RTC_Init>
      rtcTime.time[RTC_TIMETYPE_DAYOFMONTH] = 2;
      rtcTime.time[RTC_TIMETYPE_MONTH]      = 7;
      rtcTime.time[RTC_TIMETYPE_YEAR]       = 2016;
      Chip_RTC_SetFullAlarmTime(LPC_RTC, &rtcTime);
      */
      rtcWrite( rtc );
1a0027fe:	4620      	mov	r0, r4
1a002800:	f7ff ffdc 	bl	1a0027bc <rtcWrite>

      /* Enable rtc (starts increase the tick counter
         and second counter register) */
      Chip_RTC_Enable(LPC_RTC, ENABLE);
1a002804:	4628      	mov	r0, r5
1a002806:	2101      	movs	r1, #1
1a002808:	f001 fc56 	bl	1a0040b8 <Chip_RTC_Enable>

      init = 1;
1a00280c:	2001      	movs	r0, #1
1a00280e:	4b02      	ldr	r3, [pc, #8]	; (1a002818 <rtcInit+0x2c>)
1a002810:	7018      	strb	r0, [r3, #0]
1a002812:	bd38      	pop	{r3, r4, r5, pc}

   static bool_t init;

   if( init ) {
      /* Already initialized */
      ret_val = 0;
1a002814:	2000      	movs	r0, #0

      init = 1;
   }

   return ret_val;
}
1a002816:	bd38      	pop	{r3, r4, r5, pc}
1a002818:	10000533 	.word	0x10000533
1a00281c:	40046000 	.word	0x40046000

1a002820 <int64ToString>:
// C++ version 0.4 char* style "itoa":
// Written by Luks Chmela
// Released under GPLv3.
// Modified by Eric Pernia.
bool_t int64ToString( int64_t value, char* result, uint8_t base )
{
1a002820:	e92d 43f8 	stmdb	sp!, {r3, r4, r5, r6, r7, r8, r9, lr}
1a002824:	4615      	mov	r5, r2
1a002826:	4699      	mov	r9, r3
   // check that the base if valid
   if( base < 2 || base > 36 ) {
1a002828:	3b02      	subs	r3, #2
1a00282a:	b2db      	uxtb	r3, r3
1a00282c:	2b22      	cmp	r3, #34	; 0x22
1a00282e:	d903      	bls.n	1a002838 <int64ToString+0x18>
      *result = '\0';
1a002830:	2000      	movs	r0, #0
1a002832:	7010      	strb	r0, [r2, #0]
      return FALSE;
1a002834:	e8bd 83f8 	ldmia.w	sp!, {r3, r4, r5, r6, r7, r8, r9, pc}
1a002838:	4606      	mov	r6, r0
1a00283a:	460f      	mov	r7, r1
1a00283c:	4690      	mov	r8, r2
1a00283e:	e002      	b.n	1a002846 <int64ToString+0x26>
   int64_t tmp_value;

   do {
      tmp_value = value;
      value /= (int64_t)base;
      *ptr++ = "zyxwvutsrqponmlkjihgfedcba9876543210123456789abcdefghijklmnopqrstuvwxyz" [35 + (tmp_value - value * (int64_t)base)];
1a002840:	46f0      	mov	r8, lr
   char* ptr = result, *ptr1 = result, tmp_char;
   int64_t tmp_value;

   do {
      tmp_value = value;
      value /= (int64_t)base;
1a002842:	4606      	mov	r6, r0
1a002844:	460f      	mov	r7, r1
1a002846:	4630      	mov	r0, r6
1a002848:	4639      	mov	r1, r7
1a00284a:	464a      	mov	r2, r9
1a00284c:	2300      	movs	r3, #0
1a00284e:	f001 fe8b 	bl	1a004568 <__aeabi_ldivmod>
      *ptr++ = "zyxwvutsrqponmlkjihgfedcba9876543210123456789abcdefghijklmnopqrstuvwxyz" [35 + (tmp_value - value * (int64_t)base)];
1a002852:	f108 0e01 	add.w	lr, r8, #1
1a002856:	fba9 2300 	umull	r2, r3, r9, r0
1a00285a:	1ab2      	subs	r2, r6, r2
1a00285c:	4b12      	ldr	r3, [pc, #72]	; (1a0028a8 <int64ToString+0x88>)
1a00285e:	441a      	add	r2, r3
1a002860:	7813      	ldrb	r3, [r2, #0]
1a002862:	f888 3000 	strb.w	r3, [r8]
   } while ( value );
1a002866:	ea50 0301 	orrs.w	r3, r0, r1
1a00286a:	d1e9      	bne.n	1a002840 <int64ToString+0x20>

   // Apply negative sign
   if (tmp_value < 0) *ptr++ = '-';
1a00286c:	2e00      	cmp	r6, #0
1a00286e:	f177 0300 	sbcs.w	r3, r7, #0
1a002872:	da04      	bge.n	1a00287e <int64ToString+0x5e>
1a002874:	f108 0e02 	add.w	lr, r8, #2
1a002878:	232d      	movs	r3, #45	; 0x2d
1a00287a:	f888 3001 	strb.w	r3, [r8, #1]
   *ptr-- = '\0';
1a00287e:	f10e 33ff 	add.w	r3, lr, #4294967295	; 0xffffffff
1a002882:	2200      	movs	r2, #0
1a002884:	f88e 2000 	strb.w	r2, [lr]
   while(ptr1 < ptr) {
1a002888:	e009      	b.n	1a00289e <int64ToString+0x7e>
      tmp_char = *ptr;
1a00288a:	461a      	mov	r2, r3
1a00288c:	f812 0901 	ldrb.w	r0, [r2], #-1
      *ptr--= *ptr1;
1a002890:	4629      	mov	r1, r5
1a002892:	f811 4b01 	ldrb.w	r4, [r1], #1
1a002896:	701c      	strb	r4, [r3, #0]
      *ptr1++ = tmp_char;
1a002898:	7028      	strb	r0, [r5, #0]
1a00289a:	460d      	mov	r5, r1
   // Apply negative sign
   if (tmp_value < 0) *ptr++ = '-';
   *ptr-- = '\0';
   while(ptr1 < ptr) {
      tmp_char = *ptr;
      *ptr--= *ptr1;
1a00289c:	4613      	mov	r3, r2
   } while ( value );

   // Apply negative sign
   if (tmp_value < 0) *ptr++ = '-';
   *ptr-- = '\0';
   while(ptr1 < ptr) {
1a00289e:	429d      	cmp	r5, r3
1a0028a0:	d3f3      	bcc.n	1a00288a <int64ToString+0x6a>
      tmp_char = *ptr;
      *ptr--= *ptr1;
      *ptr1++ = tmp_char;
   }
   return TRUE;
1a0028a2:	2001      	movs	r0, #1
}
1a0028a4:	e8bd 83f8 	ldmia.w	sp!, {r3, r4, r5, r6, r7, r8, r9, pc}
1a0028a8:	1a005147 	.word	0x1a005147

1a0028ac <intToString>:

   return result;
}

char* intToString( int64_t value )
{
1a0028ac:	b510      	push	{r4, lr}
   static char result[20];
   result[0] = 0;
1a0028ae:	4c04      	ldr	r4, [pc, #16]	; (1a0028c0 <intToString+0x14>)
1a0028b0:	2300      	movs	r3, #0
1a0028b2:	7023      	strb	r3, [r4, #0]
   int64ToString( value, result, 10 );
1a0028b4:	4622      	mov	r2, r4
1a0028b6:	230a      	movs	r3, #10
1a0028b8:	f7ff ffb2 	bl	1a002820 <int64ToString>
   return result;
}
1a0028bc:	4620      	mov	r0, r4
1a0028be:	bd10      	pop	{r4, pc}
1a0028c0:	10000534 	.word	0x10000534

1a0028c4 <cyclesCounterInit>:
 * @return TRUE si esta OK, FALSE en caso de error.
 */
bool_t cyclesCounterInit( uint32_t clockSpeed )
{
   //Asigna  a la variable local ClockSpeed el valor recibido como argumento.
   ClockSpeed = clockSpeed;
1a0028c4:	4b04      	ldr	r3, [pc, #16]	; (1a0028d8 <cyclesCounterInit+0x14>)
1a0028c6:	6018      	str	r0, [r3, #0]
   //Iniciar el contador de ciclos de clock.
   *DWT_CTRL  |= 1;
1a0028c8:	4b04      	ldr	r3, [pc, #16]	; (1a0028dc <cyclesCounterInit+0x18>)
1a0028ca:	681a      	ldr	r2, [r3, #0]
1a0028cc:	6813      	ldr	r3, [r2, #0]
1a0028ce:	f043 0301 	orr.w	r3, r3, #1
1a0028d2:	6013      	str	r3, [r2, #0]
   return TRUE;
}
1a0028d4:	2001      	movs	r0, #1
1a0028d6:	4770      	bx	lr
1a0028d8:	10000010 	.word	0x10000010
1a0028dc:	1000000c 	.word	0x1000000c

1a0028e0 <gpioObtainPinInit>:

static void gpioObtainPinInit( gpioMap_t pin,
                               int8_t *pinNamePort, int8_t *pinNamePin,
                               int8_t *func, int8_t *gpioPort,
                               int8_t *gpioPin )
{
1a0028e0:	b430      	push	{r4, r5}

   *pinNamePort = gpioPinsInit[pin].pinName.port;
1a0028e2:	4d09      	ldr	r5, [pc, #36]	; (1a002908 <gpioObtainPinInit+0x28>)
1a0028e4:	eb00 0080 	add.w	r0, r0, r0, lsl #2
1a0028e8:	182c      	adds	r4, r5, r0
1a0028ea:	5c28      	ldrb	r0, [r5, r0]
1a0028ec:	7008      	strb	r0, [r1, #0]
   *pinNamePin  = gpioPinsInit[pin].pinName.pin;
1a0028ee:	7861      	ldrb	r1, [r4, #1]
1a0028f0:	7011      	strb	r1, [r2, #0]
   *func        = gpioPinsInit[pin].func;
1a0028f2:	78a2      	ldrb	r2, [r4, #2]
1a0028f4:	701a      	strb	r2, [r3, #0]
   *gpioPort    = gpioPinsInit[pin].gpio.port;
1a0028f6:	78e2      	ldrb	r2, [r4, #3]
1a0028f8:	9b02      	ldr	r3, [sp, #8]
1a0028fa:	701a      	strb	r2, [r3, #0]
   *gpioPin     = gpioPinsInit[pin].gpio.pin;
1a0028fc:	7922      	ldrb	r2, [r4, #4]
1a0028fe:	9b03      	ldr	r3, [sp, #12]
1a002900:	701a      	strb	r2, [r3, #0]
}
1a002902:	bc30      	pop	{r4, r5}
1a002904:	4770      	bx	lr
1a002906:	bf00      	nop
1a002908:	1a005230 	.word	0x1a005230

1a00290c <gpioInit>:

/*==================[external functions definition]==========================*/

bool_t gpioInit( gpioMap_t pin, gpioInit_t config )
{
1a00290c:	b570      	push	{r4, r5, r6, lr}
1a00290e:	b084      	sub	sp, #16
1a002910:	460c      	mov	r4, r1

   bool_t ret_val     = 1;

   int8_t pinNamePort = 0;
1a002912:	2300      	movs	r3, #0
1a002914:	f88d 300f 	strb.w	r3, [sp, #15]
   int8_t pinNamePin  = 0;
1a002918:	f88d 300e 	strb.w	r3, [sp, #14]

   int8_t func        = 0;
1a00291c:	f88d 300d 	strb.w	r3, [sp, #13]

   int8_t gpioPort    = 0;
1a002920:	f88d 300c 	strb.w	r3, [sp, #12]
   int8_t gpioPin     = 0;
1a002924:	f88d 300b 	strb.w	r3, [sp, #11]

   gpioObtainPinInit( pin, &pinNamePort, &pinNamePin, &func,
1a002928:	ab03      	add	r3, sp, #12
1a00292a:	9300      	str	r3, [sp, #0]
1a00292c:	f10d 030b 	add.w	r3, sp, #11
1a002930:	9301      	str	r3, [sp, #4]
1a002932:	f10d 010f 	add.w	r1, sp, #15
1a002936:	f10d 020e 	add.w	r2, sp, #14
1a00293a:	f10d 030d 	add.w	r3, sp, #13
1a00293e:	f7ff ffcf 	bl	1a0028e0 <gpioObtainPinInit>
                      &gpioPort, &gpioPin );

   switch(config) {
1a002942:	2c05      	cmp	r4, #5
1a002944:	f200 80a8 	bhi.w	1a002a98 <gpioInit+0x18c>
1a002948:	e8df f004 	tbb	[pc, r4]
1a00294c:	46278408 	.word	0x46278408
1a002950:	0365      	.short	0x0365

   case GPIO_ENABLE:
      /* Initializes GPIO */
      Chip_GPIO_Init(LPC_GPIO_PORT);
1a002952:	4853      	ldr	r0, [pc, #332]	; (1a002aa0 <gpioInit+0x194>)
1a002954:	f001 fc20 	bl	1a004198 <Chip_GPIO_Init>
/*==================[external functions definition]==========================*/

bool_t gpioInit( gpioMap_t pin, gpioInit_t config )
{

   bool_t ret_val     = 1;
1a002958:	2001      	movs	r0, #1
   switch(config) {

   case GPIO_ENABLE:
      /* Initializes GPIO */
      Chip_GPIO_Init(LPC_GPIO_PORT);
      break;
1a00295a:	e09e      	b.n	1a002a9a <gpioInit+0x18e>

   case GPIO_INPUT:
      Chip_SCU_PinMux(
1a00295c:	f89d 100f 	ldrb.w	r1, [sp, #15]
1a002960:	f89d 300e 	ldrb.w	r3, [sp, #14]
1a002964:	f89d 200d 	ldrb.w	r2, [sp, #13]
 * @note	Do not use for clock pins (SFSCLK0 .. SFSCLK4). Use
 * Chip_SCU_ClockPinMux() function for SFSCLKx clock pins.
 */
STATIC INLINE void Chip_SCU_PinMux(uint8_t port, uint8_t pin, uint16_t mode, uint8_t func)
{
	Chip_SCU_PinMuxSet(port, pin, (mode | (uint16_t) func));
1a002968:	f042 02d0 	orr.w	r2, r2, #208	; 0xd0
 * @note	Do not use for clock pins (SFSCLK0 .. SFSCLK4). Use
 * Chip_SCU_ClockPinMux() function for SFSCLKx clock pins.
 */
STATIC INLINE void Chip_SCU_PinMuxSet(uint8_t port, uint8_t pin, uint16_t modefunc)
{
	LPC_SCU->SFSP[port][pin] = modefunc;
1a00296c:	eb03 1341 	add.w	r3, r3, r1, lsl #5
1a002970:	494c      	ldr	r1, [pc, #304]	; (1a002aa4 <gpioInit+0x198>)
1a002972:	f841 2023 	str.w	r2, [r1, r3, lsl #2]
         pinNamePort,
         pinNamePin,
         SCU_MODE_INACT | SCU_MODE_INBUFF_EN | SCU_MODE_ZIF_DIS,
         func
      );
      Chip_GPIO_SetDir( LPC_GPIO_PORT, gpioPort, ( 1 << gpioPin ), GPIO_INPUT );
1a002976:	f89d 300c 	ldrb.w	r3, [sp, #12]
1a00297a:	f99d 200b 	ldrsb.w	r2, [sp, #11]
1a00297e:	2001      	movs	r0, #1
1a002980:	fa00 f402 	lsl.w	r4, r0, r2
{
	if (out) {
		pGPIO->DIR[portNum] |= bitValue;
	}
	else {
		pGPIO->DIR[portNum] &= ~bitValue;
1a002984:	f501 21dc 	add.w	r1, r1, #450560	; 0x6e000
1a002988:	f503 6300 	add.w	r3, r3, #2048	; 0x800
1a00298c:	f851 2023 	ldr.w	r2, [r1, r3, lsl #2]
1a002990:	ea22 0204 	bic.w	r2, r2, r4
1a002994:	f841 2023 	str.w	r2, [r1, r3, lsl #2]
1a002998:	e07f      	b.n	1a002a9a <gpioInit+0x18e>
      break;

   case GPIO_INPUT_PULLUP:
      Chip_SCU_PinMux(
1a00299a:	f89d 100f 	ldrb.w	r1, [sp, #15]
1a00299e:	f89d 300e 	ldrb.w	r3, [sp, #14]
1a0029a2:	f89d 200d 	ldrb.w	r2, [sp, #13]
 * @note	Do not use for clock pins (SFSCLK0 .. SFSCLK4). Use
 * Chip_SCU_ClockPinMux() function for SFSCLKx clock pins.
 */
STATIC INLINE void Chip_SCU_PinMux(uint8_t port, uint8_t pin, uint16_t mode, uint8_t func)
{
	Chip_SCU_PinMuxSet(port, pin, (mode | (uint16_t) func));
1a0029a6:	f042 02c0 	orr.w	r2, r2, #192	; 0xc0
 * @note	Do not use for clock pins (SFSCLK0 .. SFSCLK4). Use
 * Chip_SCU_ClockPinMux() function for SFSCLKx clock pins.
 */
STATIC INLINE void Chip_SCU_PinMuxSet(uint8_t port, uint8_t pin, uint16_t modefunc)
{
	LPC_SCU->SFSP[port][pin] = modefunc;
1a0029aa:	eb03 1341 	add.w	r3, r3, r1, lsl #5
1a0029ae:	493d      	ldr	r1, [pc, #244]	; (1a002aa4 <gpioInit+0x198>)
1a0029b0:	f841 2023 	str.w	r2, [r1, r3, lsl #2]
         pinNamePort,
         pinNamePin,
         SCU_MODE_PULLUP | SCU_MODE_INBUFF_EN | SCU_MODE_ZIF_DIS,
         func
      );
      Chip_GPIO_SetDir( LPC_GPIO_PORT, gpioPort, ( 1 << gpioPin ), GPIO_INPUT );
1a0029b4:	f89d 300c 	ldrb.w	r3, [sp, #12]
1a0029b8:	f99d 200b 	ldrsb.w	r2, [sp, #11]
1a0029bc:	2001      	movs	r0, #1
1a0029be:	fa00 f402 	lsl.w	r4, r0, r2
1a0029c2:	f501 21dc 	add.w	r1, r1, #450560	; 0x6e000
1a0029c6:	f503 6300 	add.w	r3, r3, #2048	; 0x800
1a0029ca:	f851 2023 	ldr.w	r2, [r1, r3, lsl #2]
1a0029ce:	ea22 0204 	bic.w	r2, r2, r4
1a0029d2:	f841 2023 	str.w	r2, [r1, r3, lsl #2]
1a0029d6:	e060      	b.n	1a002a9a <gpioInit+0x18e>
      break;

   case GPIO_INPUT_PULLDOWN:
      Chip_SCU_PinMux(
1a0029d8:	f89d 100f 	ldrb.w	r1, [sp, #15]
1a0029dc:	f89d 300e 	ldrb.w	r3, [sp, #14]
1a0029e0:	f89d 200d 	ldrb.w	r2, [sp, #13]
 * @note	Do not use for clock pins (SFSCLK0 .. SFSCLK4). Use
 * Chip_SCU_ClockPinMux() function for SFSCLKx clock pins.
 */
STATIC INLINE void Chip_SCU_PinMux(uint8_t port, uint8_t pin, uint16_t mode, uint8_t func)
{
	Chip_SCU_PinMuxSet(port, pin, (mode | (uint16_t) func));
1a0029e4:	f042 02d8 	orr.w	r2, r2, #216	; 0xd8
 * @note	Do not use for clock pins (SFSCLK0 .. SFSCLK4). Use
 * Chip_SCU_ClockPinMux() function for SFSCLKx clock pins.
 */
STATIC INLINE void Chip_SCU_PinMuxSet(uint8_t port, uint8_t pin, uint16_t modefunc)
{
	LPC_SCU->SFSP[port][pin] = modefunc;
1a0029e8:	eb03 1341 	add.w	r3, r3, r1, lsl #5
1a0029ec:	492d      	ldr	r1, [pc, #180]	; (1a002aa4 <gpioInit+0x198>)
1a0029ee:	f841 2023 	str.w	r2, [r1, r3, lsl #2]
         pinNamePort,
         pinNamePin,
         SCU_MODE_PULLDOWN | SCU_MODE_INBUFF_EN | SCU_MODE_ZIF_DIS,
         func
      );
      Chip_GPIO_SetDir( LPC_GPIO_PORT, gpioPort, ( 1 << gpioPin ), GPIO_INPUT );
1a0029f2:	f89d 300c 	ldrb.w	r3, [sp, #12]
1a0029f6:	f99d 200b 	ldrsb.w	r2, [sp, #11]
1a0029fa:	2001      	movs	r0, #1
1a0029fc:	fa00 f402 	lsl.w	r4, r0, r2
1a002a00:	f501 21dc 	add.w	r1, r1, #450560	; 0x6e000
1a002a04:	f503 6300 	add.w	r3, r3, #2048	; 0x800
1a002a08:	f851 2023 	ldr.w	r2, [r1, r3, lsl #2]
1a002a0c:	ea22 0204 	bic.w	r2, r2, r4
1a002a10:	f841 2023 	str.w	r2, [r1, r3, lsl #2]
1a002a14:	e041      	b.n	1a002a9a <gpioInit+0x18e>
      break;
   case GPIO_INPUT_PULLUP_PULLDOWN:
      Chip_SCU_PinMux(
1a002a16:	f89d 100f 	ldrb.w	r1, [sp, #15]
1a002a1a:	f89d 300e 	ldrb.w	r3, [sp, #14]
1a002a1e:	f89d 200d 	ldrb.w	r2, [sp, #13]
 * @note	Do not use for clock pins (SFSCLK0 .. SFSCLK4). Use
 * Chip_SCU_ClockPinMux() function for SFSCLKx clock pins.
 */
STATIC INLINE void Chip_SCU_PinMux(uint8_t port, uint8_t pin, uint16_t mode, uint8_t func)
{
	Chip_SCU_PinMuxSet(port, pin, (mode | (uint16_t) func));
1a002a22:	f042 02c8 	orr.w	r2, r2, #200	; 0xc8
 * @note	Do not use for clock pins (SFSCLK0 .. SFSCLK4). Use
 * Chip_SCU_ClockPinMux() function for SFSCLKx clock pins.
 */
STATIC INLINE void Chip_SCU_PinMuxSet(uint8_t port, uint8_t pin, uint16_t modefunc)
{
	LPC_SCU->SFSP[port][pin] = modefunc;
1a002a26:	eb03 1341 	add.w	r3, r3, r1, lsl #5
1a002a2a:	491e      	ldr	r1, [pc, #120]	; (1a002aa4 <gpioInit+0x198>)
1a002a2c:	f841 2023 	str.w	r2, [r1, r3, lsl #2]
         pinNamePort,
         pinNamePin,
         SCU_MODE_REPEATER | SCU_MODE_INBUFF_EN | SCU_MODE_ZIF_DIS,
         func
      );
      Chip_GPIO_SetDir( LPC_GPIO_PORT, gpioPort, ( 1 << gpioPin ), GPIO_INPUT );
1a002a30:	f89d 300c 	ldrb.w	r3, [sp, #12]
1a002a34:	f99d 200b 	ldrsb.w	r2, [sp, #11]
1a002a38:	2001      	movs	r0, #1
1a002a3a:	fa00 f402 	lsl.w	r4, r0, r2
1a002a3e:	f501 21dc 	add.w	r1, r1, #450560	; 0x6e000
1a002a42:	f503 6300 	add.w	r3, r3, #2048	; 0x800
1a002a46:	f851 2023 	ldr.w	r2, [r1, r3, lsl #2]
1a002a4a:	ea22 0204 	bic.w	r2, r2, r4
1a002a4e:	f841 2023 	str.w	r2, [r1, r3, lsl #2]
1a002a52:	e022      	b.n	1a002a9a <gpioInit+0x18e>
      break;

   case GPIO_OUTPUT:
      Chip_SCU_PinMux(
1a002a54:	f89d 100f 	ldrb.w	r1, [sp, #15]
1a002a58:	f89d 300e 	ldrb.w	r3, [sp, #14]
1a002a5c:	f89d 200d 	ldrb.w	r2, [sp, #13]
 * @note	Do not use for clock pins (SFSCLK0 .. SFSCLK4). Use
 * Chip_SCU_ClockPinMux() function for SFSCLKx clock pins.
 */
STATIC INLINE void Chip_SCU_PinMux(uint8_t port, uint8_t pin, uint16_t mode, uint8_t func)
{
	Chip_SCU_PinMuxSet(port, pin, (mode | (uint16_t) func));
1a002a60:	f042 02d0 	orr.w	r2, r2, #208	; 0xd0
 * @note	Do not use for clock pins (SFSCLK0 .. SFSCLK4). Use
 * Chip_SCU_ClockPinMux() function for SFSCLKx clock pins.
 */
STATIC INLINE void Chip_SCU_PinMuxSet(uint8_t port, uint8_t pin, uint16_t modefunc)
{
	LPC_SCU->SFSP[port][pin] = modefunc;
1a002a64:	eb03 1341 	add.w	r3, r3, r1, lsl #5
1a002a68:	490e      	ldr	r1, [pc, #56]	; (1a002aa4 <gpioInit+0x198>)
1a002a6a:	f841 2023 	str.w	r2, [r1, r3, lsl #2]
         pinNamePort,
         pinNamePin,
         SCU_MODE_INACT | SCU_MODE_ZIF_DIS | SCU_MODE_INBUFF_EN,
         func
      );
      Chip_GPIO_SetDir( LPC_GPIO_PORT, gpioPort, ( 1 << gpioPin ), GPIO_OUTPUT );
1a002a6e:	f89d 400c 	ldrb.w	r4, [sp, #12]
1a002a72:	f89d 300b 	ldrb.w	r3, [sp, #11]
1a002a76:	b25a      	sxtb	r2, r3
1a002a78:	2001      	movs	r0, #1
1a002a7a:	fa00 f602 	lsl.w	r6, r0, r2
 * Chip_GPIO_SetPortDIR() function instead.
 */
STATIC INLINE void Chip_GPIO_SetDir(LPC_GPIO_T *pGPIO, uint8_t portNum, uint32_t bitValue, uint8_t out)
{
	if (out) {
		pGPIO->DIR[portNum] |= bitValue;
1a002a7e:	4a08      	ldr	r2, [pc, #32]	; (1a002aa0 <gpioInit+0x194>)
1a002a80:	f504 6500 	add.w	r5, r4, #2048	; 0x800
1a002a84:	f852 1025 	ldr.w	r1, [r2, r5, lsl #2]
1a002a88:	4331      	orrs	r1, r6
1a002a8a:	f842 1025 	str.w	r1, [r2, r5, lsl #2]
 * @return	Nothing
 * @note	This function replaces Chip_GPIO_WritePortBit()
 */
STATIC INLINE void Chip_GPIO_SetPinState(LPC_GPIO_T *pGPIO, uint8_t port, uint8_t pin, bool setting)
{
	pGPIO->B[port][pin] = setting;
1a002a8e:	eb03 1344 	add.w	r3, r3, r4, lsl #5
1a002a92:	2100      	movs	r1, #0
1a002a94:	54d1      	strb	r1, [r2, r3]
1a002a96:	e000      	b.n	1a002a9a <gpioInit+0x18e>
      Chip_GPIO_SetPinState( LPC_GPIO_PORT, gpioPort, gpioPin, 0);
      break;

   default:
      ret_val = 0;
1a002a98:	2000      	movs	r0, #0
      break;
   }

   return ret_val;

}
1a002a9a:	b004      	add	sp, #16
1a002a9c:	bd70      	pop	{r4, r5, r6, pc}
1a002a9e:	bf00      	nop
1a002aa0:	400f4000 	.word	0x400f4000
1a002aa4:	40086000 	.word	0x40086000

1a002aa8 <gpioWrite>:


bool_t gpioWrite( gpioMap_t pin, bool_t value )
{
1a002aa8:	b510      	push	{r4, lr}
1a002aaa:	b084      	sub	sp, #16
1a002aac:	460c      	mov	r4, r1

   bool_t ret_val     = 1;

   int8_t pinNamePort = 0;
1a002aae:	2300      	movs	r3, #0
1a002ab0:	f88d 300f 	strb.w	r3, [sp, #15]
   int8_t pinNamePin  = 0;
1a002ab4:	f88d 300e 	strb.w	r3, [sp, #14]

   int8_t func        = 0;
1a002ab8:	f88d 300d 	strb.w	r3, [sp, #13]

   int8_t gpioPort    = 0;
1a002abc:	f88d 300c 	strb.w	r3, [sp, #12]
   int8_t gpioPin     = 0;
1a002ac0:	f88d 300b 	strb.w	r3, [sp, #11]

   gpioObtainPinInit( pin, &pinNamePort, &pinNamePin, &func,
1a002ac4:	ab03      	add	r3, sp, #12
1a002ac6:	9300      	str	r3, [sp, #0]
1a002ac8:	f10d 030b 	add.w	r3, sp, #11
1a002acc:	9301      	str	r3, [sp, #4]
1a002ace:	f10d 010f 	add.w	r1, sp, #15
1a002ad2:	f10d 020e 	add.w	r2, sp, #14
1a002ad6:	f10d 030d 	add.w	r3, sp, #13
1a002ada:	f7ff ff01 	bl	1a0028e0 <gpioObtainPinInit>
                      &gpioPort, &gpioPin );

   Chip_GPIO_SetPinState( LPC_GPIO_PORT, gpioPort, gpioPin, value);
1a002ade:	f89d 200c 	ldrb.w	r2, [sp, #12]
1a002ae2:	f89d 300b 	ldrb.w	r3, [sp, #11]
1a002ae6:	3400      	adds	r4, #0
1a002ae8:	bf18      	it	ne
1a002aea:	2401      	movne	r4, #1
1a002aec:	eb03 1342 	add.w	r3, r3, r2, lsl #5
1a002af0:	4a02      	ldr	r2, [pc, #8]	; (1a002afc <gpioWrite+0x54>)
1a002af2:	54d4      	strb	r4, [r2, r3]

   return ret_val;
}
1a002af4:	2001      	movs	r0, #1
1a002af6:	b004      	add	sp, #16
1a002af8:	bd10      	pop	{r4, pc}
1a002afa:	bf00      	nop
1a002afc:	400f4000 	.word	0x400f4000

1a002b00 <gpioRead>:
   return gpioWrite( pin, !gpioRead(pin) );
}


bool_t gpioRead( gpioMap_t pin )
{
1a002b00:	b500      	push	{lr}
1a002b02:	b085      	sub	sp, #20

   bool_t ret_val     = OFF;

   int8_t pinNamePort = 0;
1a002b04:	2300      	movs	r3, #0
1a002b06:	f88d 300f 	strb.w	r3, [sp, #15]
   int8_t pinNamePin  = 0;
1a002b0a:	f88d 300e 	strb.w	r3, [sp, #14]

   int8_t func        = 0;
1a002b0e:	f88d 300d 	strb.w	r3, [sp, #13]

   int8_t gpioPort    = 0;
1a002b12:	f88d 300c 	strb.w	r3, [sp, #12]
   int8_t gpioPin     = 0;
1a002b16:	f88d 300b 	strb.w	r3, [sp, #11]

   gpioObtainPinInit( pin, &pinNamePort, &pinNamePin, &func,
1a002b1a:	ab03      	add	r3, sp, #12
1a002b1c:	9300      	str	r3, [sp, #0]
1a002b1e:	f10d 030b 	add.w	r3, sp, #11
1a002b22:	9301      	str	r3, [sp, #4]
1a002b24:	f10d 010f 	add.w	r1, sp, #15
1a002b28:	f10d 020e 	add.w	r2, sp, #14
1a002b2c:	f10d 030d 	add.w	r3, sp, #13
1a002b30:	f7ff fed6 	bl	1a0028e0 <gpioObtainPinInit>
                      &gpioPort, &gpioPin );

   ret_val = (bool_t) Chip_GPIO_ReadPortBit( LPC_GPIO_PORT, gpioPort, gpioPin );
1a002b34:	f99d 200c 	ldrsb.w	r2, [sp, #12]
1a002b38:	f89d 300b 	ldrb.w	r3, [sp, #11]
 * @return	true of the GPIO is high, false if low
 * @note	It is recommended to use the Chip_GPIO_GetPinState() function instead.
 */
STATIC INLINE bool Chip_GPIO_ReadPortBit(LPC_GPIO_T *pGPIO, uint32_t port, uint8_t pin)
{
	return (bool) pGPIO->B[port][pin];
1a002b3c:	eb03 1342 	add.w	r3, r3, r2, lsl #5
1a002b40:	4a04      	ldr	r2, [pc, #16]	; (1a002b54 <gpioRead+0x54>)
1a002b42:	5cd3      	ldrb	r3, [r2, r3]
1a002b44:	f013 0fff 	tst.w	r3, #255	; 0xff

   return ret_val;
}
1a002b48:	bf14      	ite	ne
1a002b4a:	2001      	movne	r0, #1
1a002b4c:	2000      	moveq	r0, #0
1a002b4e:	b005      	add	sp, #20
1a002b50:	f85d fb04 	ldr.w	pc, [sp], #4
1a002b54:	400f4000 	.word	0x400f4000

1a002b58 <gpioToggle>:
   return ret_val;
}


bool_t gpioToggle( gpioMap_t pin )
{
1a002b58:	b510      	push	{r4, lr}
1a002b5a:	4604      	mov	r4, r0

   return gpioWrite( pin, !gpioRead(pin) );
1a002b5c:	f7ff ffd0 	bl	1a002b00 <gpioRead>
1a002b60:	fab0 f180 	clz	r1, r0
1a002b64:	0949      	lsrs	r1, r1, #5
1a002b66:	4620      	mov	r0, r4
1a002b68:	f7ff ff9e 	bl	1a002aa8 <gpioWrite>
}
1a002b6c:	bd10      	pop	{r4, pc}
1a002b6e:	bf00      	nop

1a002b70 <sleepUntilNextInterrupt>:
 */
void sleepUntilNextInterrupt( void )
{

   /* Instert an assembly instruction wfi (wait for interrupt) */
   __asm volatile( "wfi" );
1a002b70:	bf30      	wfi
1a002b72:	4770      	bx	lr

1a002b74 <tickRead>:

// Read Tick Counter
tick_t tickRead( void )
{
   return tickCounter;
}
1a002b74:	4b01      	ldr	r3, [pc, #4]	; (1a002b7c <tickRead+0x8>)
1a002b76:	e9d3 0100 	ldrd	r0, r1, [r3]
1a002b7a:	4770      	bx	lr
1a002b7c:	100009e0 	.word	0x100009e0

1a002b80 <tickCallbackSet>:

// Tick interrupt callback
bool_t tickCallbackSet( callBackFuncPtr_t tickCallback, void* tickCallbackParams )
{
   bool_t retVal = TRUE;
   if( tickCallback != NULL ) {
1a002b80:	b118      	cbz	r0, 1a002b8a <tickCallbackSet+0xa>
      tickHookFunction = tickCallback;
1a002b82:	4a05      	ldr	r2, [pc, #20]	; (1a002b98 <tickCallbackSet+0x18>)
1a002b84:	6010      	str	r0, [r2, #0]
}

// Tick interrupt callback
bool_t tickCallbackSet( callBackFuncPtr_t tickCallback, void* tickCallbackParams )
{
   bool_t retVal = TRUE;
1a002b86:	2001      	movs	r0, #1
1a002b88:	e000      	b.n	1a002b8c <tickCallbackSet+0xc>
   if( tickCallback != NULL ) {
      tickHookFunction = tickCallback;
   } else {
      retVal = FALSE;
1a002b8a:	2000      	movs	r0, #0
   }
   if( tickCallbackParams != NULL ) {
1a002b8c:	b111      	cbz	r1, 1a002b94 <tickCallbackSet+0x14>
      callBackFuncParams = tickCallbackParams;
1a002b8e:	4b03      	ldr	r3, [pc, #12]	; (1a002b9c <tickCallbackSet+0x1c>)
1a002b90:	6019      	str	r1, [r3, #0]
1a002b92:	4770      	bx	lr
   } else {
      retVal &= FALSE;
1a002b94:	2000      	movs	r0, #0
   }
   return retVal;
}
1a002b96:	4770      	bx	lr
1a002b98:	10000548 	.word	0x10000548
1a002b9c:	1000054c 	.word	0x1000054c

1a002ba0 <tickPowerSet>:

// Enable or disable the peripheral energy and clock
void tickPowerSet( bool_t power )
{
   if( power ) {
1a002ba0:	b118      	cbz	r0, 1a002baa <tickPowerSet+0xa>
      // Enable SysTick IRQ and SysTick Timer
      SysTick->CTRL = SysTick_CTRL_CLKSOURCE_Msk |
1a002ba2:	2207      	movs	r2, #7
1a002ba4:	4b03      	ldr	r3, [pc, #12]	; (1a002bb4 <tickPowerSet+0x14>)
1a002ba6:	601a      	str	r2, [r3, #0]
1a002ba8:	4770      	bx	lr
                      SysTick_CTRL_TICKINT_Msk   |
                      SysTick_CTRL_ENABLE_Msk;
   } else {
      // Disable SysTick IRQ and SysTick Timer
      SysTick->CTRL = 0x0000000;
1a002baa:	2200      	movs	r2, #0
1a002bac:	4b01      	ldr	r3, [pc, #4]	; (1a002bb4 <tickPowerSet+0x14>)
1a002bae:	601a      	str	r2, [r3, #0]
1a002bb0:	4770      	bx	lr
1a002bb2:	bf00      	nop
1a002bb4:	e000e010 	.word	0xe000e010

1a002bb8 <tickInit>:

void tickerCallback( void );

// Tick Initialization and rate configuration from 1 to 50 ms
bool_t tickInit( tick_t tickRateMSvalue )
{
1a002bb8:	b510      	push	{r4, lr}
   #ifndef TICK_OVER_RTOS
      bool_t ret_val = 1;
      tick_t tickRateHz = 0;
      if( tickRateMSvalue == 0 ) {
1a002bba:	ea50 0301 	orrs.w	r3, r0, r1
1a002bbe:	d104      	bne.n	1a002bca <tickInit+0x12>
         tickPowerSet( OFF );
1a002bc0:	2000      	movs	r0, #0
1a002bc2:	f7ff ffed 	bl	1a002ba0 <tickPowerSet>
         ret_val = 0;
1a002bc6:	2000      	movs	r0, #0
1a002bc8:	bd10      	pop	{r4, pc}
      } else {
         if( (tickRateMSvalue >= 1) && (tickRateMSvalue <= 50) ) {
1a002bca:	f110 32ff 	adds.w	r2, r0, #4294967295	; 0xffffffff
1a002bce:	f141 33ff 	adc.w	r3, r1, #4294967295	; 0xffffffff
1a002bd2:	2b00      	cmp	r3, #0
1a002bd4:	bf08      	it	eq
1a002bd6:	2a32      	cmpeq	r2, #50	; 0x32
1a002bd8:	d222      	bcs.n	1a002c20 <tickInit+0x68>
            tickRateMS = tickRateMSvalue;
1a002bda:	4b12      	ldr	r3, [pc, #72]	; (1a002c24 <tickInit+0x6c>)
1a002bdc:	e9c3 0100 	strd	r0, r1, [r3]
            tickRateHz =  200 =>  200 ticks per second =>  5 ms tick
            tickRateHz =  100 =>  100 ticks per second => 10 ms tick
            tickRateHz =   20 =>   20 ticks per second => 50 ms tick
            */
            // Init SysTick interrupt, tickRateHz ticks per second
            SysTick_Config( SystemCoreClock * tickRateMSvalue / 1000 );
1a002be0:	4b11      	ldr	r3, [pc, #68]	; (1a002c28 <tickInit+0x70>)
1a002be2:	681c      	ldr	r4, [r3, #0]
1a002be4:	fba4 2300 	umull	r2, r3, r4, r0
1a002be8:	fb04 3301 	mla	r3, r4, r1, r3
1a002bec:	4610      	mov	r0, r2
1a002bee:	4619      	mov	r1, r3
1a002bf0:	f44f 727a 	mov.w	r2, #1000	; 0x3e8
1a002bf4:	2300      	movs	r3, #0
1a002bf6:	f001 fcd3 	bl	1a0045a0 <__aeabi_uldivmod>
    must contain a vendor-specific implementation of this function.

 */
__STATIC_INLINE uint32_t SysTick_Config(uint32_t ticks)
{
  if ((ticks - 1) > SysTick_LOAD_RELOAD_Msk)  return (1);      /* Reload value impossible */
1a002bfa:	3801      	subs	r0, #1
1a002bfc:	f1b0 7f80 	cmp.w	r0, #16777216	; 0x1000000
1a002c00:	d209      	bcs.n	1a002c16 <tickInit+0x5e>

  SysTick->LOAD  = ticks - 1;                                  /* set reload register */
1a002c02:	4b0a      	ldr	r3, [pc, #40]	; (1a002c2c <tickInit+0x74>)
1a002c04:	6058      	str	r0, [r3, #4]
    \param [in]  priority  Priority to set.
 */
__STATIC_INLINE void NVIC_SetPriority(IRQn_Type IRQn, uint32_t priority)
{
  if(IRQn < 0) {
    SCB->SHP[((uint32_t)(IRQn) & 0xF)-4] = ((priority << (8 - __NVIC_PRIO_BITS)) & 0xff); } /* set Priority for Cortex-M  System Interrupts */
1a002c06:	21e0      	movs	r1, #224	; 0xe0
1a002c08:	4a09      	ldr	r2, [pc, #36]	; (1a002c30 <tickInit+0x78>)
1a002c0a:	f882 1023 	strb.w	r1, [r2, #35]	; 0x23
{
  if ((ticks - 1) > SysTick_LOAD_RELOAD_Msk)  return (1);      /* Reload value impossible */

  SysTick->LOAD  = ticks - 1;                                  /* set reload register */
  NVIC_SetPriority (SysTick_IRQn, (1<<__NVIC_PRIO_BITS) - 1);  /* set Priority for Systick Interrupt */
  SysTick->VAL   = 0;                                          /* Load the SysTick Counter Value */
1a002c0e:	2200      	movs	r2, #0
1a002c10:	609a      	str	r2, [r3, #8]
  SysTick->CTRL  = SysTick_CTRL_CLKSOURCE_Msk |
1a002c12:	2207      	movs	r2, #7
1a002c14:	601a      	str	r2, [r3, #0]
            if ( SysTick_Config( CMU_ClockFreqGet(cmuClock_CORE) / tickRateHz) ){
               //DEBUG_BREAK;
               ret_val = 0;
            }
            */
            tickPowerSet( ON );
1a002c16:	2001      	movs	r0, #1
1a002c18:	f7ff ffc2 	bl	1a002ba0 <tickPowerSet>

// Tick Initialization and rate configuration from 1 to 50 ms
bool_t tickInit( tick_t tickRateMSvalue )
{
   #ifndef TICK_OVER_RTOS
      bool_t ret_val = 1;
1a002c1c:	2001      	movs	r0, #1
1a002c1e:	bd10      	pop	{r4, pc}
            }
            */
            tickPowerSet( ON );
         } else {
            // Error, tickRateMS variable not in range (1 <= tickRateMS <= 50)
            ret_val = 0;
1a002c20:	2000      	movs	r0, #0
      #else
         #warning "Unknown RTOS. Ticker disabled"
            return 0;
      #endif
   #endif
}
1a002c22:	bd10      	pop	{r4, pc}
1a002c24:	100009e8 	.word	0x100009e8
1a002c28:	100009f0 	.word	0x100009f0
1a002c2c:	e000e010 	.word	0xe000e010
1a002c30:	e000ed00 	.word	0xe000ed00

1a002c34 <SysTick_Handler>:

//__attribute__ ((section(".after_vectors")))

// SysTick Timer ISR Handler
void tickerCallback( void )   // Before SysTick_Handler
{
1a002c34:	b508      	push	{r3, lr}
   // Increment Tick counters
   tickCounter++;
1a002c36:	4908      	ldr	r1, [pc, #32]	; (1a002c58 <SysTick_Handler+0x24>)
1a002c38:	e9d1 2300 	ldrd	r2, r3, [r1]
1a002c3c:	3201      	adds	r2, #1
1a002c3e:	f143 0300 	adc.w	r3, r3, #0
1a002c42:	e9c1 2300 	strd	r2, r3, [r1]
   // Execute Tick Hook function if pointer is not NULL
   if( (tickHookFunction != NULL) ) {
1a002c46:	4b05      	ldr	r3, [pc, #20]	; (1a002c5c <SysTick_Handler+0x28>)
1a002c48:	681b      	ldr	r3, [r3, #0]
1a002c4a:	b123      	cbz	r3, 1a002c56 <SysTick_Handler+0x22>
      (* tickHookFunction )( callBackFuncParams );
1a002c4c:	4b03      	ldr	r3, [pc, #12]	; (1a002c5c <SysTick_Handler+0x28>)
1a002c4e:	681b      	ldr	r3, [r3, #0]
1a002c50:	4a03      	ldr	r2, [pc, #12]	; (1a002c60 <SysTick_Handler+0x2c>)
1a002c52:	6810      	ldr	r0, [r2, #0]
1a002c54:	4798      	blx	r3
1a002c56:	bd08      	pop	{r3, pc}
1a002c58:	100009e0 	.word	0x100009e0
1a002c5c:	10000548 	.word	0x10000548
1a002c60:	1000054c 	.word	0x1000054c

1a002c64 <uartProcessIRQ>:
static void uartProcessIRQ( uartMap_t uart );

/*==================[internal functions definition]==========================*/

static void uartProcessIRQ( uartMap_t uart )
{
1a002c64:	b570      	push	{r4, r5, r6, lr}
1a002c66:	4604      	mov	r4, r0
   uint8_t status = Chip_UART_ReadLineStatus( lpcUarts[uart].uartAddr );
1a002c68:	eb00 0340 	add.w	r3, r0, r0, lsl #1
1a002c6c:	009b      	lsls	r3, r3, #2
1a002c6e:	4a21      	ldr	r2, [pc, #132]	; (1a002cf4 <uartProcessIRQ+0x90>)
1a002c70:	58d6      	ldr	r6, [r2, r3]
 * @note	Mask bits of the returned status value with UART_LSR_*
 *			definitions for specific statuses.
 */
STATIC INLINE uint32_t Chip_UART_ReadLineStatus(LPC_USART_T *pUART)
{
	return pUART->LSR;
1a002c72:	6975      	ldr	r5, [r6, #20]
1a002c74:	b2ed      	uxtb	r5, r5

   // Rx Interrupt
   if(status & UART_LSR_RDR) { // uartRxReady
1a002c76:	f015 0f01 	tst.w	r5, #1
1a002c7a:	d019      	beq.n	1a002cb0 <uartProcessIRQ+0x4c>
      // Execute callback
      if( ( uart == UART_GPIO ) && (rxIsrCallbackUART0 != 0) )
1a002c7c:	b930      	cbnz	r0, 1a002c8c <uartProcessIRQ+0x28>
1a002c7e:	4b1e      	ldr	r3, [pc, #120]	; (1a002cf8 <uartProcessIRQ+0x94>)
1a002c80:	681b      	ldr	r3, [r3, #0]
1a002c82:	b11b      	cbz	r3, 1a002c8c <uartProcessIRQ+0x28>
         (*rxIsrCallbackUART0)(0);
1a002c84:	4b1c      	ldr	r3, [pc, #112]	; (1a002cf8 <uartProcessIRQ+0x94>)
1a002c86:	681b      	ldr	r3, [r3, #0]
1a002c88:	2000      	movs	r0, #0
1a002c8a:	4798      	blx	r3

      if( ( uart == UART_USB )  && (rxIsrCallbackUART2 != 0) )
1a002c8c:	2c03      	cmp	r4, #3
1a002c8e:	d106      	bne.n	1a002c9e <uartProcessIRQ+0x3a>
1a002c90:	4b1a      	ldr	r3, [pc, #104]	; (1a002cfc <uartProcessIRQ+0x98>)
1a002c92:	681b      	ldr	r3, [r3, #0]
1a002c94:	b11b      	cbz	r3, 1a002c9e <uartProcessIRQ+0x3a>
         (*rxIsrCallbackUART2)(0);
1a002c96:	4b19      	ldr	r3, [pc, #100]	; (1a002cfc <uartProcessIRQ+0x98>)
1a002c98:	681b      	ldr	r3, [r3, #0]
1a002c9a:	2000      	movs	r0, #0
1a002c9c:	4798      	blx	r3

      if( ( uart == UART_232 )  && (rxIsrCallbackUART3 != 0) )
1a002c9e:	2c05      	cmp	r4, #5
1a002ca0:	d106      	bne.n	1a002cb0 <uartProcessIRQ+0x4c>
1a002ca2:	4b17      	ldr	r3, [pc, #92]	; (1a002d00 <uartProcessIRQ+0x9c>)
1a002ca4:	681b      	ldr	r3, [r3, #0]
1a002ca6:	b11b      	cbz	r3, 1a002cb0 <uartProcessIRQ+0x4c>
         (*rxIsrCallbackUART3)(0);
1a002ca8:	4b15      	ldr	r3, [pc, #84]	; (1a002d00 <uartProcessIRQ+0x9c>)
1a002caa:	681b      	ldr	r3, [r3, #0]
1a002cac:	2000      	movs	r0, #0
1a002cae:	4798      	blx	r3
   }

   // Tx Interrupt
   if( ( status & UART_LSR_THRE ) && // uartTxReady
1a002cb0:	f015 0f20 	tst.w	r5, #32
1a002cb4:	d01d      	beq.n	1a002cf2 <uartProcessIRQ+0x8e>
 *			to determine which interrupts are enabled. You can check
 *			for multiple enabled bits if needed.
 */
STATIC INLINE uint32_t Chip_UART_GetIntsEnabled(LPC_USART_T *pUART)
{
	return pUART->IER;
1a002cb6:	6873      	ldr	r3, [r6, #4]
1a002cb8:	f013 0f02 	tst.w	r3, #2
1a002cbc:	d019      	beq.n	1a002cf2 <uartProcessIRQ+0x8e>
       ( Chip_UART_GetIntsEnabled( lpcUarts[uart].uartAddr ) & UART_IER_THREINT ) ) {

      // Execute callback
      if( ( uart == UART_GPIO ) && (txIsrCallbackUART0 != 0) )
1a002cbe:	b934      	cbnz	r4, 1a002cce <uartProcessIRQ+0x6a>
1a002cc0:	4b10      	ldr	r3, [pc, #64]	; (1a002d04 <uartProcessIRQ+0xa0>)
1a002cc2:	681b      	ldr	r3, [r3, #0]
1a002cc4:	b11b      	cbz	r3, 1a002cce <uartProcessIRQ+0x6a>
         (*txIsrCallbackUART0)(0);
1a002cc6:	4b0f      	ldr	r3, [pc, #60]	; (1a002d04 <uartProcessIRQ+0xa0>)
1a002cc8:	681b      	ldr	r3, [r3, #0]
1a002cca:	2000      	movs	r0, #0
1a002ccc:	4798      	blx	r3

      if( ( uart == UART_USB )  && (txIsrCallbackUART2 != 0) )
1a002cce:	2c03      	cmp	r4, #3
1a002cd0:	d106      	bne.n	1a002ce0 <uartProcessIRQ+0x7c>
1a002cd2:	4b0d      	ldr	r3, [pc, #52]	; (1a002d08 <uartProcessIRQ+0xa4>)
1a002cd4:	681b      	ldr	r3, [r3, #0]
1a002cd6:	b11b      	cbz	r3, 1a002ce0 <uartProcessIRQ+0x7c>
         (*txIsrCallbackUART2)(0);
1a002cd8:	4b0b      	ldr	r3, [pc, #44]	; (1a002d08 <uartProcessIRQ+0xa4>)
1a002cda:	681b      	ldr	r3, [r3, #0]
1a002cdc:	2000      	movs	r0, #0
1a002cde:	4798      	blx	r3

      if( ( uart == UART_232 )  && (txIsrCallbackUART3 != 0) )
1a002ce0:	2c05      	cmp	r4, #5
1a002ce2:	d106      	bne.n	1a002cf2 <uartProcessIRQ+0x8e>
1a002ce4:	4b09      	ldr	r3, [pc, #36]	; (1a002d0c <uartProcessIRQ+0xa8>)
1a002ce6:	681b      	ldr	r3, [r3, #0]
1a002ce8:	b11b      	cbz	r3, 1a002cf2 <uartProcessIRQ+0x8e>
         (*txIsrCallbackUART3)(0);
1a002cea:	4b08      	ldr	r3, [pc, #32]	; (1a002d0c <uartProcessIRQ+0xa8>)
1a002cec:	681b      	ldr	r3, [r3, #0]
1a002cee:	2000      	movs	r0, #0
1a002cf0:	4798      	blx	r3
1a002cf2:	bd70      	pop	{r4, r5, r6, pc}
1a002cf4:	1a005368 	.word	0x1a005368
1a002cf8:	10000550 	.word	0x10000550
1a002cfc:	10000564 	.word	0x10000564
1a002d00:	10000568 	.word	0x10000568
1a002d04:	10000554 	.word	0x10000554
1a002d08:	10000558 	.word	0x10000558
1a002d0c:	1000055c 	.word	0x1000055c

1a002d10 <uartRxReady>:
//-------------------------------------------------------------

// Return TRUE if have unread data in RX FIFO
bool_t uartRxReady( uartMap_t uart )
{
   return Chip_UART_ReadLineStatus( lpcUarts[uart].uartAddr ) & UART_LSR_RDR;
1a002d10:	eb00 0040 	add.w	r0, r0, r0, lsl #1
1a002d14:	0080      	lsls	r0, r0, #2
1a002d16:	4b03      	ldr	r3, [pc, #12]	; (1a002d24 <uartRxReady+0x14>)
1a002d18:	581b      	ldr	r3, [r3, r0]
 * @note	Mask bits of the returned status value with UART_LSR_*
 *			definitions for specific statuses.
 */
STATIC INLINE uint32_t Chip_UART_ReadLineStatus(LPC_USART_T *pUART)
{
	return pUART->LSR;
1a002d1a:	6958      	ldr	r0, [r3, #20]
}
1a002d1c:	f000 0001 	and.w	r0, r0, #1
1a002d20:	4770      	bx	lr
1a002d22:	bf00      	nop
1a002d24:	1a005368 	.word	0x1a005368

1a002d28 <uartTxReady>:
// Return TRUE if have space in TX FIFO
bool_t uartTxReady( uartMap_t uart )
{
   return Chip_UART_ReadLineStatus( lpcUarts[uart].uartAddr ) & UART_LSR_THRE;
1a002d28:	eb00 0040 	add.w	r0, r0, r0, lsl #1
1a002d2c:	0080      	lsls	r0, r0, #2
1a002d2e:	4b03      	ldr	r3, [pc, #12]	; (1a002d3c <uartTxReady+0x14>)
1a002d30:	581b      	ldr	r3, [r3, r0]
1a002d32:	6958      	ldr	r0, [r3, #20]
}
1a002d34:	f000 0020 	and.w	r0, r0, #32
1a002d38:	4770      	bx	lr
1a002d3a:	bf00      	nop
1a002d3c:	1a005368 	.word	0x1a005368

1a002d40 <uartRxRead>:
// Read from RX FIFO
uint8_t uartRxRead( uartMap_t uart )
{
   return Chip_UART_ReadByte( lpcUarts[uart].uartAddr );
1a002d40:	eb00 0040 	add.w	r0, r0, r0, lsl #1
1a002d44:	0080      	lsls	r0, r0, #2
1a002d46:	4b02      	ldr	r3, [pc, #8]	; (1a002d50 <uartRxRead+0x10>)
1a002d48:	581b      	ldr	r3, [r3, r0]
 *			receive hold register regard regardless of UART state. The
 *			FIFO status should be read first prior to using this function
 */
STATIC INLINE uint8_t Chip_UART_ReadByte(LPC_USART_T *pUART)
{
	return (uint8_t) (pUART->RBR & UART_RBR_MASKBIT);
1a002d4a:	6818      	ldr	r0, [r3, #0]
}
1a002d4c:	b2c0      	uxtb	r0, r0
1a002d4e:	4770      	bx	lr
1a002d50:	1a005368 	.word	0x1a005368

1a002d54 <uartTxWrite>:
// Write in TX FIFO
void uartTxWrite( uartMap_t uart, const uint8_t value )
{
   Chip_UART_SendByte( lpcUarts[uart].uartAddr, value );
1a002d54:	eb00 0040 	add.w	r0, r0, r0, lsl #1
1a002d58:	0080      	lsls	r0, r0, #2
1a002d5a:	4b02      	ldr	r3, [pc, #8]	; (1a002d64 <uartTxWrite+0x10>)
1a002d5c:	581b      	ldr	r3, [r3, r0]
 * @note	This function attempts to place a byte into the UART transmit
 *			FIFO or transmit hold register regard regardless of UART state
 */
STATIC INLINE void Chip_UART_SendByte(LPC_USART_T *pUART, uint8_t data)
{
	pUART->THR = (uint32_t) data;
1a002d5e:	6019      	str	r1, [r3, #0]
1a002d60:	4770      	bx	lr
1a002d62:	bf00      	nop
1a002d64:	1a005368 	.word	0x1a005368

1a002d68 <uartInit>:

//-------------------------------------------------------------

// UART Initialization
void uartInit( uartMap_t uart, uint32_t baudRate )
{
1a002d68:	e92d 43f8 	stmdb	sp!, {r3, r4, r5, r6, r7, r8, r9, lr}
1a002d6c:	4607      	mov	r7, r0
1a002d6e:	4689      	mov	r9, r1
   // Initialize UART
   Chip_UART_Init( lpcUarts[uart].uartAddr );
1a002d70:	f8df 806c 	ldr.w	r8, [pc, #108]	; 1a002de0 <uartInit+0x78>
1a002d74:	0044      	lsls	r4, r0, #1
1a002d76:	1823      	adds	r3, r4, r0
1a002d78:	009b      	lsls	r3, r3, #2
1a002d7a:	eb08 0503 	add.w	r5, r8, r3
1a002d7e:	f858 6003 	ldr.w	r6, [r8, r3]
1a002d82:	4630      	mov	r0, r6
1a002d84:	f000 fcd0 	bl	1a003728 <Chip_UART_Init>
   // Set Baud rate
   Chip_UART_SetBaud( lpcUarts[uart].uartAddr, baudRate );
1a002d88:	4630      	mov	r0, r6
1a002d8a:	4649      	mov	r1, r9
1a002d8c:	f000 fcf6 	bl	1a00377c <Chip_UART_SetBaud>
 *			with a RX trip level of 8 characters, use something like
 *			(UART_FCR_FIFO_EN | UART_FCR_TRG_LEV2)
 */
STATIC INLINE void Chip_UART_SetupFIFOS(LPC_USART_T *pUART, uint32_t fcr)
{
	pUART->FCR = fcr;
1a002d90:	2307      	movs	r3, #7
1a002d92:	60b3      	str	r3, [r6, #8]
 *			receive hold register regard regardless of UART state. The
 *			FIFO status should be read first prior to using this function
 */
STATIC INLINE uint8_t Chip_UART_ReadByte(LPC_USART_T *pUART)
{
	return (uint8_t) (pUART->RBR & UART_RBR_MASKBIT);
1a002d94:	6833      	ldr	r3, [r6, #0]
 * @param	pUART	: Pointer to selected pUART peripheral
 * @return Nothing
 */
STATIC INLINE void Chip_UART_TXEnable(LPC_USART_T *pUART)
{
    pUART->TER2 = UART_TER2_TXEN;
1a002d96:	2301      	movs	r3, #1
1a002d98:	65f3      	str	r3, [r6, #92]	; 0x5c
   // Dummy read
   Chip_UART_ReadByte( lpcUarts[uart].uartAddr );
   // Enable UART Transmission
   Chip_UART_TXEnable( lpcUarts[uart].uartAddr );
   // Configure SCU UARTn_TXD pin
   Chip_SCU_PinMux( lpcUarts[uart].txPin.lpcScuPort,
1a002d9a:	7929      	ldrb	r1, [r5, #4]
1a002d9c:	796b      	ldrb	r3, [r5, #5]
1a002d9e:	79aa      	ldrb	r2, [r5, #6]
 * @note	Do not use for clock pins (SFSCLK0 .. SFSCLK4). Use
 * Chip_SCU_ClockPinMux() function for SFSCLKx clock pins.
 */
STATIC INLINE void Chip_SCU_PinMux(uint8_t port, uint8_t pin, uint16_t mode, uint8_t func)
{
	Chip_SCU_PinMuxSet(port, pin, (mode | (uint16_t) func));
1a002da0:	f042 0218 	orr.w	r2, r2, #24
 * @note	Do not use for clock pins (SFSCLK0 .. SFSCLK4). Use
 * Chip_SCU_ClockPinMux() function for SFSCLKx clock pins.
 */
STATIC INLINE void Chip_SCU_PinMuxSet(uint8_t port, uint8_t pin, uint16_t modefunc)
{
	LPC_SCU->SFSP[port][pin] = modefunc;
1a002da4:	480c      	ldr	r0, [pc, #48]	; (1a002dd8 <uartInit+0x70>)
1a002da6:	eb03 1341 	add.w	r3, r3, r1, lsl #5
1a002daa:	f840 2023 	str.w	r2, [r0, r3, lsl #2]
                    lpcUarts[uart].txPin.lpcScuPin,
                    MD_PDN,
                    lpcUarts[uart].txPin.lpcScuFunc );
   // Configure SCU UARTn_RXD pin
   Chip_SCU_PinMux( lpcUarts[uart].rxPin.lpcScuPort,
1a002dae:	79ee      	ldrb	r6, [r5, #7]
1a002db0:	7a2a      	ldrb	r2, [r5, #8]
1a002db2:	7a69      	ldrb	r1, [r5, #9]
 * @note	Do not use for clock pins (SFSCLK0 .. SFSCLK4). Use
 * Chip_SCU_ClockPinMux() function for SFSCLKx clock pins.
 */
STATIC INLINE void Chip_SCU_PinMux(uint8_t port, uint8_t pin, uint16_t mode, uint8_t func)
{
	Chip_SCU_PinMuxSet(port, pin, (mode | (uint16_t) func));
1a002db4:	f041 01d0 	orr.w	r1, r1, #208	; 0xd0
 * @note	Do not use for clock pins (SFSCLK0 .. SFSCLK4). Use
 * Chip_SCU_ClockPinMux() function for SFSCLKx clock pins.
 */
STATIC INLINE void Chip_SCU_PinMuxSet(uint8_t port, uint8_t pin, uint16_t modefunc)
{
	LPC_SCU->SFSP[port][pin] = modefunc;
1a002db8:	eb02 1346 	add.w	r3, r2, r6, lsl #5
1a002dbc:	f840 1023 	str.w	r1, [r0, r3, lsl #2]
                    lpcUarts[uart].rxPin.lpcScuPin,
                    MD_PLN | MD_EZI | MD_ZI,
                    lpcUarts[uart].rxPin.lpcScuFunc );

   // Specific configurations for RS485
   if( uart == UART_485 ) {
1a002dc0:	2f01      	cmp	r7, #1
1a002dc2:	d107      	bne.n	1a002dd4 <uartInit+0x6c>
 * @note	Use an Or'ed value of UART_RS485CTRL_* definitions with this
 *			call to set specific options.
 */
STATIC INLINE void Chip_UART_SetRS485Flags(LPC_USART_T *pUART, uint32_t ctrl)
{
	pUART->RS485CTRL |= ctrl;
1a002dc4:	4a05      	ldr	r2, [pc, #20]	; (1a002ddc <uartInit+0x74>)
1a002dc6:	6cd3      	ldr	r3, [r2, #76]	; 0x4c
1a002dc8:	f043 0330 	orr.w	r3, r3, #48	; 0x30
1a002dcc:	64d3      	str	r3, [r2, #76]	; 0x4c
1a002dce:	221a      	movs	r2, #26
1a002dd0:	f8c0 2308 	str.w	r2, [r0, #776]	; 0x308
1a002dd4:	e8bd 83f8 	ldmia.w	sp!, {r3, r4, r5, r6, r7, r8, r9, pc}
1a002dd8:	40086000 	.word	0x40086000
1a002ddc:	40081000 	.word	0x40081000
1a002de0:	1a005368 	.word	0x1a005368

1a002de4 <uartReadByte>:
   }
}

// Read 1 byte from RX FIFO, check first if exist aviable data
bool_t uartReadByte( uartMap_t uart, uint8_t* receivedByte )
{
1a002de4:	b538      	push	{r3, r4, r5, lr}
1a002de6:	4605      	mov	r5, r0
1a002de8:	460c      	mov	r4, r1
   bool_t retVal = TRUE;
   if ( uartRxReady(uart) ) {
1a002dea:	f7ff ff91 	bl	1a002d10 <uartRxReady>
1a002dee:	b128      	cbz	r0, 1a002dfc <uartReadByte+0x18>
      *receivedByte = uartRxRead(uart);
1a002df0:	4628      	mov	r0, r5
1a002df2:	f7ff ffa5 	bl	1a002d40 <uartRxRead>
1a002df6:	7020      	strb	r0, [r4, #0]
}

// Read 1 byte from RX FIFO, check first if exist aviable data
bool_t uartReadByte( uartMap_t uart, uint8_t* receivedByte )
{
   bool_t retVal = TRUE;
1a002df8:	2001      	movs	r0, #1
1a002dfa:	bd38      	pop	{r3, r4, r5, pc}
   if ( uartRxReady(uart) ) {
      *receivedByte = uartRxRead(uart);
   } else {
      retVal = FALSE;
1a002dfc:	2000      	movs	r0, #0
   }
   return retVal;
}
1a002dfe:	bd38      	pop	{r3, r4, r5, pc}

1a002e00 <waitForReceiveStringOrTimeout>:

// Check for Receive a given pattern

waitForReceiveStringOrTimeoutState_t waitForReceiveStringOrTimeout(
   uartMap_t uart, waitForReceiveStringOrTimeout_t* instance )
{
1a002e00:	b510      	push	{r4, lr}
1a002e02:	b082      	sub	sp, #8
1a002e04:	460c      	mov	r4, r1

   uint8_t receiveByte;
   //char receiveBuffer[100];

   switch( instance->state ) {
1a002e06:	780b      	ldrb	r3, [r1, #0]
1a002e08:	2b04      	cmp	r3, #4
1a002e0a:	d832      	bhi.n	1a002e72 <waitForReceiveStringOrTimeout+0x72>
1a002e0c:	e8df f003 	tbb	[pc, r3]
1a002e10:	312b0e03 	.word	0x312b0e03
1a002e14:	2e          	.byte	0x2e
1a002e15:	00          	.byte	0x00

   case UART_RECEIVE_STRING_CONFIG:

      delayInit( &(instance->delay), instance->timeout );
1a002e16:	f101 0018 	add.w	r0, r1, #24
1a002e1a:	e9d1 2304 	ldrd	r2, r3, [r1, #16]
1a002e1e:	f000 f939 	bl	1a003094 <delayInit>

      instance->stringIndex = 0;
1a002e22:	2300      	movs	r3, #0
1a002e24:	8163      	strh	r3, [r4, #10]

      instance->state = UART_RECEIVE_STRING_RECEIVING;
1a002e26:	2301      	movs	r3, #1
1a002e28:	7023      	strb	r3, [r4, #0]

      break;
1a002e2a:	e024      	b.n	1a002e76 <waitForReceiveStringOrTimeout+0x76>

   case UART_RECEIVE_STRING_RECEIVING:

      if( uartReadByte( uart, &receiveByte ) ) {
1a002e2c:	f10d 0107 	add.w	r1, sp, #7
1a002e30:	f7ff ffd8 	bl	1a002de4 <uartReadByte>
1a002e34:	b178      	cbz	r0, 1a002e56 <waitForReceiveStringOrTimeout+0x56>
         //uartWriteByte( UART_DEBUG, receiveByte ); // TODO: DEBUG
         /*            if( (instance->stringIndex) <= 100 ){
                        receiveBuffer[instance->stringIndex] = receiveByte;
                     }
         */
         if( (instance->string)[(instance->stringIndex)] == receiveByte ) {
1a002e36:	6862      	ldr	r2, [r4, #4]
1a002e38:	8963      	ldrh	r3, [r4, #10]
1a002e3a:	5cd1      	ldrb	r1, [r2, r3]
1a002e3c:	f89d 2007 	ldrb.w	r2, [sp, #7]
1a002e40:	4291      	cmp	r1, r2
1a002e42:	d108      	bne.n	1a002e56 <waitForReceiveStringOrTimeout+0x56>

            (instance->stringIndex)++;
1a002e44:	3301      	adds	r3, #1
1a002e46:	b29b      	uxth	r3, r3
1a002e48:	8163      	strh	r3, [r4, #10]

            if( (instance->stringIndex) == (instance->stringSize - 1) ) {
1a002e4a:	8922      	ldrh	r2, [r4, #8]
1a002e4c:	3a01      	subs	r2, #1
1a002e4e:	4293      	cmp	r3, r2
1a002e50:	d101      	bne.n	1a002e56 <waitForReceiveStringOrTimeout+0x56>
               instance->state = UART_RECEIVE_STRING_RECEIVED_OK;
1a002e52:	2302      	movs	r3, #2
1a002e54:	7023      	strb	r3, [r4, #0]

         }

      }

      if( delayRead( &(instance->delay) ) ) {
1a002e56:	f104 0018 	add.w	r0, r4, #24
1a002e5a:	f000 f92b 	bl	1a0030b4 <delayRead>
1a002e5e:	b150      	cbz	r0, 1a002e76 <waitForReceiveStringOrTimeout+0x76>
         instance->state = UART_RECEIVE_STRING_TIMEOUT;
1a002e60:	2304      	movs	r3, #4
1a002e62:	7023      	strb	r3, [r4, #0]
1a002e64:	e007      	b.n	1a002e76 <waitForReceiveStringOrTimeout+0x76>
      }

      break;

   case UART_RECEIVE_STRING_RECEIVED_OK:
      instance->state = UART_RECEIVE_STRING_CONFIG;
1a002e66:	2300      	movs	r3, #0
1a002e68:	700b      	strb	r3, [r1, #0]
      break;
1a002e6a:	e004      	b.n	1a002e76 <waitForReceiveStringOrTimeout+0x76>

   case UART_RECEIVE_STRING_TIMEOUT:
      instance->state = UART_RECEIVE_STRING_CONFIG;
1a002e6c:	2300      	movs	r3, #0
1a002e6e:	700b      	strb	r3, [r1, #0]
      break;
1a002e70:	e001      	b.n	1a002e76 <waitForReceiveStringOrTimeout+0x76>

   default:
      instance->state = UART_RECEIVE_STRING_CONFIG;
1a002e72:	2300      	movs	r3, #0
1a002e74:	700b      	strb	r3, [r1, #0]
      break;
   }

   return instance->state;
}
1a002e76:	7820      	ldrb	r0, [r4, #0]
1a002e78:	b002      	add	sp, #8
1a002e7a:	bd10      	pop	{r4, pc}

1a002e7c <waitForReceiveStringOrTimeoutBlocking>:
// Devuelve TRUE cuando recibio la cadena patron, si paso el tiempo timeout
// en milisegundos antes de recibir el patron devuelve FALSE.
// No almacena los datos recibidos!! Simplemente espera a recibir cierto patron.
bool_t waitForReceiveStringOrTimeoutBlocking(
   uartMap_t uart, char* string, uint16_t stringSize, tick_t timeout )
{
1a002e7c:	b510      	push	{r4, lr}
1a002e7e:	b08c      	sub	sp, #48	; 0x30
1a002e80:	4604      	mov	r4, r0
   waitForReceiveStringOrTimeout_t waitText;
   waitForReceiveStringOrTimeoutState_t waitTextState;

   waitTextState = UART_RECEIVE_STRING_CONFIG;

   waitText.state = UART_RECEIVE_STRING_CONFIG;
1a002e82:	2000      	movs	r0, #0
1a002e84:	f88d 0000 	strb.w	r0, [sp]
   waitText.string =  string;
1a002e88:	9101      	str	r1, [sp, #4]
   waitText.stringSize = stringSize;
1a002e8a:	f8ad 2008 	strh.w	r2, [sp, #8]
   waitText.timeout = timeout;
1a002e8e:	e9dd 230e 	ldrd	r2, r3, [sp, #56]	; 0x38
1a002e92:	e9cd 2304 	strd	r2, r3, [sp, #16]

   while( waitTextState != UART_RECEIVE_STRING_RECEIVED_OK &&
1a002e96:	e003      	b.n	1a002ea0 <waitForReceiveStringOrTimeoutBlocking+0x24>
          waitTextState != UART_RECEIVE_STRING_TIMEOUT ) {
      waitTextState = waitForReceiveStringOrTimeout( uart, &waitText );
1a002e98:	4620      	mov	r0, r4
1a002e9a:	4669      	mov	r1, sp
1a002e9c:	f7ff ffb0 	bl	1a002e00 <waitForReceiveStringOrTimeout>
   waitText.state = UART_RECEIVE_STRING_CONFIG;
   waitText.string =  string;
   waitText.stringSize = stringSize;
   waitText.timeout = timeout;

   while( waitTextState != UART_RECEIVE_STRING_RECEIVED_OK &&
1a002ea0:	2802      	cmp	r0, #2
1a002ea2:	d001      	beq.n	1a002ea8 <waitForReceiveStringOrTimeoutBlocking+0x2c>
1a002ea4:	2804      	cmp	r0, #4
1a002ea6:	d1f7      	bne.n	1a002e98 <waitForReceiveStringOrTimeoutBlocking+0x1c>
          waitTextState != UART_RECEIVE_STRING_TIMEOUT ) {
      waitTextState = waitForReceiveStringOrTimeout( uart, &waitText );
   }

   if( waitTextState == UART_RECEIVE_STRING_TIMEOUT ) {
1a002ea8:	2804      	cmp	r0, #4
1a002eaa:	d001      	beq.n	1a002eb0 <waitForReceiveStringOrTimeoutBlocking+0x34>
// No almacena los datos recibidos!! Simplemente espera a recibir cierto patron.
bool_t waitForReceiveStringOrTimeoutBlocking(
   uartMap_t uart, char* string, uint16_t stringSize, tick_t timeout )
{

   bool_t retVal = TRUE; // True if OK
1a002eac:	2001      	movs	r0, #1
1a002eae:	e000      	b.n	1a002eb2 <waitForReceiveStringOrTimeoutBlocking+0x36>
          waitTextState != UART_RECEIVE_STRING_TIMEOUT ) {
      waitTextState = waitForReceiveStringOrTimeout( uart, &waitText );
   }

   if( waitTextState == UART_RECEIVE_STRING_TIMEOUT ) {
      retVal = FALSE;
1a002eb0:	2000      	movs	r0, #0
   }

   return retVal;
}
1a002eb2:	b00c      	add	sp, #48	; 0x30
1a002eb4:	bd10      	pop	{r4, pc}
1a002eb6:	bf00      	nop

1a002eb8 <receiveBytesUntilReceiveStringOrTimeout>:

// Store bytes until receive a given pattern
waitForReceiveStringOrTimeoutState_t receiveBytesUntilReceiveStringOrTimeout(
   uartMap_t uart, waitForReceiveStringOrTimeout_t* instance,
   char* receiveBuffer, uint32_t* receiveBufferSize )
{
1a002eb8:	b570      	push	{r4, r5, r6, lr}
1a002eba:	b082      	sub	sp, #8
1a002ebc:	460c      	mov	r4, r1
1a002ebe:	4616      	mov	r6, r2
1a002ec0:	461d      	mov	r5, r3
   uint8_t receiveByte;
   static uint32_t i = 0;
   //uint32_t j = 0;
   //uint32_t savedReceiveBufferSize = *receiveBufferSize;

   switch( instance->state ) {
1a002ec2:	780b      	ldrb	r3, [r1, #0]
1a002ec4:	2b04      	cmp	r3, #4
1a002ec6:	d852      	bhi.n	1a002f6e <receiveBytesUntilReceiveStringOrTimeout+0xb6>
1a002ec8:	e8df f003 	tbb	[pc, r3]
1a002ecc:	4e481003 	.word	0x4e481003
1a002ed0:	4b          	.byte	0x4b
1a002ed1:	00          	.byte	0x00

   case UART_RECEIVE_STRING_CONFIG:

      delayInit( &(instance->delay), instance->timeout );
1a002ed2:	f101 0018 	add.w	r0, r1, #24
1a002ed6:	e9d1 2304 	ldrd	r2, r3, [r1, #16]
1a002eda:	f000 f8db 	bl	1a003094 <delayInit>

      instance->stringIndex = 0;
1a002ede:	2300      	movs	r3, #0
1a002ee0:	8163      	strh	r3, [r4, #10]
      i = 0;
1a002ee2:	4a25      	ldr	r2, [pc, #148]	; (1a002f78 <receiveBytesUntilReceiveStringOrTimeout+0xc0>)
1a002ee4:	6013      	str	r3, [r2, #0]

      instance->state = UART_RECEIVE_STRING_RECEIVING;
1a002ee6:	2301      	movs	r3, #1
1a002ee8:	7023      	strb	r3, [r4, #0]

      break;
1a002eea:	e042      	b.n	1a002f72 <receiveBytesUntilReceiveStringOrTimeout+0xba>

   case UART_RECEIVE_STRING_RECEIVING:

      if( uartReadByte( uart, &receiveByte ) ) {
1a002eec:	f10d 0107 	add.w	r1, sp, #7
1a002ef0:	f7ff ff78 	bl	1a002de4 <uartReadByte>
1a002ef4:	b328      	cbz	r0, 1a002f42 <receiveBytesUntilReceiveStringOrTimeout+0x8a>

         //uartWriteByte( UART_DEBUG, receiveByte ); // TODO: DEBUG
         if( i < *receiveBufferSize ) {
1a002ef6:	682a      	ldr	r2, [r5, #0]
1a002ef8:	4b1f      	ldr	r3, [pc, #124]	; (1a002f78 <receiveBytesUntilReceiveStringOrTimeout+0xc0>)
1a002efa:	681b      	ldr	r3, [r3, #0]
1a002efc:	429a      	cmp	r2, r3
1a002efe:	d90b      	bls.n	1a002f18 <receiveBytesUntilReceiveStringOrTimeout+0x60>
            receiveBuffer[i] = receiveByte;
1a002f00:	f89d 1007 	ldrb.w	r1, [sp, #7]
1a002f04:	54f1      	strb	r1, [r6, r3]
            i++;
1a002f06:	3301      	adds	r3, #1
1a002f08:	4a1b      	ldr	r2, [pc, #108]	; (1a002f78 <receiveBytesUntilReceiveStringOrTimeout+0xc0>)
1a002f0a:	6013      	str	r3, [r2, #0]
            *receiveBufferSize = i;
            i = 0;
            return instance->state;
         }

         if( (instance->string)[(instance->stringIndex)] == receiveByte ) {
1a002f0c:	6860      	ldr	r0, [r4, #4]
1a002f0e:	8962      	ldrh	r2, [r4, #10]
1a002f10:	5c80      	ldrb	r0, [r0, r2]
1a002f12:	4288      	cmp	r0, r1
1a002f14:	d115      	bne.n	1a002f42 <receiveBytesUntilReceiveStringOrTimeout+0x8a>
1a002f16:	e007      	b.n	1a002f28 <receiveBytesUntilReceiveStringOrTimeout+0x70>
         //uartWriteByte( UART_DEBUG, receiveByte ); // TODO: DEBUG
         if( i < *receiveBufferSize ) {
            receiveBuffer[i] = receiveByte;
            i++;
         } else {
            instance->state = UART_RECEIVE_STRING_FULL_BUFFER;
1a002f18:	2203      	movs	r2, #3
1a002f1a:	7022      	strb	r2, [r4, #0]
            *receiveBufferSize = i;
1a002f1c:	602b      	str	r3, [r5, #0]
            i = 0;
1a002f1e:	2200      	movs	r2, #0
1a002f20:	4b15      	ldr	r3, [pc, #84]	; (1a002f78 <receiveBytesUntilReceiveStringOrTimeout+0xc0>)
1a002f22:	601a      	str	r2, [r3, #0]
            return instance->state;
1a002f24:	7820      	ldrb	r0, [r4, #0]
1a002f26:	e025      	b.n	1a002f74 <receiveBytesUntilReceiveStringOrTimeout+0xbc>
         }

         if( (instance->string)[(instance->stringIndex)] == receiveByte ) {

            (instance->stringIndex)++;
1a002f28:	3201      	adds	r2, #1
1a002f2a:	b292      	uxth	r2, r2
1a002f2c:	8162      	strh	r2, [r4, #10]

            if( (instance->stringIndex) == (instance->stringSize - 1) ) {
1a002f2e:	8921      	ldrh	r1, [r4, #8]
1a002f30:	3901      	subs	r1, #1
1a002f32:	428a      	cmp	r2, r1
1a002f34:	d105      	bne.n	1a002f42 <receiveBytesUntilReceiveStringOrTimeout+0x8a>
               instance->state = UART_RECEIVE_STRING_RECEIVED_OK;
1a002f36:	2202      	movs	r2, #2
1a002f38:	7022      	strb	r2, [r4, #0]
               *receiveBufferSize = i;
1a002f3a:	602b      	str	r3, [r5, #0]
               for( j=0; j<i; j++ ){
                  uartWriteByte( UART_DEBUG, receiveBuffer[j] );
               }
               uartWriteString( UART_DEBUG, "\r\n" );
               */
               i = 0;
1a002f3c:	2200      	movs	r2, #0
1a002f3e:	4b0e      	ldr	r3, [pc, #56]	; (1a002f78 <receiveBytesUntilReceiveStringOrTimeout+0xc0>)
1a002f40:	601a      	str	r2, [r3, #0]

         }

      }

      if( delayRead( &(instance->delay) ) ) {
1a002f42:	f104 0018 	add.w	r0, r4, #24
1a002f46:	f000 f8b5 	bl	1a0030b4 <delayRead>
1a002f4a:	b190      	cbz	r0, 1a002f72 <receiveBytesUntilReceiveStringOrTimeout+0xba>
         instance->state = UART_RECEIVE_STRING_TIMEOUT;
1a002f4c:	2304      	movs	r3, #4
1a002f4e:	7023      	strb	r3, [r4, #0]
         //uartWriteString( UART_DEBUG, "\r\n" ); // TODO: DEBUG
         *receiveBufferSize = i;
1a002f50:	4b09      	ldr	r3, [pc, #36]	; (1a002f78 <receiveBytesUntilReceiveStringOrTimeout+0xc0>)
1a002f52:	681a      	ldr	r2, [r3, #0]
1a002f54:	602a      	str	r2, [r5, #0]
         i = 0;
1a002f56:	2200      	movs	r2, #0
1a002f58:	601a      	str	r2, [r3, #0]
1a002f5a:	e00a      	b.n	1a002f72 <receiveBytesUntilReceiveStringOrTimeout+0xba>
      }

      break;

   case UART_RECEIVE_STRING_RECEIVED_OK:
      instance->state = UART_RECEIVE_STRING_CONFIG;
1a002f5c:	2300      	movs	r3, #0
1a002f5e:	700b      	strb	r3, [r1, #0]
      break;
1a002f60:	e007      	b.n	1a002f72 <receiveBytesUntilReceiveStringOrTimeout+0xba>

   case UART_RECEIVE_STRING_TIMEOUT:
      instance->state = UART_RECEIVE_STRING_CONFIG;
1a002f62:	2300      	movs	r3, #0
1a002f64:	700b      	strb	r3, [r1, #0]
      break;
1a002f66:	e004      	b.n	1a002f72 <receiveBytesUntilReceiveStringOrTimeout+0xba>

   case UART_RECEIVE_STRING_FULL_BUFFER:
      instance->state = UART_RECEIVE_STRING_CONFIG;
1a002f68:	2300      	movs	r3, #0
1a002f6a:	700b      	strb	r3, [r1, #0]
      break;
1a002f6c:	e001      	b.n	1a002f72 <receiveBytesUntilReceiveStringOrTimeout+0xba>

   default:
      instance->state = UART_RECEIVE_STRING_CONFIG;
1a002f6e:	2300      	movs	r3, #0
1a002f70:	700b      	strb	r3, [r1, #0]
      break;
   }

   return instance->state;
1a002f72:	7820      	ldrb	r0, [r4, #0]
}
1a002f74:	b002      	add	sp, #8
1a002f76:	bd70      	pop	{r4, r5, r6, pc}
1a002f78:	10000560 	.word	0x10000560

1a002f7c <receiveBytesUntilReceiveStringOrTimeoutBlocking>:
// en milisegundos antes de recibir el patron devuelve FALSE.
bool_t receiveBytesUntilReceiveStringOrTimeoutBlocking(
   uartMap_t uart, char* string, uint16_t stringSize,
   char* receiveBuffer, uint32_t* receiveBufferSize,
   tick_t timeout )
{
1a002f7c:	b570      	push	{r4, r5, r6, lr}
1a002f7e:	b08c      	sub	sp, #48	; 0x30
1a002f80:	4606      	mov	r6, r0
1a002f82:	461d      	mov	r5, r3
1a002f84:	9c10      	ldr	r4, [sp, #64]	; 0x40
   waitForReceiveStringOrTimeout_t waitText;
   waitForReceiveStringOrTimeoutState_t waitTextState;

   waitTextState = UART_RECEIVE_STRING_CONFIG;

   waitText.state = UART_RECEIVE_STRING_CONFIG;
1a002f86:	2000      	movs	r0, #0
1a002f88:	f88d 0000 	strb.w	r0, [sp]
   waitText.string =  string;
1a002f8c:	9101      	str	r1, [sp, #4]
   waitText.stringSize = stringSize;
1a002f8e:	f8ad 2008 	strh.w	r2, [sp, #8]
   waitText.timeout = timeout;
1a002f92:	e9dd 2312 	ldrd	r2, r3, [sp, #72]	; 0x48
1a002f96:	e9cd 2304 	strd	r2, r3, [sp, #16]

   while( waitTextState != UART_RECEIVE_STRING_RECEIVED_OK &&
1a002f9a:	e005      	b.n	1a002fa8 <receiveBytesUntilReceiveStringOrTimeoutBlocking+0x2c>
          waitTextState != UART_RECEIVE_STRING_TIMEOUT ) {
      waitTextState = receiveBytesUntilReceiveStringOrTimeout(
1a002f9c:	4630      	mov	r0, r6
1a002f9e:	4669      	mov	r1, sp
1a002fa0:	462a      	mov	r2, r5
1a002fa2:	4623      	mov	r3, r4
1a002fa4:	f7ff ff88 	bl	1a002eb8 <receiveBytesUntilReceiveStringOrTimeout>
   waitText.state = UART_RECEIVE_STRING_CONFIG;
   waitText.string =  string;
   waitText.stringSize = stringSize;
   waitText.timeout = timeout;

   while( waitTextState != UART_RECEIVE_STRING_RECEIVED_OK &&
1a002fa8:	2802      	cmp	r0, #2
1a002faa:	d001      	beq.n	1a002fb0 <receiveBytesUntilReceiveStringOrTimeoutBlocking+0x34>
1a002fac:	2804      	cmp	r0, #4
1a002fae:	d1f5      	bne.n	1a002f9c <receiveBytesUntilReceiveStringOrTimeoutBlocking+0x20>
      waitTextState = receiveBytesUntilReceiveStringOrTimeout(
                         uart, &waitText,
                         receiveBuffer, receiveBufferSize );
   }

   if( waitTextState == UART_RECEIVE_STRING_TIMEOUT ) {
1a002fb0:	2804      	cmp	r0, #4
1a002fb2:	d001      	beq.n	1a002fb8 <receiveBytesUntilReceiveStringOrTimeoutBlocking+0x3c>
   uartMap_t uart, char* string, uint16_t stringSize,
   char* receiveBuffer, uint32_t* receiveBufferSize,
   tick_t timeout )
{

   bool_t retVal = TRUE; // True if OK
1a002fb4:	2001      	movs	r0, #1
1a002fb6:	e000      	b.n	1a002fba <receiveBytesUntilReceiveStringOrTimeoutBlocking+0x3e>
                         uart, &waitText,
                         receiveBuffer, receiveBufferSize );
   }

   if( waitTextState == UART_RECEIVE_STRING_TIMEOUT ) {
      retVal = FALSE;
1a002fb8:	2000      	movs	r0, #0
   }

   return retVal;
}
1a002fba:	b00c      	add	sp, #48	; 0x30
1a002fbc:	bd70      	pop	{r4, r5, r6, pc}
1a002fbe:	bf00      	nop

1a002fc0 <uartWriteByte>:
   return retVal;
}

// Blocking Write 1 byte to TX FIFO
void uartWriteByte( uartMap_t uart, const uint8_t value )
{
1a002fc0:	b538      	push	{r3, r4, r5, lr}
1a002fc2:	4604      	mov	r4, r0
1a002fc4:	460d      	mov	r5, r1
   // Wait for space in FIFO (blocking)
   while( uartTxReady( uart ) == FALSE );
1a002fc6:	4620      	mov	r0, r4
1a002fc8:	f7ff feae 	bl	1a002d28 <uartTxReady>
1a002fcc:	2800      	cmp	r0, #0
1a002fce:	d0fa      	beq.n	1a002fc6 <uartWriteByte+0x6>
   // Send byte
   uartTxWrite( uart, value );
1a002fd0:	4620      	mov	r0, r4
1a002fd2:	4629      	mov	r1, r5
1a002fd4:	f7ff febe 	bl	1a002d54 <uartTxWrite>
1a002fd8:	bd38      	pop	{r3, r4, r5, pc}
1a002fda:	bf00      	nop

1a002fdc <uartWriteString>:
}

// Blocking Send a string
void uartWriteString( uartMap_t uart, const char* str )
{
1a002fdc:	b538      	push	{r3, r4, r5, lr}
1a002fde:	4605      	mov	r5, r0
1a002fe0:	460c      	mov	r4, r1
   while( *str != 0 ) {
1a002fe2:	e003      	b.n	1a002fec <uartWriteString+0x10>
      uartWriteByte( uart, (uint8_t)*str );
1a002fe4:	4628      	mov	r0, r5
1a002fe6:	f7ff ffeb 	bl	1a002fc0 <uartWriteByte>
      str++;
1a002fea:	3401      	adds	r4, #1
}

// Blocking Send a string
void uartWriteString( uartMap_t uart, const char* str )
{
   while( *str != 0 ) {
1a002fec:	7821      	ldrb	r1, [r4, #0]
1a002fee:	2900      	cmp	r1, #0
1a002ff0:	d1f8      	bne.n	1a002fe4 <uartWriteString+0x8>
      uartWriteByte( uart, (uint8_t)*str );
      str++;
   }
}
1a002ff2:	bd38      	pop	{r3, r4, r5, pc}

1a002ff4 <UART2_IRQHandler>:
}

// UART2 (USB-UART) or UART_ENET
// 0x2a 0x000000A8 - Handler for ISR UART2 (IRQ 26)
void UART2_IRQHandler(void)
{
1a002ff4:	b508      	push	{r3, lr}
   uartProcessIRQ( UART_USB );
1a002ff6:	2003      	movs	r0, #3
1a002ff8:	f7ff fe34 	bl	1a002c64 <uartProcessIRQ>
1a002ffc:	bd08      	pop	{r3, pc}
1a002ffe:	bf00      	nop

1a003000 <UART3_IRQHandler>:
}

// UART3 (RS232)
// 0x2b 0x000000AC - Handler for ISR UART3 (IRQ 27)
void UART3_IRQHandler(void)
{
1a003000:	b508      	push	{r3, lr}
   uartProcessIRQ( UART_232 );
1a003002:	2005      	movs	r0, #5
1a003004:	f7ff fe2e 	bl	1a002c64 <uartProcessIRQ>
1a003008:	bd08      	pop	{r3, pc}
1a00300a:	bf00      	nop

1a00300c <spiInit>:
bool_t spiInit( spiMap_t spi )
{

   bool_t retVal = TRUE;

   if( spi == SPI0 ) {
1a00300c:	b9e8      	cbnz	r0, 1a00304a <spiInit+0x3e>
/*==================[internal functions definition]==========================*/

/*==================[external functions definition]==========================*/

bool_t spiInit( spiMap_t spi )
{
1a00300e:	b510      	push	{r4, lr}
1a003010:	4b0f      	ldr	r3, [pc, #60]	; (1a003050 <spiInit+0x44>)
1a003012:	2200      	movs	r2, #0
1a003014:	f8c3 2790 	str.w	r2, [r3, #1936]	; 0x790
1a003018:	21c5      	movs	r1, #197	; 0xc5
1a00301a:	f8c3 108c 	str.w	r1, [r3, #140]	; 0x8c
1a00301e:	2105      	movs	r1, #5
1a003020:	f8c3 1090 	str.w	r1, [r3, #144]	; 0x90
1a003024:	f8c3 2304 	str.w	r2, [r3, #772]	; 0x304
 * @param	pin		: GPIO pin to set direction on as output
 * @return	Nothing
 */
STATIC INLINE void Chip_GPIO_SetPinDIROutput(LPC_GPIO_T *pGPIO, uint8_t port, uint8_t pin)
{
	pGPIO->DIR[port] |= 1UL << pin;
1a003028:	490a      	ldr	r1, [pc, #40]	; (1a003054 <spiInit+0x48>)
1a00302a:	f242 020c 	movw	r2, #8204	; 0x200c
1a00302e:	588b      	ldr	r3, [r1, r2]
1a003030:	f043 0301 	orr.w	r3, r3, #1
1a003034:	508b      	str	r3, [r1, r2]

      Chip_SCU_PinMuxSet(0x6, 1, (SCU_MODE_PULLUP | SCU_MODE_FUNC0)); // CS1 configured as GPIO
      Chip_GPIO_SetPinDIROutput(LPC_GPIO_PORT, 3, 0);

      // Initialize SSP Peripheral
      Chip_SSP_Init( LPC_SSP1 );
1a003036:	4c08      	ldr	r4, [pc, #32]	; (1a003058 <spiInit+0x4c>)
1a003038:	4620      	mov	r0, r4
1a00303a:	f001 fa35 	bl	1a0044a8 <Chip_SSP_Init>
 * @param	pSSP		: The base of SSP peripheral on the chip
 * @return	 Nothing
 */
STATIC INLINE void Chip_SSP_Enable(LPC_SSP_T *pSSP)
{
	pSSP->CR1 |= SSP_CR1_SSP_EN;
1a00303e:	6863      	ldr	r3, [r4, #4]
1a003040:	f043 0302 	orr.w	r3, r3, #2
1a003044:	6063      	str	r3, [r4, #4]
/*==================[external functions definition]==========================*/

bool_t spiInit( spiMap_t spi )
{

   bool_t retVal = TRUE;
1a003046:	2001      	movs	r0, #1
1a003048:	bd10      	pop	{r4, pc}
      // Initialize SSP Peripheral
      Chip_SSP_Init( LPC_SSP1 );
      Chip_SSP_Enable( LPC_SSP1 );

   } else {
      retVal = FALSE;
1a00304a:	2000      	movs	r0, #0
1a00304c:	4770      	bx	lr
1a00304e:	bf00      	nop
1a003050:	40086000 	.word	0x40086000
1a003054:	400f4000 	.word	0x400f4000
1a003058:	400c5000 	.word	0x400c5000

1a00305c <delay>:
/* ---- Blocking Delay ---- */

// delay( 1, DELAY_US );

void delay(tick_t duration)
{
1a00305c:	e92d 43f8 	stmdb	sp!, {r3, r4, r5, r6, r7, r8, r9, lr}
1a003060:	4680      	mov	r8, r0
1a003062:	4689      	mov	r9, r1
   tick_t startTime = tickRead();
1a003064:	f7ff fd86 	bl	1a002b74 <tickRead>
1a003068:	4606      	mov	r6, r0
1a00306a:	460f      	mov	r7, r1
   while ( (tick_t)(tickRead() - startTime) < duration/tickRateMS );
1a00306c:	f7ff fd82 	bl	1a002b74 <tickRead>
1a003070:	1b84      	subs	r4, r0, r6
1a003072:	eb61 0507 	sbc.w	r5, r1, r7
1a003076:	4640      	mov	r0, r8
1a003078:	4649      	mov	r1, r9
1a00307a:	4b05      	ldr	r3, [pc, #20]	; (1a003090 <delay+0x34>)
1a00307c:	e9d3 2300 	ldrd	r2, r3, [r3]
1a003080:	f001 fa8e 	bl	1a0045a0 <__aeabi_uldivmod>
1a003084:	428d      	cmp	r5, r1
1a003086:	bf08      	it	eq
1a003088:	4284      	cmpeq	r4, r0
1a00308a:	d3ef      	bcc.n	1a00306c <delay+0x10>
}
1a00308c:	e8bd 83f8 	ldmia.w	sp!, {r3, r4, r5, r6, r7, r8, r9, pc}
1a003090:	100009e8 	.word	0x100009e8

1a003094 <delayInit>:


/* ---- Non Blocking Delay ---- */

void delayInit( delay_t * delay, tick_t duration )
{
1a003094:	b510      	push	{r4, lr}
1a003096:	4604      	mov	r4, r0
   delay->duration = duration/tickRateMS;
1a003098:	4610      	mov	r0, r2
1a00309a:	4619      	mov	r1, r3
1a00309c:	4b04      	ldr	r3, [pc, #16]	; (1a0030b0 <delayInit+0x1c>)
1a00309e:	e9d3 2300 	ldrd	r2, r3, [r3]
1a0030a2:	f001 fa7d 	bl	1a0045a0 <__aeabi_uldivmod>
1a0030a6:	e9c4 0102 	strd	r0, r1, [r4, #8]
   delay->running = 0;
1a0030aa:	2300      	movs	r3, #0
1a0030ac:	7423      	strb	r3, [r4, #16]
1a0030ae:	bd10      	pop	{r4, pc}
1a0030b0:	100009e8 	.word	0x100009e8

1a0030b4 <delayRead>:
}

bool_t delayRead( delay_t * delay )
{
1a0030b4:	b510      	push	{r4, lr}
1a0030b6:	4604      	mov	r4, r0

   bool_t timeArrived = 0;

   if( !delay->running ) {
1a0030b8:	7c03      	ldrb	r3, [r0, #16]
1a0030ba:	b93b      	cbnz	r3, 1a0030cc <delayRead+0x18>
      delay->startTime = tickRead();
1a0030bc:	f7ff fd5a 	bl	1a002b74 <tickRead>
1a0030c0:	e9c4 0100 	strd	r0, r1, [r4]
      delay->running = 1;
1a0030c4:	2301      	movs	r3, #1
1a0030c6:	7423      	strb	r3, [r4, #16]
}

bool_t delayRead( delay_t * delay )
{

   bool_t timeArrived = 0;
1a0030c8:	2000      	movs	r0, #0
1a0030ca:	bd10      	pop	{r4, pc}

   if( !delay->running ) {
      delay->startTime = tickRead();
      delay->running = 1;
   } else {
      if ( (tick_t)(tickRead() - delay->startTime) >= delay->duration ) {
1a0030cc:	f7ff fd52 	bl	1a002b74 <tickRead>
1a0030d0:	e9d4 2300 	ldrd	r2, r3, [r4]
1a0030d4:	1a80      	subs	r0, r0, r2
1a0030d6:	eb61 0103 	sbc.w	r1, r1, r3
1a0030da:	e9d4 2302 	ldrd	r2, r3, [r4, #8]
1a0030de:	4299      	cmp	r1, r3
1a0030e0:	bf08      	it	eq
1a0030e2:	4290      	cmpeq	r0, r2
1a0030e4:	d303      	bcc.n	1a0030ee <delayRead+0x3a>
         timeArrived = 1;
         delay->running = 0;
1a0030e6:	2300      	movs	r3, #0
1a0030e8:	7423      	strb	r3, [r4, #16]
   if( !delay->running ) {
      delay->startTime = tickRead();
      delay->running = 1;
   } else {
      if ( (tick_t)(tickRead() - delay->startTime) >= delay->duration ) {
         timeArrived = 1;
1a0030ea:	2001      	movs	r0, #1
1a0030ec:	bd10      	pop	{r4, pc}
}

bool_t delayRead( delay_t * delay )
{

   bool_t timeArrived = 0;
1a0030ee:	2000      	movs	r0, #0
         delay->running = 0;
      }
   }

   return timeArrived;
}
1a0030f0:	bd10      	pop	{r4, pc}
1a0030f2:	bf00      	nop

1a0030f4 <errorOcurred>:
/* Causes:
 * User forgot to initialize the functions for the compare match interrupt on Timer_init call
 */
static void errorOcurred( void* ptr )
{
   while(1);
1a0030f4:	e7fe      	b.n	1a0030f4 <errorOcurred>
1a0030f6:	bf00      	nop

1a0030f8 <doNothing>:
}

static void doNothing( void* ptr )
{
1a0030f8:	4770      	bx	lr
1a0030fa:	bf00      	nop

1a0030fc <TIMER0_IRQHandler>:
/*
 * @Brief:   Executes the functions passed by parameter in the Timer_init,
 *   at the chosen frequencies
 */
void TIMER0_IRQHandler(void)
{
1a0030fc:	b510      	push	{r4, lr}

   uint8_t compareMatchNumber = 0;

   for( compareMatchNumber = TIMERCOMPAREMATCH0;
1a0030fe:	2400      	movs	r4, #0
1a003100:	e013      	b.n	1a00312a <TIMER0_IRQHandler+0x2e>
 * @note	Determine if the match interrupt for the passed timer and match
 * counter is pending.
 */
STATIC INLINE bool Chip_TIMER_MatchPending(LPC_TIMER_T *pTMR, int8_t matchnum)
{
	return (bool) ((pTMR->IR & TIMER_MATCH_INT(matchnum)) != 0);
1a003102:	4b0b      	ldr	r3, [pc, #44]	; (1a003130 <TIMER0_IRQHandler+0x34>)
1a003104:	681a      	ldr	r2, [r3, #0]
1a003106:	f004 010f 	and.w	r1, r4, #15
1a00310a:	2301      	movs	r3, #1
1a00310c:	408b      	lsls	r3, r1
        compareMatchNumber <= TIMERCOMPAREMATCH3;
        compareMatchNumber++ ) {
      if( Chip_TIMER_MatchPending(LPC_TIMER0, compareMatchNumber) ) {
1a00310e:	421a      	tst	r2, r3
1a003110:	d009      	beq.n	1a003126 <TIMER0_IRQHandler+0x2a>
         /*Run the functions saved in the timer dynamic data structure*/
         (*timer_dd[TIMER0].timerCompareMatchFunctionPointer[compareMatchNumber])(0);
1a003112:	4b08      	ldr	r3, [pc, #32]	; (1a003134 <TIMER0_IRQHandler+0x38>)
1a003114:	f853 3024 	ldr.w	r3, [r3, r4, lsl #2]
1a003118:	2000      	movs	r0, #0
1a00311a:	4798      	blx	r3
 * @return	Nothing
 * @note	Clears a pending timer match interrupt.
 */
STATIC INLINE void Chip_TIMER_ClearMatch(LPC_TIMER_T *pTMR, int8_t matchnum)
{
	pTMR->IR = TIMER_IR_CLR(matchnum);
1a00311c:	b262      	sxtb	r2, r4
1a00311e:	2301      	movs	r3, #1
1a003120:	4093      	lsls	r3, r2
1a003122:	4a03      	ldr	r2, [pc, #12]	; (1a003130 <TIMER0_IRQHandler+0x34>)
1a003124:	6013      	str	r3, [r2, #0]

   uint8_t compareMatchNumber = 0;

   for( compareMatchNumber = TIMERCOMPAREMATCH0;
        compareMatchNumber <= TIMERCOMPAREMATCH3;
        compareMatchNumber++ ) {
1a003126:	3401      	adds	r4, #1
1a003128:	b2e4      	uxtb	r4, r4
void TIMER0_IRQHandler(void)
{

   uint8_t compareMatchNumber = 0;

   for( compareMatchNumber = TIMERCOMPAREMATCH0;
1a00312a:	2c03      	cmp	r4, #3
1a00312c:	d9e9      	bls.n	1a003102 <TIMER0_IRQHandler+0x6>
         /*Run the functions saved in the timer dynamic data structure*/
         (*timer_dd[TIMER0].timerCompareMatchFunctionPointer[compareMatchNumber])(0);
         Chip_TIMER_ClearMatch(LPC_TIMER0, compareMatchNumber);
      }
   }
}
1a00312e:	bd10      	pop	{r4, pc}
1a003130:	40084000 	.word	0x40084000
1a003134:	10000014 	.word	0x10000014

1a003138 <TIMER1_IRQHandler>:

void TIMER1_IRQHandler( void )
{
1a003138:	b510      	push	{r4, lr}

   uint8_t compareMatchNumber = 0;

   for( compareMatchNumber = TIMERCOMPAREMATCH0;
1a00313a:	2400      	movs	r4, #0
1a00313c:	e014      	b.n	1a003168 <TIMER1_IRQHandler+0x30>
 * @note	Determine if the match interrupt for the passed timer and match
 * counter is pending.
 */
STATIC INLINE bool Chip_TIMER_MatchPending(LPC_TIMER_T *pTMR, int8_t matchnum)
{
	return (bool) ((pTMR->IR & TIMER_MATCH_INT(matchnum)) != 0);
1a00313e:	4b0c      	ldr	r3, [pc, #48]	; (1a003170 <TIMER1_IRQHandler+0x38>)
1a003140:	681a      	ldr	r2, [r3, #0]
1a003142:	f004 010f 	and.w	r1, r4, #15
1a003146:	2301      	movs	r3, #1
1a003148:	408b      	lsls	r3, r1
        compareMatchNumber <= TIMERCOMPAREMATCH3;
        compareMatchNumber++ ) {
      if( Chip_TIMER_MatchPending(LPC_TIMER1, compareMatchNumber) ) {
1a00314a:	421a      	tst	r2, r3
1a00314c:	d00a      	beq.n	1a003164 <TIMER1_IRQHandler+0x2c>
         /*Run the functions saved in the timer dynamic data structure*/
         (*timer_dd[TIMER1].timerCompareMatchFunctionPointer[compareMatchNumber])(0);
1a00314e:	1d23      	adds	r3, r4, #4
1a003150:	4a08      	ldr	r2, [pc, #32]	; (1a003174 <TIMER1_IRQHandler+0x3c>)
1a003152:	f852 3023 	ldr.w	r3, [r2, r3, lsl #2]
1a003156:	2000      	movs	r0, #0
1a003158:	4798      	blx	r3
 * @return	Nothing
 * @note	Clears a pending timer match interrupt.
 */
STATIC INLINE void Chip_TIMER_ClearMatch(LPC_TIMER_T *pTMR, int8_t matchnum)
{
	pTMR->IR = TIMER_IR_CLR(matchnum);
1a00315a:	b262      	sxtb	r2, r4
1a00315c:	2301      	movs	r3, #1
1a00315e:	4093      	lsls	r3, r2
1a003160:	4a03      	ldr	r2, [pc, #12]	; (1a003170 <TIMER1_IRQHandler+0x38>)
1a003162:	6013      	str	r3, [r2, #0]

   uint8_t compareMatchNumber = 0;

   for( compareMatchNumber = TIMERCOMPAREMATCH0;
        compareMatchNumber <= TIMERCOMPAREMATCH3;
        compareMatchNumber++ ) {
1a003164:	3401      	adds	r4, #1
1a003166:	b2e4      	uxtb	r4, r4
void TIMER1_IRQHandler( void )
{

   uint8_t compareMatchNumber = 0;

   for( compareMatchNumber = TIMERCOMPAREMATCH0;
1a003168:	2c03      	cmp	r4, #3
1a00316a:	d9e8      	bls.n	1a00313e <TIMER1_IRQHandler+0x6>
         /*Run the functions saved in the timer dynamic data structure*/
         (*timer_dd[TIMER1].timerCompareMatchFunctionPointer[compareMatchNumber])(0);
         Chip_TIMER_ClearMatch(LPC_TIMER1, compareMatchNumber);
      }
   }
}
1a00316c:	bd10      	pop	{r4, pc}
1a00316e:	bf00      	nop
1a003170:	40085000 	.word	0x40085000
1a003174:	10000014 	.word	0x10000014

1a003178 <TIMER2_IRQHandler>:

void TIMER2_IRQHandler( void )
{
1a003178:	b510      	push	{r4, lr}
   uint8_t compareMatchNumber = 0;

   for( compareMatchNumber = TIMERCOMPAREMATCH0;
1a00317a:	2400      	movs	r4, #0
1a00317c:	e015      	b.n	1a0031aa <TIMER2_IRQHandler+0x32>
 * @note	Determine if the match interrupt for the passed timer and match
 * counter is pending.
 */
STATIC INLINE bool Chip_TIMER_MatchPending(LPC_TIMER_T *pTMR, int8_t matchnum)
{
	return (bool) ((pTMR->IR & TIMER_MATCH_INT(matchnum)) != 0);
1a00317e:	4b0c      	ldr	r3, [pc, #48]	; (1a0031b0 <TIMER2_IRQHandler+0x38>)
1a003180:	681a      	ldr	r2, [r3, #0]
1a003182:	f004 010f 	and.w	r1, r4, #15
1a003186:	2301      	movs	r3, #1
1a003188:	408b      	lsls	r3, r1
        compareMatchNumber <= TIMERCOMPAREMATCH3;
        compareMatchNumber++ ) {
      if( Chip_TIMER_MatchPending(LPC_TIMER2, compareMatchNumber) ) {
1a00318a:	421a      	tst	r2, r3
1a00318c:	d00b      	beq.n	1a0031a6 <TIMER2_IRQHandler+0x2e>
         /*Run the functions saved in the timer dynamic data structure*/
         (*timer_dd[TIMER2].timerCompareMatchFunctionPointer[compareMatchNumber])(0);
1a00318e:	f104 0308 	add.w	r3, r4, #8
1a003192:	4a08      	ldr	r2, [pc, #32]	; (1a0031b4 <TIMER2_IRQHandler+0x3c>)
1a003194:	f852 3023 	ldr.w	r3, [r2, r3, lsl #2]
1a003198:	2000      	movs	r0, #0
1a00319a:	4798      	blx	r3
 * @return	Nothing
 * @note	Clears a pending timer match interrupt.
 */
STATIC INLINE void Chip_TIMER_ClearMatch(LPC_TIMER_T *pTMR, int8_t matchnum)
{
	pTMR->IR = TIMER_IR_CLR(matchnum);
1a00319c:	b262      	sxtb	r2, r4
1a00319e:	2301      	movs	r3, #1
1a0031a0:	4093      	lsls	r3, r2
1a0031a2:	4a03      	ldr	r2, [pc, #12]	; (1a0031b0 <TIMER2_IRQHandler+0x38>)
1a0031a4:	6013      	str	r3, [r2, #0]
{
   uint8_t compareMatchNumber = 0;

   for( compareMatchNumber = TIMERCOMPAREMATCH0;
        compareMatchNumber <= TIMERCOMPAREMATCH3;
        compareMatchNumber++ ) {
1a0031a6:	3401      	adds	r4, #1
1a0031a8:	b2e4      	uxtb	r4, r4

void TIMER2_IRQHandler( void )
{
   uint8_t compareMatchNumber = 0;

   for( compareMatchNumber = TIMERCOMPAREMATCH0;
1a0031aa:	2c03      	cmp	r4, #3
1a0031ac:	d9e7      	bls.n	1a00317e <TIMER2_IRQHandler+0x6>
         /*Run the functions saved in the timer dynamic data structure*/
         (*timer_dd[TIMER2].timerCompareMatchFunctionPointer[compareMatchNumber])(0);
         Chip_TIMER_ClearMatch(LPC_TIMER2, compareMatchNumber);
      }
   }
}
1a0031ae:	bd10      	pop	{r4, pc}
1a0031b0:	400c3000 	.word	0x400c3000
1a0031b4:	10000014 	.word	0x10000014

1a0031b8 <TIMER3_IRQHandler>:

/*fixme __attribute__ ((section(".after_vectors")))*/
void TIMER3_IRQHandler( void )
{
1a0031b8:	b510      	push	{r4, lr}

   uint8_t compareMatchNumber = 0;

   for( compareMatchNumber = TIMERCOMPAREMATCH0;
1a0031ba:	2400      	movs	r4, #0
1a0031bc:	e015      	b.n	1a0031ea <TIMER3_IRQHandler+0x32>
 * @note	Determine if the match interrupt for the passed timer and match
 * counter is pending.
 */
STATIC INLINE bool Chip_TIMER_MatchPending(LPC_TIMER_T *pTMR, int8_t matchnum)
{
	return (bool) ((pTMR->IR & TIMER_MATCH_INT(matchnum)) != 0);
1a0031be:	4b0c      	ldr	r3, [pc, #48]	; (1a0031f0 <TIMER3_IRQHandler+0x38>)
1a0031c0:	681a      	ldr	r2, [r3, #0]
1a0031c2:	f004 010f 	and.w	r1, r4, #15
1a0031c6:	2301      	movs	r3, #1
1a0031c8:	408b      	lsls	r3, r1
        compareMatchNumber <= TIMERCOMPAREMATCH3;
        compareMatchNumber++ ) {
      if (Chip_TIMER_MatchPending(LPC_TIMER3, compareMatchNumber)) {
1a0031ca:	421a      	tst	r2, r3
1a0031cc:	d00b      	beq.n	1a0031e6 <TIMER3_IRQHandler+0x2e>
         /*Run the functions saved in the timer dynamic data structure*/
         (*timer_dd[TIMER3].timerCompareMatchFunctionPointer[compareMatchNumber])(0);
1a0031ce:	f104 030c 	add.w	r3, r4, #12
1a0031d2:	4a08      	ldr	r2, [pc, #32]	; (1a0031f4 <TIMER3_IRQHandler+0x3c>)
1a0031d4:	f852 3023 	ldr.w	r3, [r2, r3, lsl #2]
1a0031d8:	2000      	movs	r0, #0
1a0031da:	4798      	blx	r3
 * @return	Nothing
 * @note	Clears a pending timer match interrupt.
 */
STATIC INLINE void Chip_TIMER_ClearMatch(LPC_TIMER_T *pTMR, int8_t matchnum)
{
	pTMR->IR = TIMER_IR_CLR(matchnum);
1a0031dc:	b262      	sxtb	r2, r4
1a0031de:	2301      	movs	r3, #1
1a0031e0:	4093      	lsls	r3, r2
1a0031e2:	4a03      	ldr	r2, [pc, #12]	; (1a0031f0 <TIMER3_IRQHandler+0x38>)
1a0031e4:	6013      	str	r3, [r2, #0]

   uint8_t compareMatchNumber = 0;

   for( compareMatchNumber = TIMERCOMPAREMATCH0;
        compareMatchNumber <= TIMERCOMPAREMATCH3;
        compareMatchNumber++ ) {
1a0031e6:	3401      	adds	r4, #1
1a0031e8:	b2e4      	uxtb	r4, r4
void TIMER3_IRQHandler( void )
{

   uint8_t compareMatchNumber = 0;

   for( compareMatchNumber = TIMERCOMPAREMATCH0;
1a0031ea:	2c03      	cmp	r4, #3
1a0031ec:	d9e7      	bls.n	1a0031be <TIMER3_IRQHandler+0x6>
         /*Run the functions saved in the timer dynamic data structure*/
         (*timer_dd[TIMER3].timerCompareMatchFunctionPointer[compareMatchNumber])(0);
         Chip_TIMER_ClearMatch(LPC_TIMER3, compareMatchNumber);
      }
   }
}
1a0031ee:	bd10      	pop	{r4, pc}
1a0031f0:	400c4000 	.word	0x400c4000
1a0031f4:	10000014 	.word	0x10000014

1a0031f8 <adcInit>:
 * @brief:  enable/disable the ADC and DAC peripheral
 * @param:  ADC_ENABLE, ADC_DISABLE
 * @return: none
*/
void adcInit( adcInit_t config )
{
1a0031f8:	b510      	push	{r4, lr}
1a0031fa:	b082      	sub	sp, #8

   switch(config) {
1a0031fc:	b110      	cbz	r0, 1a003204 <adcInit+0xc>
1a0031fe:	2801      	cmp	r0, #1
1a003200:	d037      	beq.n	1a003272 <adcInit+0x7a>
1a003202:	e039      	b.n	1a003278 <adcInit+0x80>

      /* Initialized to default values:
      *   - Sample rate:ADC_MAX_SAMPLE_RATE=400KHz
      *   - resolution: ADC_10BITS
      *   - burst mode: DISABLE */
      Chip_ADC_Init( LPC_ADC0, &ADCSetup );
1a003204:	4c1d      	ldr	r4, [pc, #116]	; (1a00327c <adcInit+0x84>)
1a003206:	4620      	mov	r0, r4
1a003208:	4669      	mov	r1, sp
1a00320a:	f000 fb7f 	bl	1a00390c <Chip_ADC_Init>
      /* Disable burst mode */
      Chip_ADC_SetBurstCmd( LPC_ADC0, DISABLE );
1a00320e:	4620      	mov	r0, r4
1a003210:	2100      	movs	r1, #0
1a003212:	f000 fc1b 	bl	1a003a4c <Chip_ADC_SetBurstCmd>
      /* Set sample rate to 200KHz */
      Chip_ADC_SetSampleRate( LPC_ADC0, &ADCSetup, ADC_MAX_SAMPLE_RATE/2 );
1a003216:	4620      	mov	r0, r4
1a003218:	4669      	mov	r1, sp
1a00321a:	4a19      	ldr	r2, [pc, #100]	; (1a003280 <adcInit+0x88>)
1a00321c:	f000 fbe2 	bl	1a0039e4 <Chip_ADC_SetSampleRate>
      /* Disable all channels */
      Chip_ADC_EnableChannel( LPC_ADC0,ADC_CH1, DISABLE );
1a003220:	4620      	mov	r0, r4
1a003222:	2101      	movs	r1, #1
1a003224:	2200      	movs	r2, #0
1a003226:	f000 fbfd 	bl	1a003a24 <Chip_ADC_EnableChannel>
      Chip_ADC_Int_SetChannelCmd( LPC_ADC0, ADC_CH1, DISABLE );
1a00322a:	4620      	mov	r0, r4
1a00322c:	2101      	movs	r1, #1
1a00322e:	2200      	movs	r2, #0
1a003230:	f000 fbb8 	bl	1a0039a4 <Chip_ADC_Int_SetChannelCmd>

      Chip_ADC_EnableChannel( LPC_ADC0, ADC_CH2, DISABLE );
1a003234:	4620      	mov	r0, r4
1a003236:	2102      	movs	r1, #2
1a003238:	2200      	movs	r2, #0
1a00323a:	f000 fbf3 	bl	1a003a24 <Chip_ADC_EnableChannel>
      Chip_ADC_Int_SetChannelCmd( LPC_ADC0, ADC_CH2, DISABLE );
1a00323e:	4620      	mov	r0, r4
1a003240:	2102      	movs	r1, #2
1a003242:	2200      	movs	r2, #0
1a003244:	f000 fbae 	bl	1a0039a4 <Chip_ADC_Int_SetChannelCmd>

      Chip_ADC_EnableChannel( LPC_ADC0, ADC_CH3, DISABLE );
1a003248:	4620      	mov	r0, r4
1a00324a:	2103      	movs	r1, #3
1a00324c:	2200      	movs	r2, #0
1a00324e:	f000 fbe9 	bl	1a003a24 <Chip_ADC_EnableChannel>
      Chip_ADC_Int_SetChannelCmd( LPC_ADC0, ADC_CH3, DISABLE );
1a003252:	4620      	mov	r0, r4
1a003254:	2103      	movs	r1, #3
1a003256:	2200      	movs	r2, #0
1a003258:	f000 fba4 	bl	1a0039a4 <Chip_ADC_Int_SetChannelCmd>

      Chip_ADC_EnableChannel( LPC_ADC0, ADC_CH4, DISABLE );
1a00325c:	4620      	mov	r0, r4
1a00325e:	2104      	movs	r1, #4
1a003260:	2200      	movs	r2, #0
1a003262:	f000 fbdf 	bl	1a003a24 <Chip_ADC_EnableChannel>
      Chip_ADC_Int_SetChannelCmd( LPC_ADC0, ADC_CH4, DISABLE );
1a003266:	4620      	mov	r0, r4
1a003268:	2104      	movs	r1, #4
1a00326a:	2200      	movs	r2, #0
1a00326c:	f000 fb9a 	bl	1a0039a4 <Chip_ADC_Int_SetChannelCmd>

      // Chip_SCU_ADC_Channel_Config( 0, 4 ); // Pablo Gomez
   }
   break;
1a003270:	e002      	b.n	1a003278 <adcInit+0x80>

   case ADC_DISABLE:
      /* Disable ADC peripheral */
      Chip_ADC_DeInit( LPC_ADC0 );
1a003272:	4802      	ldr	r0, [pc, #8]	; (1a00327c <adcInit+0x84>)
1a003274:	f000 fb6a 	bl	1a00394c <Chip_ADC_DeInit>
      break;
   }

}
1a003278:	b002      	add	sp, #8
1a00327a:	bd10      	pop	{r4, pc}
1a00327c:	400e3000 	.word	0x400e3000
1a003280:	00030d40 	.word	0x00030d40

1a003284 <adcRead>:
 * @brief   Get the value of one ADC channel. Mode: BLOCKING
 * @param   AI0 ... AIn
 * @return  analog value
 */
uint16_t adcRead( adcMap_t analogInput )
{
1a003284:	b570      	push	{r4, r5, r6, lr}
1a003286:	b082      	sub	sp, #8

   uint8_t lpcAdcChannel = 66 - analogInput;
1a003288:	f1c0 0042 	rsb	r0, r0, #66	; 0x42
1a00328c:	b2c4      	uxtb	r4, r0
   uint16_t analogValue = 0;
1a00328e:	2500      	movs	r5, #0
1a003290:	f8ad 5006 	strh.w	r5, [sp, #6]

   Chip_ADC_EnableChannel(LPC_ADC0, lpcAdcChannel, ENABLE);
1a003294:	4e10      	ldr	r6, [pc, #64]	; (1a0032d8 <adcRead+0x54>)
1a003296:	4630      	mov	r0, r6
1a003298:	4621      	mov	r1, r4
1a00329a:	2201      	movs	r2, #1
1a00329c:	f000 fbc2 	bl	1a003a24 <Chip_ADC_EnableChannel>
   Chip_ADC_SetStartMode(LPC_ADC0, ADC_START_NOW, ADC_TRIGGERMODE_RISING);
1a0032a0:	4630      	mov	r0, r6
1a0032a2:	2101      	movs	r1, #1
1a0032a4:	462a      	mov	r2, r5
1a0032a6:	f000 fb8d 	bl	1a0039c4 <Chip_ADC_SetStartMode>

   while(
      (Chip_ADC_ReadStatus(LPC_ADC0, lpcAdcChannel, ADC_DR_DONE_STAT) != SET)
1a0032aa:	480b      	ldr	r0, [pc, #44]	; (1a0032d8 <adcRead+0x54>)
1a0032ac:	4621      	mov	r1, r4
1a0032ae:	2200      	movs	r2, #0
1a0032b0:	f000 fb5c 	bl	1a00396c <Chip_ADC_ReadStatus>
   uint16_t analogValue = 0;

   Chip_ADC_EnableChannel(LPC_ADC0, lpcAdcChannel, ENABLE);
   Chip_ADC_SetStartMode(LPC_ADC0, ADC_START_NOW, ADC_TRIGGERMODE_RISING);

   while(
1a0032b4:	2801      	cmp	r0, #1
1a0032b6:	d1f8      	bne.n	1a0032aa <adcRead+0x26>
      (Chip_ADC_ReadStatus(LPC_ADC0, lpcAdcChannel, ADC_DR_DONE_STAT) != SET)
   );
   Chip_ADC_ReadValue( LPC_ADC0, lpcAdcChannel, &analogValue );
1a0032b8:	4d07      	ldr	r5, [pc, #28]	; (1a0032d8 <adcRead+0x54>)
1a0032ba:	4628      	mov	r0, r5
1a0032bc:	4621      	mov	r1, r4
1a0032be:	f10d 0206 	add.w	r2, sp, #6
1a0032c2:	f000 fb4f 	bl	1a003964 <Chip_ADC_ReadValue>

   Chip_ADC_EnableChannel( LPC_ADC0, lpcAdcChannel, DISABLE );
1a0032c6:	4628      	mov	r0, r5
1a0032c8:	4621      	mov	r1, r4
1a0032ca:	2200      	movs	r2, #0
1a0032cc:	f000 fbaa 	bl	1a003a24 <Chip_ADC_EnableChannel>

   return analogValue;
}
1a0032d0:	f8bd 0006 	ldrh.w	r0, [sp, #6]
1a0032d4:	b002      	add	sp, #8
1a0032d6:	bd70      	pop	{r4, r5, r6, pc}
1a0032d8:	400e3000 	.word	0x400e3000

1a0032dc <printInitUart>:
{
   *printer = uart;
}

void printInitUart( print_t* printer, uartMap_t uart, uint32_t baudRate )
{
1a0032dc:	b508      	push	{r3, lr}
   *printer = uart;
1a0032de:	7001      	strb	r1, [r0, #0]
   uartInit( uart, baudRate );
1a0032e0:	4608      	mov	r0, r1
1a0032e2:	4611      	mov	r1, r2
1a0032e4:	f7ff fd40 	bl	1a002d68 <uartInit>
1a0032e8:	bd08      	pop	{r3, pc}
1a0032ea:	bf00      	nop

1a0032ec <printString>:


// Print String

void printString( print_t printer, const char* string )
{
1a0032ec:	b508      	push	{r3, lr}
   uartWriteString( printer, string );
1a0032ee:	f7ff fe75 	bl	1a002fdc <uartWriteString>
1a0032f2:	bd08      	pop	{r3, pc}

1a0032f4 <printEnter>:
}

void printEnter( print_t printer )
{
1a0032f4:	b508      	push	{r3, lr}
   uartWriteString( printer, PRINT_ENTER_STRING );
1a0032f6:	4902      	ldr	r1, [pc, #8]	; (1a003300 <printEnter+0xc>)
1a0032f8:	f7ff fe70 	bl	1a002fdc <uartWriteString>
1a0032fc:	bd08      	pop	{r3, pc}
1a0032fe:	bf00      	nop
1a003300:	1a005120 	.word	0x1a005120

1a003304 <printIntFormat>:


// Print Integer

void printIntFormat( print_t printer, int64_t number, numberFormat_t format )
{
1a003304:	b510      	push	{r4, lr}
1a003306:	b092      	sub	sp, #72	; 0x48
1a003308:	4604      	mov	r4, r0

   char strNumber[65];

   if( int64ToString( number, strNumber, format ) ) {
1a00330a:	4610      	mov	r0, r2
1a00330c:	4619      	mov	r1, r3
1a00330e:	aa01      	add	r2, sp, #4
1a003310:	f89d 3050 	ldrb.w	r3, [sp, #80]	; 0x50
1a003314:	f7ff fa84 	bl	1a002820 <int64ToString>
1a003318:	b118      	cbz	r0, 1a003322 <printIntFormat+0x1e>
      uartWriteString( printer, strNumber );
1a00331a:	4620      	mov	r0, r4
1a00331c:	a901      	add	r1, sp, #4
1a00331e:	f7ff fe5d 	bl	1a002fdc <uartWriteString>
   }
}
1a003322:	b012      	add	sp, #72	; 0x48
1a003324:	bd10      	pop	{r4, pc}
1a003326:	bf00      	nop

1a003328 <boardInit>:

/*==================[external functions definition]==========================*/

/* Set up and initialize board hardware */
void boardInit(void)
{
1a003328:	b508      	push	{r3, lr}
   // Read clock settings and update SystemCoreClock variable
   SystemCoreClockUpdate();
1a00332a:	f000 fba1 	bl	1a003a70 <SystemCoreClockUpdate>

   cyclesCounterInit( SystemCoreClock );
1a00332e:	4b3a      	ldr	r3, [pc, #232]	; (1a003418 <boardInit+0xf0>)
1a003330:	6818      	ldr	r0, [r3, #0]
1a003332:	f7ff fac7 	bl	1a0028c4 <cyclesCounterInit>

   // Inicializar el conteo de Ticks con resolucion de 1ms
   tickInit( 1 );
1a003336:	2001      	movs	r0, #1
1a003338:	2100      	movs	r1, #0
1a00333a:	f7ff fc3d 	bl	1a002bb8 <tickInit>

   // Inicializar GPIOs
   gpioInit( 0, GPIO_ENABLE );
1a00333e:	2000      	movs	r0, #0
1a003340:	2105      	movs	r1, #5
1a003342:	f7ff fae3 	bl	1a00290c <gpioInit>

   // Configuracion de pines de entrada para Teclas de la EDU-CIAA-NXP
   gpioInit( TEC1, GPIO_INPUT );
1a003346:	2024      	movs	r0, #36	; 0x24
1a003348:	2100      	movs	r1, #0
1a00334a:	f7ff fadf 	bl	1a00290c <gpioInit>
   gpioInit( TEC2, GPIO_INPUT );
1a00334e:	2025      	movs	r0, #37	; 0x25
1a003350:	2100      	movs	r1, #0
1a003352:	f7ff fadb 	bl	1a00290c <gpioInit>
   gpioInit( TEC3, GPIO_INPUT );
1a003356:	2026      	movs	r0, #38	; 0x26
1a003358:	2100      	movs	r1, #0
1a00335a:	f7ff fad7 	bl	1a00290c <gpioInit>
   gpioInit( TEC4, GPIO_INPUT );
1a00335e:	2027      	movs	r0, #39	; 0x27
1a003360:	2100      	movs	r1, #0
1a003362:	f7ff fad3 	bl	1a00290c <gpioInit>

   // Configuracion de pines de salida para Leds de la EDU-CIAA-NXP
   gpioInit( LEDR, GPIO_OUTPUT );
1a003366:	2028      	movs	r0, #40	; 0x28
1a003368:	2101      	movs	r1, #1
1a00336a:	f7ff facf 	bl	1a00290c <gpioInit>
   gpioInit( LEDG, GPIO_OUTPUT );
1a00336e:	2029      	movs	r0, #41	; 0x29
1a003370:	2101      	movs	r1, #1
1a003372:	f7ff facb 	bl	1a00290c <gpioInit>
   gpioInit( LEDB, GPIO_OUTPUT );
1a003376:	202a      	movs	r0, #42	; 0x2a
1a003378:	2101      	movs	r1, #1
1a00337a:	f7ff fac7 	bl	1a00290c <gpioInit>
   gpioInit( LED1, GPIO_OUTPUT );
1a00337e:	202b      	movs	r0, #43	; 0x2b
1a003380:	2101      	movs	r1, #1
1a003382:	f7ff fac3 	bl	1a00290c <gpioInit>
   gpioInit( LED2, GPIO_OUTPUT );
1a003386:	202c      	movs	r0, #44	; 0x2c
1a003388:	2101      	movs	r1, #1
1a00338a:	f7ff fabf 	bl	1a00290c <gpioInit>
   gpioInit( LED3, GPIO_OUTPUT );
1a00338e:	202d      	movs	r0, #45	; 0x2d
1a003390:	2101      	movs	r1, #1
1a003392:	f7ff fabb 	bl	1a00290c <gpioInit>


   // Configuracion de pines de entrada de la CIAA-NXP
   gpioInit( DI0, GPIO_INPUT );
1a003396:	202e      	movs	r0, #46	; 0x2e
1a003398:	2100      	movs	r1, #0
1a00339a:	f7ff fab7 	bl	1a00290c <gpioInit>
   gpioInit( DI1, GPIO_INPUT );
1a00339e:	202f      	movs	r0, #47	; 0x2f
1a0033a0:	2100      	movs	r1, #0
1a0033a2:	f7ff fab3 	bl	1a00290c <gpioInit>
   gpioInit( DI2, GPIO_INPUT );
1a0033a6:	2030      	movs	r0, #48	; 0x30
1a0033a8:	2100      	movs	r1, #0
1a0033aa:	f7ff faaf 	bl	1a00290c <gpioInit>
   gpioInit( DI3, GPIO_INPUT );
1a0033ae:	2031      	movs	r0, #49	; 0x31
1a0033b0:	2100      	movs	r1, #0
1a0033b2:	f7ff faab 	bl	1a00290c <gpioInit>
   gpioInit( DI4, GPIO_INPUT );
1a0033b6:	2032      	movs	r0, #50	; 0x32
1a0033b8:	2100      	movs	r1, #0
1a0033ba:	f7ff faa7 	bl	1a00290c <gpioInit>
   gpioInit( DI5, GPIO_INPUT );
1a0033be:	2033      	movs	r0, #51	; 0x33
1a0033c0:	2100      	movs	r1, #0
1a0033c2:	f7ff faa3 	bl	1a00290c <gpioInit>
   gpioInit( DI6, GPIO_INPUT );
1a0033c6:	2034      	movs	r0, #52	; 0x34
1a0033c8:	2100      	movs	r1, #0
1a0033ca:	f7ff fa9f 	bl	1a00290c <gpioInit>
   gpioInit( DI7, GPIO_INPUT );
1a0033ce:	2035      	movs	r0, #53	; 0x35
1a0033d0:	2100      	movs	r1, #0
1a0033d2:	f7ff fa9b 	bl	1a00290c <gpioInit>

   // Configuracion de pines de salida de la CIAA-NXP
   gpioInit( DO0, GPIO_OUTPUT );
1a0033d6:	2036      	movs	r0, #54	; 0x36
1a0033d8:	2101      	movs	r1, #1
1a0033da:	f7ff fa97 	bl	1a00290c <gpioInit>
   gpioInit( DO1, GPIO_OUTPUT );
1a0033de:	2037      	movs	r0, #55	; 0x37
1a0033e0:	2101      	movs	r1, #1
1a0033e2:	f7ff fa93 	bl	1a00290c <gpioInit>
   gpioInit( DO2, GPIO_OUTPUT );
1a0033e6:	2038      	movs	r0, #56	; 0x38
1a0033e8:	2101      	movs	r1, #1
1a0033ea:	f7ff fa8f 	bl	1a00290c <gpioInit>
   gpioInit( DO3, GPIO_OUTPUT );
1a0033ee:	2039      	movs	r0, #57	; 0x39
1a0033f0:	2101      	movs	r1, #1
1a0033f2:	f7ff fa8b 	bl	1a00290c <gpioInit>
   gpioInit( DO4, GPIO_OUTPUT );
1a0033f6:	203a      	movs	r0, #58	; 0x3a
1a0033f8:	2101      	movs	r1, #1
1a0033fa:	f7ff fa87 	bl	1a00290c <gpioInit>
   gpioInit( DO5, GPIO_OUTPUT );
1a0033fe:	203b      	movs	r0, #59	; 0x3b
1a003400:	2101      	movs	r1, #1
1a003402:	f7ff fa83 	bl	1a00290c <gpioInit>
   gpioInit( DO6, GPIO_OUTPUT );
1a003406:	203c      	movs	r0, #60	; 0x3c
1a003408:	2101      	movs	r1, #1
1a00340a:	f7ff fa7f 	bl	1a00290c <gpioInit>
   gpioInit( DO7, GPIO_OUTPUT );
1a00340e:	203d      	movs	r0, #61	; 0x3d
1a003410:	2101      	movs	r1, #1
1a003412:	f7ff fa7b 	bl	1a00290c <gpioInit>
1a003416:	bd08      	pop	{r3, pc}
1a003418:	100009f0 	.word	0x100009f0

1a00341c <Board_LED_Init>:
#define GPIO_BUTTONS_SIZE   (sizeof(GpioButtons) / sizeof(struct gpio_t))
#define GPIO_PORTS_SIZE     (sizeof(GpioPorts) / sizeof(struct gpio_t))


static void Board_LED_Init()
{
1a00341c:	b470      	push	{r4, r5, r6}
    for (uint32_t i = 0; i < GPIO_LEDS_SIZE; ++i) {
1a00341e:	2200      	movs	r2, #0
1a003420:	e014      	b.n	1a00344c <Board_LED_Init+0x30>
        const struct gpio_t *io = &GpioLeds[i];
        Chip_GPIO_SetPinDIROutput(LPC_GPIO_PORT, io->port, io->pin);
1a003422:	4b0c      	ldr	r3, [pc, #48]	; (1a003454 <Board_LED_Init+0x38>)
1a003424:	f813 4012 	ldrb.w	r4, [r3, r2, lsl #1]
1a003428:	eb03 0342 	add.w	r3, r3, r2, lsl #1
1a00342c:	7859      	ldrb	r1, [r3, #1]
1a00342e:	480a      	ldr	r0, [pc, #40]	; (1a003458 <Board_LED_Init+0x3c>)
1a003430:	f504 6500 	add.w	r5, r4, #2048	; 0x800
1a003434:	f850 6025 	ldr.w	r6, [r0, r5, lsl #2]
1a003438:	2301      	movs	r3, #1
1a00343a:	408b      	lsls	r3, r1
1a00343c:	4333      	orrs	r3, r6
1a00343e:	f840 3025 	str.w	r3, [r0, r5, lsl #2]
 * @return	Nothing
 * @note	This function replaces Chip_GPIO_WritePortBit()
 */
STATIC INLINE void Chip_GPIO_SetPinState(LPC_GPIO_T *pGPIO, uint8_t port, uint8_t pin, bool setting)
{
	pGPIO->B[port][pin] = setting;
1a003442:	eb01 1144 	add.w	r1, r1, r4, lsl #5
1a003446:	2300      	movs	r3, #0
1a003448:	5443      	strb	r3, [r0, r1]
#define GPIO_PORTS_SIZE     (sizeof(GpioPorts) / sizeof(struct gpio_t))


static void Board_LED_Init()
{
    for (uint32_t i = 0; i < GPIO_LEDS_SIZE; ++i) {
1a00344a:	3201      	adds	r2, #1
1a00344c:	2a05      	cmp	r2, #5
1a00344e:	d9e8      	bls.n	1a003422 <Board_LED_Init+0x6>
        const struct gpio_t *io = &GpioLeds[i];
        Chip_GPIO_SetPinDIROutput(LPC_GPIO_PORT, io->port, io->pin);
        Chip_GPIO_SetPinState(LPC_GPIO_PORT, io->port, io->pin, false);
    }
}
1a003450:	bc70      	pop	{r4, r5, r6}
1a003452:	4770      	bx	lr
1a003454:	1a0053d4 	.word	0x1a0053d4
1a003458:	400f4000 	.word	0x400f4000

1a00345c <Board_TEC_Init>:


static void Board_TEC_Init()
{
1a00345c:	b430      	push	{r4, r5}
    for (uint32_t i = 0; i < GPIO_BUTTONS_SIZE; ++i) {
1a00345e:	2300      	movs	r3, #0
1a003460:	e011      	b.n	1a003486 <Board_TEC_Init+0x2a>
        const struct gpio_t *io = &GpioButtons[i];
        Chip_GPIO_SetPinDIRInput(LPC_GPIO_PORT, io->port, io->pin);
1a003462:	490b      	ldr	r1, [pc, #44]	; (1a003490 <Board_TEC_Init+0x34>)
1a003464:	f811 2013 	ldrb.w	r2, [r1, r3, lsl #1]
1a003468:	eb01 0143 	add.w	r1, r1, r3, lsl #1
1a00346c:	784d      	ldrb	r5, [r1, #1]
 * @param	pin		: GPIO pin to set direction on as input
 * @return	Nothing
 */
STATIC INLINE void Chip_GPIO_SetPinDIRInput(LPC_GPIO_T *pGPIO, uint8_t port, uint8_t pin)
{
	pGPIO->DIR[port] &= ~(1UL << pin);
1a00346e:	4c09      	ldr	r4, [pc, #36]	; (1a003494 <Board_TEC_Init+0x38>)
1a003470:	f502 6200 	add.w	r2, r2, #2048	; 0x800
1a003474:	f854 0022 	ldr.w	r0, [r4, r2, lsl #2]
1a003478:	2101      	movs	r1, #1
1a00347a:	40a9      	lsls	r1, r5
1a00347c:	ea20 0101 	bic.w	r1, r0, r1
1a003480:	f844 1022 	str.w	r1, [r4, r2, lsl #2]
}


static void Board_TEC_Init()
{
    for (uint32_t i = 0; i < GPIO_BUTTONS_SIZE; ++i) {
1a003484:	3301      	adds	r3, #1
1a003486:	2b03      	cmp	r3, #3
1a003488:	d9eb      	bls.n	1a003462 <Board_TEC_Init+0x6>
        const struct gpio_t *io = &GpioButtons[i];
        Chip_GPIO_SetPinDIRInput(LPC_GPIO_PORT, io->port, io->pin);
    }
}
1a00348a:	bc30      	pop	{r4, r5}
1a00348c:	4770      	bx	lr
1a00348e:	bf00      	nop
1a003490:	1a0053cc 	.word	0x1a0053cc
1a003494:	400f4000 	.word	0x400f4000

1a003498 <Board_GPIO_Init>:


static void Board_GPIO_Init()
{
1a003498:	b430      	push	{r4, r5}
    for (uint32_t i = 0; i < GPIO_PORTS_SIZE; ++i) {
1a00349a:	2300      	movs	r3, #0
1a00349c:	e011      	b.n	1a0034c2 <Board_GPIO_Init+0x2a>
        const struct gpio_t *io = &GpioPorts[i];
        Chip_GPIO_SetPinDIRInput(LPC_GPIO_PORT, io->port, io->pin);
1a00349e:	490b      	ldr	r1, [pc, #44]	; (1a0034cc <Board_GPIO_Init+0x34>)
1a0034a0:	f811 2013 	ldrb.w	r2, [r1, r3, lsl #1]
1a0034a4:	eb01 0143 	add.w	r1, r1, r3, lsl #1
1a0034a8:	784d      	ldrb	r5, [r1, #1]
1a0034aa:	4c09      	ldr	r4, [pc, #36]	; (1a0034d0 <Board_GPIO_Init+0x38>)
1a0034ac:	f502 6200 	add.w	r2, r2, #2048	; 0x800
1a0034b0:	f854 0022 	ldr.w	r0, [r4, r2, lsl #2]
1a0034b4:	2101      	movs	r1, #1
1a0034b6:	40a9      	lsls	r1, r5
1a0034b8:	ea20 0101 	bic.w	r1, r0, r1
1a0034bc:	f844 1022 	str.w	r1, [r4, r2, lsl #2]
}


static void Board_GPIO_Init()
{
    for (uint32_t i = 0; i < GPIO_PORTS_SIZE; ++i) {
1a0034c0:	3301      	adds	r3, #1
1a0034c2:	2b08      	cmp	r3, #8
1a0034c4:	d9eb      	bls.n	1a00349e <Board_GPIO_Init+0x6>
        const struct gpio_t *io = &GpioPorts[i];
        Chip_GPIO_SetPinDIRInput(LPC_GPIO_PORT, io->port, io->pin);
    }
}
1a0034c6:	bc30      	pop	{r4, r5}
1a0034c8:	4770      	bx	lr
1a0034ca:	bf00      	nop
1a0034cc:	1a0053b0 	.word	0x1a0053b0
1a0034d0:	400f4000 	.word	0x400f4000

1a0034d4 <Board_SPI_Init>:
    Chip_I2C_SetClockRate(I2C0, BOARD_I2C_SPEED);
}


static void Board_SPI_Init()
{
1a0034d4:	b510      	push	{r4, lr}
    Chip_SSP_Init(LPC_SSP1);
1a0034d6:	4c0b      	ldr	r4, [pc, #44]	; (1a003504 <Board_SPI_Init+0x30>)
1a0034d8:	4620      	mov	r0, r4
1a0034da:	f000 ffe5 	bl	1a0044a8 <Chip_SSP_Init>
 *						- SSP_MODE_SLAVE
 * @return	 Nothing
 */
STATIC INLINE void Chip_SSP_Set_Mode(LPC_SSP_T *pSSP, uint32_t mode)
{
	pSSP->CR1 = (pSSP->CR1 & ~(1 << 2)) | mode;
1a0034de:	6863      	ldr	r3, [r4, #4]
1a0034e0:	f023 0304 	bic.w	r3, r3, #4
1a0034e4:	6063      	str	r3, [r4, #4]
 * @return	 Nothing
 * @note	Note: The clockFormat is only used in SPI mode
 */
STATIC INLINE void Chip_SSP_SetFormat(LPC_SSP_T *pSSP, uint32_t bits, uint32_t frameFormat, uint32_t clockMode)
{
	pSSP->CR0 = (pSSP->CR0 & ~0xFF) | bits | frameFormat | clockMode;
1a0034e6:	6823      	ldr	r3, [r4, #0]
1a0034e8:	f023 03ff 	bic.w	r3, r3, #255	; 0xff
1a0034ec:	f043 0307 	orr.w	r3, r3, #7
1a0034f0:	6023      	str	r3, [r4, #0]
    Chip_SSP_Set_Mode(LPC_SSP1, BOARD_SPI_MODE);
    Chip_SSP_SetFormat(LPC_SSP1, BOARD_SPI_BITS, BOARD_SPI_FORMAT,
                       BOARD_SPI_POLARITY);
    Chip_SSP_SetBitRate(LPC_SSP1, BOARD_SPI_SPEED);
1a0034f2:	4620      	mov	r0, r4
1a0034f4:	4904      	ldr	r1, [pc, #16]	; (1a003508 <Board_SPI_Init+0x34>)
1a0034f6:	f000 ffb7 	bl	1a004468 <Chip_SSP_SetBitRate>
 * @param	pSSP		: The base of SSP peripheral on the chip
 * @return	 Nothing
 */
STATIC INLINE void Chip_SSP_Enable(LPC_SSP_T *pSSP)
{
	pSSP->CR1 |= SSP_CR1_SSP_EN;
1a0034fa:	6863      	ldr	r3, [r4, #4]
1a0034fc:	f043 0302 	orr.w	r3, r3, #2
1a003500:	6063      	str	r3, [r4, #4]
1a003502:	bd10      	pop	{r4, pc}
1a003504:	400c5000 	.word	0x400c5000
1a003508:	000186a0 	.word	0x000186a0

1a00350c <Board_I2C_Init>:
    }
}


static void Board_I2C_Init()
{
1a00350c:	b508      	push	{r3, lr}
    Chip_I2C_Init(I2C0);
1a00350e:	2000      	movs	r0, #0
1a003510:	f000 f8ca 	bl	1a0036a8 <Chip_I2C_Init>
 *                  - I2C0_FAST_MODE_PLUS: Fast-mode Plus transmit
 * @return	Nothing
 */
STATIC INLINE void Chip_SCU_I2C0PinConfig(uint32_t I2C0Mode)
{
	LPC_SCU->SFSI2C0 = I2C0Mode;
1a003514:	f640 0208 	movw	r2, #2056	; 0x808
1a003518:	4b03      	ldr	r3, [pc, #12]	; (1a003528 <Board_I2C_Init+0x1c>)
1a00351a:	f8c3 2c84 	str.w	r2, [r3, #3204]	; 0xc84
    Chip_SCU_I2C0PinConfig(BOARD_I2C_MODE);
    Chip_I2C_SetClockRate(I2C0, BOARD_I2C_SPEED);
1a00351e:	2000      	movs	r0, #0
1a003520:	4902      	ldr	r1, [pc, #8]	; (1a00352c <Board_I2C_Init+0x20>)
1a003522:	f000 f8d3 	bl	1a0036cc <Chip_I2C_SetClockRate>
1a003526:	bd08      	pop	{r3, pc}
1a003528:	40086000 	.word	0x40086000
1a00352c:	000f4240 	.word	0x000f4240

1a003530 <Board_ADC_Init>:
    Chip_SSP_Enable(LPC_SSP1);
}


static void Board_ADC_Init()
{
1a003530:	b510      	push	{r4, lr}
1a003532:	b082      	sub	sp, #8
    ADC_CLOCK_SETUP_T cs;

    Chip_ADC_Init(LPC_ADC0, &cs);
1a003534:	4c08      	ldr	r4, [pc, #32]	; (1a003558 <Board_ADC_Init+0x28>)
1a003536:	4620      	mov	r0, r4
1a003538:	4669      	mov	r1, sp
1a00353a:	f000 f9e7 	bl	1a00390c <Chip_ADC_Init>
    Chip_ADC_SetSampleRate(LPC_ADC0, &cs, BOARD_ADC_SAMPLE_RATE);
1a00353e:	4620      	mov	r0, r4
1a003540:	4669      	mov	r1, sp
1a003542:	4a06      	ldr	r2, [pc, #24]	; (1a00355c <Board_ADC_Init+0x2c>)
1a003544:	f000 fa4e 	bl	1a0039e4 <Chip_ADC_SetSampleRate>
    Chip_ADC_SetResolution(LPC_ADC0, &cs, BOARD_ADC_RESOLUTION);
1a003548:	4620      	mov	r0, r4
1a00354a:	4669      	mov	r1, sp
1a00354c:	2200      	movs	r2, #0
1a00354e:	f000 fa63 	bl	1a003a18 <Chip_ADC_SetResolution>
}
1a003552:	b002      	add	sp, #8
1a003554:	bd10      	pop	{r4, pc}
1a003556:	bf00      	nop
1a003558:	400e3000 	.word	0x400e3000
1a00355c:	00061a80 	.word	0x00061a80

1a003560 <Board_Debug_Init>:


void Board_Debug_Init(void)
{
1a003560:	b510      	push	{r4, lr}
    Chip_UART_Init(DEBUG_UART);
1a003562:	4c07      	ldr	r4, [pc, #28]	; (1a003580 <Board_Debug_Init+0x20>)
1a003564:	4620      	mov	r0, r4
1a003566:	f000 f8df 	bl	1a003728 <Chip_UART_Init>
    Chip_UART_SetBaudFDR(DEBUG_UART, DEBUG_UART_BAUD_RATE);
1a00356a:	4620      	mov	r0, r4
1a00356c:	f44f 31e1 	mov.w	r1, #115200	; 0x1c200
1a003570:	f000 f924 	bl	1a0037bc <Chip_UART_SetBaudFDR>
 *			stop bit, and even (enabled) parity would be
 *			(UART_LCR_WLEN8 | UART_LCR_SBS_1BIT | UART_LCR_PARITY_EN | UART_LCR_PARITY_EVEN)
 */
STATIC INLINE void Chip_UART_ConfigData(LPC_USART_T *pUART, uint32_t config)
{
	pUART->LCR = config;
1a003574:	2303      	movs	r3, #3
1a003576:	60e3      	str	r3, [r4, #12]
 * @param	pUART	: Pointer to selected pUART peripheral
 * @return Nothing
 */
STATIC INLINE void Chip_UART_TXEnable(LPC_USART_T *pUART)
{
    pUART->TER2 = UART_TER2_TXEN;
1a003578:	2301      	movs	r3, #1
1a00357a:	65e3      	str	r3, [r4, #92]	; 0x5c
1a00357c:	bd10      	pop	{r4, pc}
1a00357e:	bf00      	nop
1a003580:	400c1000 	.word	0x400c1000

1a003584 <Board_Init>:
    Board_LED_Set(LEDNumber, !Board_LED_Test(LEDNumber));
}


void Board_Init(void)
{
1a003584:	b508      	push	{r3, lr}
   DEBUGINIT();
1a003586:	f7ff ffeb 	bl	1a003560 <Board_Debug_Init>
   Chip_GPIO_Init (LPC_GPIO_PORT);
1a00358a:	480b      	ldr	r0, [pc, #44]	; (1a0035b8 <Board_Init+0x34>)
1a00358c:	f000 fe04 	bl	1a004198 <Chip_GPIO_Init>

   Board_LED_Init();
1a003590:	f7ff ff44 	bl	1a00341c <Board_LED_Init>
   Board_TEC_Init();
1a003594:	f7ff ff62 	bl	1a00345c <Board_TEC_Init>
   Board_SPI_Init();
1a003598:	f7ff ff9c 	bl	1a0034d4 <Board_SPI_Init>
   Board_GPIO_Init();
1a00359c:	f7ff ff7c 	bl	1a003498 <Board_GPIO_Init>
   Board_I2C_Init();
1a0035a0:	f7ff ffb4 	bl	1a00350c <Board_I2C_Init>
   Board_ADC_Init();
1a0035a4:	f7ff ffc4 	bl	1a003530 <Board_ADC_Init>
 * RMII PHY, and must be called before calling any Ethernet
 * functions.
 */
STATIC INLINE void Chip_ENET_RMIIEnable(LPC_ENET_T *pENET)
{
	LPC_CREG->CREG6 |= 0x4;
1a0035a8:	4a04      	ldr	r2, [pc, #16]	; (1a0035bc <Board_Init+0x38>)
1a0035aa:	f8d2 312c 	ldr.w	r3, [r2, #300]	; 0x12c
1a0035ae:	f043 0304 	orr.w	r3, r3, #4
1a0035b2:	f8c2 312c 	str.w	r3, [r2, #300]	; 0x12c
1a0035b6:	bd08      	pop	{r3, pc}
1a0035b8:	400f4000 	.word	0x400f4000
1a0035bc:	40043000 	.word	0x40043000

1a0035c0 <SystemInit>:
 * Public functions
 ****************************************************************************/

/* Set up and initialize hardware prior to call to main */
void SystemInit(void)
{
1a0035c0:	b508      	push	{r3, lr}
   unsigned int *pSCB_VTOR = (unsigned int *) 0xE000ED08;

   extern void *g_pfnVectors;

   *pSCB_VTOR = (unsigned int) &g_pfnVectors;
1a0035c2:	4b04      	ldr	r3, [pc, #16]	; (1a0035d4 <SystemInit+0x14>)
1a0035c4:	4a04      	ldr	r2, [pc, #16]	; (1a0035d8 <SystemInit+0x18>)
1a0035c6:	601a      	str	r2, [r3, #0]

#if defined(__FPU_PRESENT) && __FPU_PRESENT == 1
   fpuInit();
1a0035c8:	f000 fd38 	bl	1a00403c <fpuInit>
#endif

   /* Board specific SystemInit */
   Board_SystemInit();
1a0035cc:	f000 f856 	bl	1a00367c <Board_SystemInit>
1a0035d0:	bd08      	pop	{r3, pc}
1a0035d2:	bf00      	nop
1a0035d4:	e000ed08 	.word	0xe000ed08
1a0035d8:	1a000000 	.word	0x1a000000

1a0035dc <Board_SetupMuxing>:
    {0,  1, (SCU_MODE_HIGHSPEEDSLEW_EN | SCU_MODE_INACT | SCU_MODE_ZIF_DIS | SCU_MODE_FUNC6)}, /* TXEN */
};


void Board_SetupMuxing(void)
{
1a0035dc:	b410      	push	{r4}
 * @return	Nothing
 */
STATIC INLINE void Chip_SCU_SetPinMuxing(const PINMUX_GRP_T *pinArray, uint32_t arrayLength)
{
	uint32_t ix;
	for (ix = 0; ix < arrayLength; ix++ ) {
1a0035de:	2300      	movs	r3, #0
1a0035e0:	e00c      	b.n	1a0035fc <Board_SetupMuxing+0x20>
		Chip_SCU_PinMuxSet(pinArray[ix].pingrp, pinArray[ix].pinnum, pinArray[ix].modefunc);
1a0035e2:	4a09      	ldr	r2, [pc, #36]	; (1a003608 <Board_SetupMuxing+0x2c>)
1a0035e4:	eb02 0183 	add.w	r1, r2, r3, lsl #2
1a0035e8:	f812 4023 	ldrb.w	r4, [r2, r3, lsl #2]
1a0035ec:	784a      	ldrb	r2, [r1, #1]
1a0035ee:	8848      	ldrh	r0, [r1, #2]
 * @note	Do not use for clock pins (SFSCLK0 .. SFSCLK4). Use
 * Chip_SCU_ClockPinMux() function for SFSCLKx clock pins.
 */
STATIC INLINE void Chip_SCU_PinMuxSet(uint8_t port, uint8_t pin, uint16_t modefunc)
{
	LPC_SCU->SFSP[port][pin] = modefunc;
1a0035f0:	eb02 1244 	add.w	r2, r2, r4, lsl #5
1a0035f4:	4905      	ldr	r1, [pc, #20]	; (1a00360c <Board_SetupMuxing+0x30>)
1a0035f6:	f841 0022 	str.w	r0, [r1, r2, lsl #2]
 * @return	Nothing
 */
STATIC INLINE void Chip_SCU_SetPinMuxing(const PINMUX_GRP_T *pinArray, uint32_t arrayLength)
{
	uint32_t ix;
	for (ix = 0; ix < arrayLength; ix++ ) {
1a0035fa:	3301      	adds	r3, #1
1a0035fc:	2b25      	cmp	r3, #37	; 0x25
1a0035fe:	d9f0      	bls.n	1a0035e2 <Board_SetupMuxing+0x6>
    Chip_SCU_SetPinMuxing(pinmuxing, sizeof(pinmuxing) / sizeof(PINMUX_GRP_T));
}
1a003600:	f85d 4b04 	ldr.w	r4, [sp], #4
1a003604:	4770      	bx	lr
1a003606:	bf00      	nop
1a003608:	1a0053ec 	.word	0x1a0053ec
1a00360c:	40086000 	.word	0x40086000

1a003610 <Board_SetupClocking>:


void Board_SetupClocking(void)
{
1a003610:	b510      	push	{r4, lr}
 */
STATIC INLINE void Chip_CREG_SetFlashAcceleration(uint32_t Hz)
{
	uint32_t FAValue = Hz / 21510000;

	LPC_CREG->FLASHCFGA = (LPC_CREG->FLASHCFGA & (~(0xF << 12))) | (FAValue << 12);
1a003612:	4a17      	ldr	r2, [pc, #92]	; (1a003670 <Board_SetupClocking+0x60>)
1a003614:	f8d2 3120 	ldr.w	r3, [r2, #288]	; 0x120
1a003618:	f423 4370 	bic.w	r3, r3, #61440	; 0xf000
1a00361c:	f443 4310 	orr.w	r3, r3, #36864	; 0x9000
1a003620:	f8c2 3120 	str.w	r3, [r2, #288]	; 0x120
	LPC_CREG->FLASHCFGB = (LPC_CREG->FLASHCFGB & (~(0xF << 12))) | (FAValue << 12);
1a003624:	f8d2 3124 	ldr.w	r3, [r2, #292]	; 0x124
1a003628:	f423 4370 	bic.w	r3, r3, #61440	; 0xf000
1a00362c:	f443 4310 	orr.w	r3, r3, #36864	; 0x9000
1a003630:	f8c2 3124 	str.w	r3, [r2, #292]	; 0x124
    Chip_CREG_SetFlashAcceleration(MAX_CLOCK_FREQ);
    Chip_SetupCoreClock(CLKIN_CRYSTAL, MAX_CLOCK_FREQ, true);
1a003634:	2006      	movs	r0, #6
1a003636:	490f      	ldr	r1, [pc, #60]	; (1a003674 <Board_SetupClocking+0x64>)
1a003638:	2201      	movs	r2, #1
1a00363a:	f000 fdaf 	bl	1a00419c <Chip_SetupCoreClock>

    /* Setup system base clocks and initial states. This won't enable and
       disable individual clocks, but sets up the base clock sources for
       each individual peripheral clock. */
    for (uint32_t i = 0; i < (sizeof(InitClkStates) / sizeof(InitClkStates[0])); ++i)
1a00363e:	2400      	movs	r4, #0
1a003640:	e00a      	b.n	1a003658 <Board_SetupClocking+0x48>
    {
        const struct CLK_BASE_STATES *c = &InitClkStates[i];
        Chip_Clock_SetBaseClock (c->clk, c->clkin, c->autoblock_enab,
1a003642:	4a0d      	ldr	r2, [pc, #52]	; (1a003678 <Board_SetupClocking+0x68>)
1a003644:	eb02 0384 	add.w	r3, r2, r4, lsl #2
1a003648:	f812 0024 	ldrb.w	r0, [r2, r4, lsl #2]
1a00364c:	7859      	ldrb	r1, [r3, #1]
1a00364e:	789a      	ldrb	r2, [r3, #2]
1a003650:	78db      	ldrb	r3, [r3, #3]
1a003652:	f000 fc35 	bl	1a003ec0 <Chip_Clock_SetBaseClock>
    Chip_SetupCoreClock(CLKIN_CRYSTAL, MAX_CLOCK_FREQ, true);

    /* Setup system base clocks and initial states. This won't enable and
       disable individual clocks, but sets up the base clock sources for
       each individual peripheral clock. */
    for (uint32_t i = 0; i < (sizeof(InitClkStates) / sizeof(InitClkStates[0])); ++i)
1a003656:	3401      	adds	r4, #1
1a003658:	2c02      	cmp	r4, #2
1a00365a:	d9f2      	bls.n	1a003642 <Board_SetupClocking+0x32>
        Chip_Clock_SetBaseClock (c->clk, c->clkin, c->autoblock_enab,
                                c->powerdn);
    }

    /* Reset and enable 32Khz oscillator */
    LPC_CREG->CREG0 &= ~((1 << 3) | (1 << 2));
1a00365c:	4b04      	ldr	r3, [pc, #16]	; (1a003670 <Board_SetupClocking+0x60>)
1a00365e:	685a      	ldr	r2, [r3, #4]
1a003660:	f022 020c 	bic.w	r2, r2, #12
1a003664:	605a      	str	r2, [r3, #4]
    LPC_CREG->CREG0 |= (1 << 1) | (1 << 0);
1a003666:	685a      	ldr	r2, [r3, #4]
1a003668:	f042 0203 	orr.w	r2, r2, #3
1a00366c:	605a      	str	r2, [r3, #4]
1a00366e:	bd10      	pop	{r4, pc}
1a003670:	40043000 	.word	0x40043000
1a003674:	0c28cb00 	.word	0x0c28cb00
1a003678:	1a0053e0 	.word	0x1a0053e0

1a00367c <Board_SystemInit>:
}


/* Set up and initialize hardware prior to call to main */
void Board_SystemInit(void)
{
1a00367c:	b508      	push	{r3, lr}
    /* Setup system clocking and memory. This is done early to allow the
       application and tools to clear memory and use scatter loading to
       external memory. */
    Board_SetupMuxing();
1a00367e:	f7ff ffad 	bl	1a0035dc <Board_SetupMuxing>
    Board_SetupClocking();
1a003682:	f7ff ffc5 	bl	1a003610 <Board_SetupClocking>
1a003686:	bd08      	pop	{r3, pc}

1a003688 <Chip_I2C_EventHandler>:
{
	struct i2c_interface *iic = &i2c[id];
	volatile I2C_STATUS_T *stat;

	/* Only WAIT event needs to be handled */
	if (event != I2C_EVENT_WAIT) {
1a003688:	2901      	cmp	r1, #1
1a00368a:	d109      	bne.n	1a0036a0 <Chip_I2C_EventHandler+0x18>
		return;
	}

	stat = &iic->mXfer->status;
1a00368c:	ebc0 00c0 	rsb	r0, r0, r0, lsl #3
1a003690:	0080      	lsls	r0, r0, #2
1a003692:	4b04      	ldr	r3, [pc, #16]	; (1a0036a4 <Chip_I2C_EventHandler+0x1c>)
1a003694:	4418      	add	r0, r3
1a003696:	6902      	ldr	r2, [r0, #16]
	/* Wait for the status to change */
	while (*stat == I2C_STATUS_BUSY) {}
1a003698:	7d13      	ldrb	r3, [r2, #20]
1a00369a:	b2db      	uxtb	r3, r3
1a00369c:	2b04      	cmp	r3, #4
1a00369e:	d0fb      	beq.n	1a003698 <Chip_I2C_EventHandler+0x10>
1a0036a0:	4770      	bx	lr
1a0036a2:	bf00      	nop
1a0036a4:	10000054 	.word	0x10000054

1a0036a8 <Chip_I2C_Init>:
	}
}

/* Initializes the LPC_I2C peripheral with specified parameter */
void Chip_I2C_Init(I2C_ID_T id)
{
1a0036a8:	b570      	push	{r4, r5, r6, lr}
1a0036aa:	4605      	mov	r5, r0
 * Private functions
 ****************************************************************************/

STATIC INLINE void enableClk(I2C_ID_T id)
{
	Chip_Clock_Enable(i2c[id].clk);
1a0036ac:	4e06      	ldr	r6, [pc, #24]	; (1a0036c8 <Chip_I2C_Init+0x20>)
1a0036ae:	00c4      	lsls	r4, r0, #3
1a0036b0:	1a23      	subs	r3, r4, r0
1a0036b2:	009b      	lsls	r3, r3, #2
1a0036b4:	4433      	add	r3, r6
1a0036b6:	8898      	ldrh	r0, [r3, #4]
1a0036b8:	f000 fc5a 	bl	1a003f70 <Chip_Clock_Enable>
void Chip_I2C_Init(I2C_ID_T id)
{
	enableClk(id);

	/* Set I2C operation to default */
	LPC_I2Cx(id)->CONCLR = (I2C_CON_AA | I2C_CON_SI | I2C_CON_STA | I2C_CON_I2EN);
1a0036bc:	1b60      	subs	r0, r4, r5
1a0036be:	0080      	lsls	r0, r0, #2
1a0036c0:	5833      	ldr	r3, [r6, r0]
1a0036c2:	226c      	movs	r2, #108	; 0x6c
1a0036c4:	619a      	str	r2, [r3, #24]
1a0036c6:	bd70      	pop	{r4, r5, r6, pc}
1a0036c8:	10000054 	.word	0x10000054

1a0036cc <Chip_I2C_SetClockRate>:
	disableClk(id);
}

/* Set up clock rate for LPC_I2C peripheral */
void Chip_I2C_SetClockRate(I2C_ID_T id, uint32_t clockrate)
{
1a0036cc:	e92d 41f0 	stmdb	sp!, {r4, r5, r6, r7, r8, lr}
1a0036d0:	460c      	mov	r4, r1
}

/* Get the ADC Clock Rate */
STATIC INLINE uint32_t getClkRate(I2C_ID_T id)
{
	return Chip_Clock_GetRate(i2c[id].clk);
1a0036d2:	4f09      	ldr	r7, [pc, #36]	; (1a0036f8 <Chip_I2C_SetClockRate+0x2c>)
1a0036d4:	00c5      	lsls	r5, r0, #3
1a0036d6:	1a2e      	subs	r6, r5, r0
1a0036d8:	00b6      	lsls	r6, r6, #2
1a0036da:	19bb      	adds	r3, r7, r6
1a0036dc:	8898      	ldrh	r0, [r3, #4]
1a0036de:	f000 fc87 	bl	1a003ff0 <Chip_Clock_GetRate>
/* Set up clock rate for LPC_I2C peripheral */
void Chip_I2C_SetClockRate(I2C_ID_T id, uint32_t clockrate)
{
	uint32_t SCLValue;

	SCLValue = (getClkRate(id) / clockrate);
1a0036e2:	fbb0 f0f4 	udiv	r0, r0, r4
	LPC_I2Cx(id)->SCLH = (uint32_t) (SCLValue >> 1);
1a0036e6:	59bb      	ldr	r3, [r7, r6]
1a0036e8:	0842      	lsrs	r2, r0, #1
1a0036ea:	611a      	str	r2, [r3, #16]
	LPC_I2Cx(id)->SCLL = (uint32_t) (SCLValue - LPC_I2Cx(id)->SCLH);
1a0036ec:	59bb      	ldr	r3, [r7, r6]
1a0036ee:	691a      	ldr	r2, [r3, #16]
1a0036f0:	1a80      	subs	r0, r0, r2
1a0036f2:	6158      	str	r0, [r3, #20]
1a0036f4:	e8bd 81f0 	ldmia.w	sp!, {r4, r5, r6, r7, r8, pc}
1a0036f8:	10000054 	.word	0x10000054

1a0036fc <Chip_UART_GetIndex>:

/* Returns clock index for the peripheral block */
static int Chip_UART_GetIndex(LPC_USART_T *pUART)
{
	uint32_t base = (uint32_t) pUART;
	switch(base) {
1a0036fc:	4b09      	ldr	r3, [pc, #36]	; (1a003724 <Chip_UART_GetIndex+0x28>)
1a0036fe:	4298      	cmp	r0, r3
1a003700:	d009      	beq.n	1a003716 <Chip_UART_GetIndex+0x1a>
1a003702:	f503 5380 	add.w	r3, r3, #4096	; 0x1000
1a003706:	4298      	cmp	r0, r3
1a003708:	d007      	beq.n	1a00371a <Chip_UART_GetIndex+0x1e>
1a00370a:	f5a3 2380 	sub.w	r3, r3, #262144	; 0x40000
1a00370e:	4298      	cmp	r0, r3
1a003710:	d005      	beq.n	1a00371e <Chip_UART_GetIndex+0x22>
		case LPC_USART0_BASE:
			return 0;
1a003712:	2000      	movs	r0, #0
1a003714:	4770      	bx	lr
		case LPC_UART1_BASE:
			return 1;
		case LPC_USART2_BASE:
			return 2;
1a003716:	2002      	movs	r0, #2
1a003718:	4770      	bx	lr
		case LPC_USART3_BASE:
			return 3;
1a00371a:	2003      	movs	r0, #3
1a00371c:	4770      	bx	lr
	uint32_t base = (uint32_t) pUART;
	switch(base) {
		case LPC_USART0_BASE:
			return 0;
		case LPC_UART1_BASE:
			return 1;
1a00371e:	2001      	movs	r0, #1
		case LPC_USART3_BASE:
			return 3;
		default:
			return 0; /* Should never come here */
	}
}
1a003720:	4770      	bx	lr
1a003722:	bf00      	nop
1a003724:	400c1000 	.word	0x400c1000

1a003728 <Chip_UART_Init>:
 * Public functions
 ****************************************************************************/

/* Initializes the pUART peripheral */
void Chip_UART_Init(LPC_USART_T *pUART)
{
1a003728:	b510      	push	{r4, lr}
1a00372a:	b082      	sub	sp, #8
1a00372c:	4604      	mov	r4, r0
    volatile uint32_t tmp;

	/* Enable UART clocking. UART base clock(s) must already be enabled */
	Chip_Clock_EnableOpts(UART_PClock[Chip_UART_GetIndex(pUART)], true, true, 1);
1a00372e:	f7ff ffe5 	bl	1a0036fc <Chip_UART_GetIndex>
1a003732:	4b10      	ldr	r3, [pc, #64]	; (1a003774 <Chip_UART_Init+0x4c>)
1a003734:	f833 0010 	ldrh.w	r0, [r3, r0, lsl #1]
1a003738:	2101      	movs	r1, #1
1a00373a:	460a      	mov	r2, r1
1a00373c:	460b      	mov	r3, r1
1a00373e:	f000 fbf9 	bl	1a003f34 <Chip_Clock_EnableOpts>
 *			with a RX trip level of 8 characters, use something like
 *			(UART_FCR_FIFO_EN | UART_FCR_TRG_LEV2)
 */
STATIC INLINE void Chip_UART_SetupFIFOS(LPC_USART_T *pUART, uint32_t fcr)
{
	pUART->FCR = fcr;
1a003742:	2307      	movs	r3, #7
1a003744:	60a3      	str	r3, [r4, #8]
 * @param	pUART	: Pointer to selected pUART peripheral
 * @return Nothing
 */
STATIC INLINE void Chip_UART_TXDisable(LPC_USART_T *pUART)
{
    pUART->TER2 = 0;
1a003746:	2300      	movs	r3, #0
1a003748:	65e3      	str	r3, [r4, #92]	; 0x5c

    /* Disable Tx */
    Chip_UART_TXDisable(pUART);

    /* Disable interrupts */
	pUART->IER = 0;
1a00374a:	6063      	str	r3, [r4, #4]
	/* Set LCR to default state */
	pUART->LCR = 0;
1a00374c:	60e3      	str	r3, [r4, #12]
	/* Set ACR to default state */
	pUART->ACR = 0;
1a00374e:	6223      	str	r3, [r4, #32]
    /* Set RS485 control to default state */
	pUART->RS485CTRL = 0;
1a003750:	64e3      	str	r3, [r4, #76]	; 0x4c
	/* Set RS485 delay timer to default state */
	pUART->RS485DLY = 0;
1a003752:	6563      	str	r3, [r4, #84]	; 0x54
	/* Set RS485 addr match to default state */
	pUART->RS485ADRMATCH = 0;
1a003754:	6523      	str	r3, [r4, #80]	; 0x50

    /* Clear MCR */
    if (pUART == LPC_UART1) {
1a003756:	4b08      	ldr	r3, [pc, #32]	; (1a003778 <Chip_UART_Init+0x50>)
1a003758:	429c      	cmp	r4, r3
1a00375a:	d103      	bne.n	1a003764 <Chip_UART_Init+0x3c>
		/* Set Modem Control to default state */
		pUART->MCR = 0;
1a00375c:	2300      	movs	r3, #0
1a00375e:	6123      	str	r3, [r4, #16]
		/*Dummy Reading to Clear Status */
		tmp = pUART->MSR;
1a003760:	69a3      	ldr	r3, [r4, #24]
1a003762:	9301      	str	r3, [sp, #4]
 *			stop bit, and even (enabled) parity would be
 *			(UART_LCR_WLEN8 | UART_LCR_SBS_1BIT | UART_LCR_PARITY_EN | UART_LCR_PARITY_EVEN)
 */
STATIC INLINE void Chip_UART_ConfigData(LPC_USART_T *pUART, uint32_t config)
{
	pUART->LCR = config;
1a003764:	2303      	movs	r3, #3
1a003766:	60e3      	str	r3, [r4, #12]

	/* Default 8N1, with DLAB disabled */
	Chip_UART_ConfigData(pUART, (UART_LCR_WLEN8 | UART_LCR_SBS_1BIT | UART_LCR_PARITY_DIS));

	/* Disable fractional divider */
	pUART->FDR = 0x10;
1a003768:	2310      	movs	r3, #16
1a00376a:	62a3      	str	r3, [r4, #40]	; 0x28

    (void) tmp;
1a00376c:	9b01      	ldr	r3, [sp, #4]
}
1a00376e:	b002      	add	sp, #8
1a003770:	bd10      	pop	{r4, pc}
1a003772:	bf00      	nop
1a003774:	1a00548c 	.word	0x1a00548c
1a003778:	40082000 	.word	0x40082000

1a00377c <Chip_UART_SetBaud>:
	return readBytes;
}

/* Determines and sets best dividers to get a target bit rate */
uint32_t Chip_UART_SetBaud(LPC_USART_T *pUART, uint32_t baudrate)
{
1a00377c:	b538      	push	{r3, r4, r5, lr}
1a00377e:	4605      	mov	r5, r0
1a003780:	460c      	mov	r4, r1
	uint32_t div, divh, divl, clkin;

	/* Determine UART clock in rate without FDR */
	clkin = Chip_Clock_GetRate(UART_BClock[Chip_UART_GetIndex(pUART)]);
1a003782:	f7ff ffbb 	bl	1a0036fc <Chip_UART_GetIndex>
1a003786:	4b0c      	ldr	r3, [pc, #48]	; (1a0037b8 <Chip_UART_SetBaud+0x3c>)
1a003788:	f833 0010 	ldrh.w	r0, [r3, r0, lsl #1]
1a00378c:	f000 fc30 	bl	1a003ff0 <Chip_Clock_GetRate>
	div = clkin / (baudrate * 16);
1a003790:	0124      	lsls	r4, r4, #4
1a003792:	fbb0 f3f4 	udiv	r3, r0, r4
 * @param	pUART	: Pointer to selected UART peripheral
 * @return	Nothing
 */
STATIC INLINE void Chip_UART_EnableDivisorAccess(LPC_USART_T *pUART)
{
	pUART->LCR |= UART_LCR_DLAB_EN;
1a003796:	68ea      	ldr	r2, [r5, #12]
1a003798:	f042 0280 	orr.w	r2, r2, #128	; 0x80
1a00379c:	60ea      	str	r2, [r5, #12]
 *			order to access the USART Divisor Latches. This function
 *			doesn't alter the DLAB state.
 */
STATIC INLINE void Chip_UART_SetDivisorLatches(LPC_USART_T *pUART, uint8_t dll, uint8_t dlm)
{
	pUART->DLL = (uint32_t) dll;
1a00379e:	b2da      	uxtb	r2, r3
1a0037a0:	602a      	str	r2, [r5, #0]
	pUART->DLM = (uint32_t) dlm;
1a0037a2:	f3c3 2207 	ubfx	r2, r3, #8, #8
1a0037a6:	606a      	str	r2, [r5, #4]
 * @param	pUART	: Pointer to selected UART peripheral
 * @return	Nothing
 */
STATIC INLINE void Chip_UART_DisableDivisorAccess(LPC_USART_T *pUART)
{
	pUART->LCR &= ~UART_LCR_DLAB_EN;
1a0037a8:	68ea      	ldr	r2, [r5, #12]
1a0037aa:	f022 0280 	bic.w	r2, r2, #128	; 0x80
1a0037ae:	60ea      	str	r2, [r5, #12]
	Chip_UART_SetDivisorLatches(pUART, divl, divh);
	Chip_UART_DisableDivisorAccess(pUART);

	/* Fractional FDR alreadt setup for 1 in UART init */

	return (clkin / div) >> 4;
1a0037b0:	fbb0 f0f3 	udiv	r0, r0, r3
}
1a0037b4:	0900      	lsrs	r0, r0, #4
1a0037b6:	bd38      	pop	{r3, r4, r5, pc}
1a0037b8:	1a005484 	.word	0x1a005484

1a0037bc <Chip_UART_SetBaudFDR>:
    Chip_UART_ABIntHandler(pUART);
}

/* Determines and sets best dividers to get a target baud rate */
uint32_t Chip_UART_SetBaudFDR(LPC_USART_T *pUART, uint32_t baud)
{
1a0037bc:	e92d 4ff0 	stmdb	sp!, {r4, r5, r6, r7, r8, r9, sl, fp, lr}
1a0037c0:	b083      	sub	sp, #12
1a0037c2:	4683      	mov	fp, r0
1a0037c4:	4688      	mov	r8, r1
	uint32_t sdiv = 0, sm = 1, sd = 0;
	uint32_t pclk, m, d;
	uint32_t odiff = -1UL; /* old best diff */

	/* Get base clock for the corresponding UART */
	pclk = Chip_Clock_GetRate(UART_BClock[Chip_UART_GetIndex(pUART)]);
1a0037c6:	f7ff ff99 	bl	1a0036fc <Chip_UART_GetIndex>
1a0037ca:	4b34      	ldr	r3, [pc, #208]	; (1a00389c <Chip_UART_SetBaudFDR+0xe0>)
1a0037cc:	f833 0010 	ldrh.w	r0, [r3, r0, lsl #1]
1a0037d0:	f000 fc0e 	bl	1a003ff0 <Chip_Clock_GetRate>
1a0037d4:	4606      	mov	r6, r0
/* Determines and sets best dividers to get a target baud rate */
uint32_t Chip_UART_SetBaudFDR(LPC_USART_T *pUART, uint32_t baud)
{
	uint32_t sdiv = 0, sm = 1, sd = 0;
	uint32_t pclk, m, d;
	uint32_t odiff = -1UL; /* old best diff */
1a0037d6:	f04f 37ff 	mov.w	r7, #4294967295	; 0xffffffff

	/* Get base clock for the corresponding UART */
	pclk = Chip_Clock_GetRate(UART_BClock[Chip_UART_GetIndex(pUART)]);

	/* Loop through all possible fractional divider values */
	for (m = 1; odiff && m < 16; m++) {
1a0037da:	2401      	movs	r4, #1
}

/* Determines and sets best dividers to get a target baud rate */
uint32_t Chip_UART_SetBaudFDR(LPC_USART_T *pUART, uint32_t baud)
{
	uint32_t sdiv = 0, sm = 1, sd = 0;
1a0037dc:	2300      	movs	r3, #0
1a0037de:	9301      	str	r3, [sp, #4]
1a0037e0:	46a2      	mov	sl, r4
1a0037e2:	4699      	mov	r9, r3

	/* Get base clock for the corresponding UART */
	pclk = Chip_Clock_GetRate(UART_BClock[Chip_UART_GetIndex(pUART)]);

	/* Loop through all possible fractional divider values */
	for (m = 1; odiff && m < 16; m++) {
1a0037e4:	e029      	b.n	1a00383a <Chip_UART_SetBaudFDR+0x7e>
		for (d = 0; d < m; d++) {
			uint32_t diff, div;
			uint64_t dval = (((uint64_t) pclk << 28) * m) / (baud * (m + d));
1a0037e6:	2300      	movs	r3, #0
1a0037e8:	0932      	lsrs	r2, r6, #4
1a0037ea:	0730      	lsls	r0, r6, #28
1a0037ec:	fba0 0104 	umull	r0, r1, r0, r4
1a0037f0:	fb04 1102 	mla	r1, r4, r2, r1
1a0037f4:	1962      	adds	r2, r4, r5
1a0037f6:	fb08 f202 	mul.w	r2, r8, r2
1a0037fa:	f000 fed1 	bl	1a0045a0 <__aeabi_uldivmod>

			/* Lower 32-bit of dval has diff */
			diff = (uint32_t) dval;
1a0037fe:	4603      	mov	r3, r0
			/* Upper 32-bit of dval has div */
			div = (uint32_t) (dval >> 32);
1a003800:	460a      	mov	r2, r1

			/* Closer to next div */
			if ((int)diff < 0) {
1a003802:	2800      	cmp	r0, #0
1a003804:	da01      	bge.n	1a00380a <Chip_UART_SetBaudFDR+0x4e>
				diff = -diff;
1a003806:	4243      	negs	r3, r0
				div ++;
1a003808:	1c4a      	adds	r2, r1, #1
			}

			/* Check if new value is worse than old or out of range */
			if (odiff < diff || !div || (div >> 16) || (div < 3 && d)) {
1a00380a:	429f      	cmp	r7, r3
1a00380c:	d30a      	bcc.n	1a003824 <Chip_UART_SetBaudFDR+0x68>
1a00380e:	b14a      	cbz	r2, 1a003824 <Chip_UART_SetBaudFDR+0x68>
1a003810:	0c11      	lsrs	r1, r2, #16
1a003812:	d107      	bne.n	1a003824 <Chip_UART_SetBaudFDR+0x68>
1a003814:	2a02      	cmp	r2, #2
1a003816:	d800      	bhi.n	1a00381a <Chip_UART_SetBaudFDR+0x5e>
1a003818:	b925      	cbnz	r5, 1a003824 <Chip_UART_SetBaudFDR+0x68>
			sd = d;
			sm = m;
			odiff = diff;

			/* On perfect match, break loop */
			if(!diff) {
1a00381a:	b14b      	cbz	r3, 1a003830 <Chip_UART_SetBaudFDR+0x74>

			/* Store the new better values */
			sdiv = div;
			sd = d;
			sm = m;
			odiff = diff;
1a00381c:	461f      	mov	r7, r3
				continue;
			}

			/* Store the new better values */
			sdiv = div;
			sd = d;
1a00381e:	9501      	str	r5, [sp, #4]
			sm = m;
1a003820:	46a2      	mov	sl, r4
			if (odiff < diff || !div || (div >> 16) || (div < 3 && d)) {
				continue;
			}

			/* Store the new better values */
			sdiv = div;
1a003822:	4691      	mov	r9, r2
	/* Get base clock for the corresponding UART */
	pclk = Chip_Clock_GetRate(UART_BClock[Chip_UART_GetIndex(pUART)]);

	/* Loop through all possible fractional divider values */
	for (m = 1; odiff && m < 16; m++) {
		for (d = 0; d < m; d++) {
1a003824:	3501      	adds	r5, #1
1a003826:	e000      	b.n	1a00382a <Chip_UART_SetBaudFDR+0x6e>
1a003828:	2500      	movs	r5, #0
1a00382a:	42a5      	cmp	r5, r4
1a00382c:	d3db      	bcc.n	1a0037e6 <Chip_UART_SetBaudFDR+0x2a>
1a00382e:	e003      	b.n	1a003838 <Chip_UART_SetBaudFDR+0x7c>

			/* Store the new better values */
			sdiv = div;
			sd = d;
			sm = m;
			odiff = diff;
1a003830:	461f      	mov	r7, r3
				continue;
			}

			/* Store the new better values */
			sdiv = div;
			sd = d;
1a003832:	9501      	str	r5, [sp, #4]
			sm = m;
1a003834:	46a2      	mov	sl, r4
			if (odiff < diff || !div || (div >> 16) || (div < 3 && d)) {
				continue;
			}

			/* Store the new better values */
			sdiv = div;
1a003836:	4691      	mov	r9, r2

	/* Get base clock for the corresponding UART */
	pclk = Chip_Clock_GetRate(UART_BClock[Chip_UART_GetIndex(pUART)]);

	/* Loop through all possible fractional divider values */
	for (m = 1; odiff && m < 16; m++) {
1a003838:	3401      	adds	r4, #1
1a00383a:	b10f      	cbz	r7, 1a003840 <Chip_UART_SetBaudFDR+0x84>
1a00383c:	2c0f      	cmp	r4, #15
1a00383e:	d9f3      	bls.n	1a003828 <Chip_UART_SetBaudFDR+0x6c>
			}
		}
	}

	/* Return 0 if a vaild divisor is not possible */
	if (!sdiv) {
1a003840:	f1b9 0f00 	cmp.w	r9, #0
1a003844:	d026      	beq.n	1a003894 <Chip_UART_SetBaudFDR+0xd8>
 * @param	pUART	: Pointer to selected UART peripheral
 * @return	Nothing
 */
STATIC INLINE void Chip_UART_EnableDivisorAccess(LPC_USART_T *pUART)
{
	pUART->LCR |= UART_LCR_DLAB_EN;
1a003846:	f8db 300c 	ldr.w	r3, [fp, #12]
1a00384a:	f043 0380 	orr.w	r3, r3, #128	; 0x80
1a00384e:	f8cb 300c 	str.w	r3, [fp, #12]
 *			order to access the USART Divisor Latches. This function
 *			doesn't alter the DLAB state.
 */
STATIC INLINE void Chip_UART_SetDivisorLatches(LPC_USART_T *pUART, uint8_t dll, uint8_t dlm)
{
	pUART->DLL = (uint32_t) dll;
1a003852:	fa5f f389 	uxtb.w	r3, r9
1a003856:	f8cb 3000 	str.w	r3, [fp]
	pUART->DLM = (uint32_t) dlm;
1a00385a:	f3c9 2307 	ubfx	r3, r9, #8, #8
1a00385e:	f8cb 3004 	str.w	r3, [fp, #4]
 * @param	pUART	: Pointer to selected UART peripheral
 * @return	Nothing
 */
STATIC INLINE void Chip_UART_DisableDivisorAccess(LPC_USART_T *pUART)
{
	pUART->LCR &= ~UART_LCR_DLAB_EN;
1a003862:	f8db 300c 	ldr.w	r3, [fp, #12]
1a003866:	f023 0380 	bic.w	r3, r3, #128	; 0x80
1a00386a:	f8cb 300c 	str.w	r3, [fp, #12]
	Chip_UART_EnableDivisorAccess(pUART);
	Chip_UART_SetDivisorLatches(pUART, UART_LOAD_DLL(sdiv), UART_LOAD_DLM(sdiv));
	Chip_UART_DisableDivisorAccess(pUART);

	/* Set best fractional divider */
	pUART->FDR = (UART_FDR_MULVAL(sm) | UART_FDR_DIVADDVAL(sd));
1a00386e:	ea4f 130a 	mov.w	r3, sl, lsl #4
1a003872:	b2da      	uxtb	r2, r3
1a003874:	9901      	ldr	r1, [sp, #4]
1a003876:	f001 030f 	and.w	r3, r1, #15
1a00387a:	4313      	orrs	r3, r2
1a00387c:	f8cb 3028 	str.w	r3, [fp, #40]	; 0x28

	/* Return actual baud rate */
	return (pclk >> 4) * sm / (sdiv * (sm + sd));
1a003880:	0933      	lsrs	r3, r6, #4
1a003882:	fb0a f303 	mul.w	r3, sl, r3
1a003886:	eb0a 0001 	add.w	r0, sl, r1
1a00388a:	fb09 f000 	mul.w	r0, r9, r0
1a00388e:	fbb3 f0f0 	udiv	r0, r3, r0
1a003892:	e000      	b.n	1a003896 <Chip_UART_SetBaudFDR+0xda>
		}
	}

	/* Return 0 if a vaild divisor is not possible */
	if (!sdiv) {
		return 0;
1a003894:	2000      	movs	r0, #0
	/* Set best fractional divider */
	pUART->FDR = (UART_FDR_MULVAL(sm) | UART_FDR_DIVADDVAL(sd));

	/* Return actual baud rate */
	return (pclk >> 4) * sm / (sdiv * (sm + sd));
}
1a003896:	b003      	add	sp, #12
1a003898:	e8bd 8ff0 	ldmia.w	sp!, {r4, r5, r6, r7, r8, r9, sl, fp, pc}
1a00389c:	1a005484 	.word	0x1a005484

1a0038a0 <Chip_ADC_GetClockIndex>:
/* Returns clock index for the peripheral block */
STATIC CHIP_CCU_CLK_T Chip_ADC_GetClockIndex(LPC_ADC_T *pADC)
{
	CHIP_CCU_CLK_T clkADC;

	if (pADC == LPC_ADC1) {
1a0038a0:	4b03      	ldr	r3, [pc, #12]	; (1a0038b0 <Chip_ADC_GetClockIndex+0x10>)
1a0038a2:	4298      	cmp	r0, r3
1a0038a4:	d101      	bne.n	1a0038aa <Chip_ADC_GetClockIndex+0xa>
		clkADC = CLK_APB3_ADC1;
1a0038a6:	2004      	movs	r0, #4
1a0038a8:	4770      	bx	lr
	}
	else {
		clkADC = CLK_APB3_ADC0;
1a0038aa:	2003      	movs	r0, #3
	}

	return clkADC;
}
1a0038ac:	4770      	bx	lr
1a0038ae:	bf00      	nop
1a0038b0:	400e4000 	.word	0x400e4000

1a0038b4 <getClkDiv>:

/* Get divider value */
STATIC uint8_t getClkDiv(LPC_ADC_T *pADC, bool burstMode, uint32_t adcRate, uint8_t clks)
{
1a0038b4:	b570      	push	{r4, r5, r6, lr}
1a0038b6:	460d      	mov	r5, r1
1a0038b8:	4614      	mov	r4, r2
1a0038ba:	461e      	mov	r6, r3
	   A/D converter, which should be less than or equal to 4.5MHz.
	   A fully conversion requires (bits_accuracy+1) of these clocks.
	   ADC Clock = PCLK_ADC0 / (CLKDIV + 1);
	   ADC rate = ADC clock / (the number of clocks required for each conversion);
	 */
	adcBlockFreq = Chip_Clock_GetRate(Chip_ADC_GetClockIndex(pADC));
1a0038bc:	f7ff fff0 	bl	1a0038a0 <Chip_ADC_GetClockIndex>
1a0038c0:	f000 fb96 	bl	1a003ff0 <Chip_Clock_GetRate>
	if (burstMode) {
1a0038c4:	b115      	cbz	r5, 1a0038cc <getClkDiv+0x18>
		fullAdcRate = adcRate * clks;
1a0038c6:	fb04 f406 	mul.w	r4, r4, r6
1a0038ca:	e003      	b.n	1a0038d4 <getClkDiv+0x20>
	}
	else {
		fullAdcRate = adcRate * getFullConvClk();
1a0038cc:	eb04 0384 	add.w	r3, r4, r4, lsl #2
1a0038d0:	eb04 0443 	add.w	r4, r4, r3, lsl #1
	}

	/* Get the round value by fomular: (2*A + B)/(2*B) */
	div = ((adcBlockFreq * 2 + fullAdcRate) / (fullAdcRate * 2)) - 1;
1a0038d4:	eb04 0040 	add.w	r0, r4, r0, lsl #1
1a0038d8:	0064      	lsls	r4, r4, #1
1a0038da:	fbb0 f4f4 	udiv	r4, r0, r4
1a0038de:	1e60      	subs	r0, r4, #1
	return div;
}
1a0038e0:	b2c0      	uxtb	r0, r0
1a0038e2:	bd70      	pop	{r4, r5, r6, pc}

1a0038e4 <setStartMode>:

/* Set start mode for ADC */
void setStartMode(LPC_ADC_T *pADC, uint8_t start_mode)
{
	uint32_t temp;
	temp = pADC->CR & (~ADC_CR_START_MASK);
1a0038e4:	6803      	ldr	r3, [r0, #0]
1a0038e6:	f023 63e0 	bic.w	r3, r3, #117440512	; 0x7000000
	pADC->CR = temp | (ADC_CR_START_MODE_SEL((uint32_t) start_mode));
1a0038ea:	ea43 6101 	orr.w	r1, r3, r1, lsl #24
1a0038ee:	6001      	str	r1, [r0, #0]
1a0038f0:	4770      	bx	lr
1a0038f2:	bf00      	nop

1a0038f4 <readAdcVal>:

/* Get the ADC value */
Status readAdcVal(LPC_ADC_T *pADC, uint8_t channel, uint16_t *data)
{
	uint32_t temp;
	temp = pADC->DR[channel];
1a0038f4:	3104      	adds	r1, #4
1a0038f6:	f850 3021 	ldr.w	r3, [r0, r1, lsl #2]
	if (!ADC_DR_DONE(temp)) {
1a0038fa:	2b00      	cmp	r3, #0
1a0038fc:	da04      	bge.n	1a003908 <readAdcVal+0x14>
		return ERROR;
	}
	/*	if(ADC_DR_OVERRUN(temp) && (pADC->CR & ADC_CR_BURST)) */
	/*	return ERROR; */
	*data = (uint16_t) ADC_DR_RESULT(temp);
1a0038fe:	f3c3 1389 	ubfx	r3, r3, #6, #10
1a003902:	8013      	strh	r3, [r2, #0]
	return SUCCESS;
1a003904:	2001      	movs	r0, #1
1a003906:	4770      	bx	lr
Status readAdcVal(LPC_ADC_T *pADC, uint8_t channel, uint16_t *data)
{
	uint32_t temp;
	temp = pADC->DR[channel];
	if (!ADC_DR_DONE(temp)) {
		return ERROR;
1a003908:	2000      	movs	r0, #0
	}
	/*	if(ADC_DR_OVERRUN(temp) && (pADC->CR & ADC_CR_BURST)) */
	/*	return ERROR; */
	*data = (uint16_t) ADC_DR_RESULT(temp);
	return SUCCESS;
}
1a00390a:	4770      	bx	lr

1a00390c <Chip_ADC_Init>:
 * Public functions
 ****************************************************************************/

/* Initialize the ADC peripheral and the ADC setup structure to default value */
void Chip_ADC_Init(LPC_ADC_T *pADC, ADC_CLOCK_SETUP_T *ADCSetup)
{
1a00390c:	b538      	push	{r3, r4, r5, lr}
1a00390e:	4605      	mov	r5, r0
1a003910:	460c      	mov	r4, r1
	uint8_t div;
	uint32_t cr = 0;
	uint32_t clk;

	Chip_Clock_EnableOpts(Chip_ADC_GetClockIndex(pADC), true, true, 1);
1a003912:	f7ff ffc5 	bl	1a0038a0 <Chip_ADC_GetClockIndex>
1a003916:	2101      	movs	r1, #1
1a003918:	460a      	mov	r2, r1
1a00391a:	460b      	mov	r3, r1
1a00391c:	f000 fb0a 	bl	1a003f34 <Chip_Clock_EnableOpts>

	pADC->INTEN = 0;		/* Disable all interrupts */
1a003920:	2100      	movs	r1, #0
1a003922:	60e9      	str	r1, [r5, #12]

	cr |= ADC_CR_PDN;
	ADCSetup->adcRate = ADC_MAX_SAMPLE_RATE;
1a003924:	4a08      	ldr	r2, [pc, #32]	; (1a003948 <Chip_ADC_Init+0x3c>)
1a003926:	6022      	str	r2, [r4, #0]
	ADCSetup->bitsAccuracy = ADC_10BITS;
1a003928:	7121      	strb	r1, [r4, #4]
	clk = 11;
	ADCSetup->burstMode = false;
1a00392a:	7161      	strb	r1, [r4, #5]
	div = getClkDiv(pADC, false, ADCSetup->adcRate, clk);
1a00392c:	4628      	mov	r0, r5
1a00392e:	230b      	movs	r3, #11
1a003930:	f7ff ffc0 	bl	1a0038b4 <getClkDiv>
	cr |= ADC_CR_CLKDIV(div);
1a003934:	0200      	lsls	r0, r0, #8
1a003936:	f440 1300 	orr.w	r3, r0, #2097152	; 0x200000
	cr |= ADC_CR_BITACC(ADCSetup->bitsAccuracy);
1a00393a:	7920      	ldrb	r0, [r4, #4]
1a00393c:	f000 0007 	and.w	r0, r0, #7
1a003940:	ea43 4040 	orr.w	r0, r3, r0, lsl #17
	pADC->CR = cr;
1a003944:	6028      	str	r0, [r5, #0]
1a003946:	bd38      	pop	{r3, r4, r5, pc}
1a003948:	00061a80 	.word	0x00061a80

1a00394c <Chip_ADC_DeInit>:
}

/* Shutdown ADC */
void Chip_ADC_DeInit(LPC_ADC_T *pADC)
{
1a00394c:	b508      	push	{r3, lr}
	pADC->INTEN = 0x00000100;
1a00394e:	f44f 7280 	mov.w	r2, #256	; 0x100
1a003952:	60c2      	str	r2, [r0, #12]
	pADC->CR = 0;
1a003954:	2200      	movs	r2, #0
1a003956:	6002      	str	r2, [r0, #0]
	Chip_Clock_Disable(Chip_ADC_GetClockIndex(pADC));
1a003958:	f7ff ffa2 	bl	1a0038a0 <Chip_ADC_GetClockIndex>
1a00395c:	f000 fb2e 	bl	1a003fbc <Chip_Clock_Disable>
1a003960:	bd08      	pop	{r3, pc}
1a003962:	bf00      	nop

1a003964 <Chip_ADC_ReadValue>:
}

/* Get the ADC value */
Status Chip_ADC_ReadValue(LPC_ADC_T *pADC, uint8_t channel, uint16_t *data)
{
1a003964:	b508      	push	{r3, lr}
	return readAdcVal(pADC, channel, data);
1a003966:	f7ff ffc5 	bl	1a0038f4 <readAdcVal>
}
1a00396a:	bd08      	pop	{r3, pc}

1a00396c <Chip_ADC_ReadStatus>:

/* Get ADC Channel status from ADC data register */
FlagStatus Chip_ADC_ReadStatus(LPC_ADC_T *pADC, uint8_t channel, uint32_t StatusType)
{
	switch (StatusType) {
1a00396c:	2a01      	cmp	r2, #1
1a00396e:	d009      	beq.n	1a003984 <Chip_ADC_ReadStatus+0x18>
1a003970:	b112      	cbz	r2, 1a003978 <Chip_ADC_ReadStatus+0xc>
1a003972:	2a02      	cmp	r2, #2
1a003974:	d00e      	beq.n	1a003994 <Chip_ADC_ReadStatus+0x28>
1a003976:	e013      	b.n	1a0039a0 <Chip_ADC_ReadStatus+0x34>
	case ADC_DR_DONE_STAT:
		return (pADC->STAT & (1UL << channel)) ? SET : RESET;
1a003978:	6b00      	ldr	r0, [r0, #48]	; 0x30
1a00397a:	40c8      	lsrs	r0, r1
1a00397c:	f000 0001 	and.w	r0, r0, #1
1a003980:	b2c0      	uxtb	r0, r0
1a003982:	4770      	bx	lr

	case ADC_DR_OVERRUN_STAT:
		channel += 8;
1a003984:	3108      	adds	r1, #8
1a003986:	b2c9      	uxtb	r1, r1
		return (pADC->STAT & (1UL << channel)) ? SET : RESET;
1a003988:	6b00      	ldr	r0, [r0, #48]	; 0x30
1a00398a:	40c8      	lsrs	r0, r1
1a00398c:	f000 0001 	and.w	r0, r0, #1
1a003990:	b2c0      	uxtb	r0, r0
1a003992:	4770      	bx	lr

	case ADC_DR_ADINT_STAT:
		return pADC->STAT >> 16 ? SET : RESET;
1a003994:	6b03      	ldr	r3, [r0, #48]	; 0x30
1a003996:	0c1b      	lsrs	r3, r3, #16
1a003998:	bf14      	ite	ne
1a00399a:	2001      	movne	r0, #1
1a00399c:	2000      	moveq	r0, #0
1a00399e:	4770      	bx	lr

	default:
		break;
	}
	return RESET;
1a0039a0:	2000      	movs	r0, #0
}
1a0039a2:	4770      	bx	lr

1a0039a4 <Chip_ADC_Int_SetChannelCmd>:

/* Enable/Disable interrupt for ADC channel */
void Chip_ADC_Int_SetChannelCmd(LPC_ADC_T *pADC, uint8_t channel, FunctionalState NewState)
{
	if (NewState == ENABLE) {
1a0039a4:	2a01      	cmp	r2, #1
1a0039a6:	d105      	bne.n	1a0039b4 <Chip_ADC_Int_SetChannelCmd+0x10>
		pADC->INTEN |= (1UL << channel);
1a0039a8:	68c2      	ldr	r2, [r0, #12]
1a0039aa:	2301      	movs	r3, #1
1a0039ac:	408b      	lsls	r3, r1
1a0039ae:	4313      	orrs	r3, r2
1a0039b0:	60c3      	str	r3, [r0, #12]
1a0039b2:	4770      	bx	lr
	}
	else {
		pADC->INTEN &= (~(1UL << channel));
1a0039b4:	68c2      	ldr	r2, [r0, #12]
1a0039b6:	2301      	movs	r3, #1
1a0039b8:	408b      	lsls	r3, r1
1a0039ba:	ea22 0303 	bic.w	r3, r2, r3
1a0039be:	60c3      	str	r3, [r0, #12]
1a0039c0:	4770      	bx	lr
1a0039c2:	bf00      	nop

1a0039c4 <Chip_ADC_SetStartMode>:
	}
}

/* Select the mode starting the AD conversion */
void Chip_ADC_SetStartMode(LPC_ADC_T *pADC, ADC_START_MODE_T mode, ADC_EDGE_CFG_T EdgeOption)
{
1a0039c4:	b508      	push	{r3, lr}
	if ((mode != ADC_START_NOW) && (mode != ADC_NO_START)) {
1a0039c6:	2901      	cmp	r1, #1
1a0039c8:	d909      	bls.n	1a0039de <Chip_ADC_SetStartMode+0x1a>
		if (EdgeOption) {
1a0039ca:	b122      	cbz	r2, 1a0039d6 <Chip_ADC_SetStartMode+0x12>
			pADC->CR |= ADC_CR_EDGE;
1a0039cc:	6803      	ldr	r3, [r0, #0]
1a0039ce:	f043 6300 	orr.w	r3, r3, #134217728	; 0x8000000
1a0039d2:	6003      	str	r3, [r0, #0]
1a0039d4:	e003      	b.n	1a0039de <Chip_ADC_SetStartMode+0x1a>
		}
		else {
			pADC->CR &= ~ADC_CR_EDGE;
1a0039d6:	6803      	ldr	r3, [r0, #0]
1a0039d8:	f023 6300 	bic.w	r3, r3, #134217728	; 0x8000000
1a0039dc:	6003      	str	r3, [r0, #0]
		}
	}
	setStartMode(pADC, (uint8_t) mode);
1a0039de:	f7ff ff81 	bl	1a0038e4 <setStartMode>
1a0039e2:	bd08      	pop	{r3, pc}

1a0039e4 <Chip_ADC_SetSampleRate>:
}

/* Set the ADC Sample rate */
void Chip_ADC_SetSampleRate(LPC_ADC_T *pADC, ADC_CLOCK_SETUP_T *ADCSetup, uint32_t rate)
{
1a0039e4:	b570      	push	{r4, r5, r6, lr}
1a0039e6:	4606      	mov	r6, r0
1a0039e8:	460d      	mov	r5, r1
	uint8_t div;
	uint32_t cr;

	cr = pADC->CR & (~ADC_SAMPLE_RATE_CONFIG_MASK);
1a0039ea:	6804      	ldr	r4, [r0, #0]
1a0039ec:	f424 246f 	bic.w	r4, r4, #978944	; 0xef000
1a0039f0:	f424 6470 	bic.w	r4, r4, #3840	; 0xf00
	ADCSetup->adcRate = rate;
1a0039f4:	600a      	str	r2, [r1, #0]
	div = getClkDiv(pADC, ADCSetup->burstMode, rate, (11 - ADCSetup->bitsAccuracy));
1a0039f6:	790b      	ldrb	r3, [r1, #4]
1a0039f8:	f1c3 030b 	rsb	r3, r3, #11
1a0039fc:	7949      	ldrb	r1, [r1, #5]
1a0039fe:	b2db      	uxtb	r3, r3
1a003a00:	f7ff ff58 	bl	1a0038b4 <getClkDiv>
	cr |= ADC_CR_CLKDIV(div);
1a003a04:	ea44 2000 	orr.w	r0, r4, r0, lsl #8
	cr |= ADC_CR_BITACC(ADCSetup->bitsAccuracy);
1a003a08:	792c      	ldrb	r4, [r5, #4]
1a003a0a:	f004 0407 	and.w	r4, r4, #7
1a003a0e:	ea40 4044 	orr.w	r0, r0, r4, lsl #17
	pADC->CR = cr;
1a003a12:	6030      	str	r0, [r6, #0]
1a003a14:	bd70      	pop	{r4, r5, r6, pc}
1a003a16:	bf00      	nop

1a003a18 <Chip_ADC_SetResolution>:
}

/* Set the ADC accuracy bits */
void Chip_ADC_SetResolution(LPC_ADC_T *pADC, ADC_CLOCK_SETUP_T *ADCSetup, ADC_RESOLUTION_T resolution)
{
1a003a18:	b508      	push	{r3, lr}
	ADCSetup->bitsAccuracy = resolution;
1a003a1a:	710a      	strb	r2, [r1, #4]
	Chip_ADC_SetSampleRate(pADC, ADCSetup, ADCSetup->adcRate);
1a003a1c:	680a      	ldr	r2, [r1, #0]
1a003a1e:	f7ff ffe1 	bl	1a0039e4 <Chip_ADC_SetSampleRate>
1a003a22:	bd08      	pop	{r3, pc}

1a003a24 <Chip_ADC_EnableChannel>:
}

/* Enable or disable the ADC channel on ADC peripheral */
void Chip_ADC_EnableChannel(LPC_ADC_T *pADC, ADC_CHANNEL_T channel, FunctionalState NewState)
{
	if (NewState == ENABLE) {
1a003a24:	2a01      	cmp	r2, #1
1a003a26:	d105      	bne.n	1a003a34 <Chip_ADC_EnableChannel+0x10>
		pADC->CR |= ADC_CR_CH_SEL(channel);
1a003a28:	6802      	ldr	r2, [r0, #0]
1a003a2a:	2301      	movs	r3, #1
1a003a2c:	408b      	lsls	r3, r1
1a003a2e:	4313      	orrs	r3, r2
1a003a30:	6003      	str	r3, [r0, #0]
1a003a32:	4770      	bx	lr
	}
	else {
		pADC->CR &= ~ADC_CR_START_MASK;
1a003a34:	6803      	ldr	r3, [r0, #0]
1a003a36:	f023 63e0 	bic.w	r3, r3, #117440512	; 0x7000000
1a003a3a:	6003      	str	r3, [r0, #0]
		pADC->CR &= ~ADC_CR_CH_SEL(channel);
1a003a3c:	6802      	ldr	r2, [r0, #0]
1a003a3e:	2301      	movs	r3, #1
1a003a40:	408b      	lsls	r3, r1
1a003a42:	ea22 0303 	bic.w	r3, r2, r3
1a003a46:	6003      	str	r3, [r0, #0]
1a003a48:	4770      	bx	lr
1a003a4a:	bf00      	nop

1a003a4c <Chip_ADC_SetBurstCmd>:
	}
}

/* Enable burst mode */
void Chip_ADC_SetBurstCmd(LPC_ADC_T *pADC, FunctionalState NewState)
{
1a003a4c:	b538      	push	{r3, r4, r5, lr}
1a003a4e:	4604      	mov	r4, r0
1a003a50:	460d      	mov	r5, r1
	setStartMode(pADC, ADC_NO_START);
1a003a52:	2100      	movs	r1, #0
1a003a54:	f7ff ff46 	bl	1a0038e4 <setStartMode>
	
    if (NewState == DISABLE) {
1a003a58:	b925      	cbnz	r5, 1a003a64 <Chip_ADC_SetBurstCmd+0x18>
		pADC->CR &= ~ADC_CR_BURST;
1a003a5a:	6823      	ldr	r3, [r4, #0]
1a003a5c:	f423 3380 	bic.w	r3, r3, #65536	; 0x10000
1a003a60:	6023      	str	r3, [r4, #0]
1a003a62:	bd38      	pop	{r3, r4, r5, pc}
	}
	else {
		pADC->CR |= ADC_CR_BURST;
1a003a64:	6823      	ldr	r3, [r4, #0]
1a003a66:	f443 3380 	orr.w	r3, r3, #65536	; 0x10000
1a003a6a:	6023      	str	r3, [r4, #0]
1a003a6c:	bd38      	pop	{r3, r4, r5, pc}
1a003a6e:	bf00      	nop

1a003a70 <SystemCoreClockUpdate>:


/* Update system core clock rate, should be called if the system has
   a clock rate change */
void SystemCoreClockUpdate(void)
{
1a003a70:	b508      	push	{r3, lr}
	/* CPU core speed */
	SystemCoreClock = Chip_Clock_GetRate(CLK_MX_MXCORE);
1a003a72:	2069      	movs	r0, #105	; 0x69
1a003a74:	f000 fabc 	bl	1a003ff0 <Chip_Clock_GetRate>
1a003a78:	4b01      	ldr	r3, [pc, #4]	; (1a003a80 <SystemCoreClockUpdate+0x10>)
1a003a7a:	6018      	str	r0, [r3, #0]
1a003a7c:	bd08      	pop	{r3, pc}
1a003a7e:	bf00      	nop
1a003a80:	100009f0 	.word	0x100009f0

1a003a84 <pll_calc_divs>:
		return -val;
	return val;
}

static void pll_calc_divs(uint32_t freq, PLL_PARAM_T *ppll)
{
1a003a84:	b5f0      	push	{r4, r5, r6, r7, lr}

	uint32_t prev = freq;
	int n, m, p;

	/* When direct mode is set FBSEL should be a don't care */
	if (ppll->ctrl & (1 << 7)) {
1a003a86:	680b      	ldr	r3, [r1, #0]
1a003a88:	f013 0f80 	tst.w	r3, #128	; 0x80
1a003a8c:	d002      	beq.n	1a003a94 <pll_calc_divs+0x10>
		ppll->ctrl &= ~(1 << 6);
1a003a8e:	f023 0340 	bic.w	r3, r3, #64	; 0x40
1a003a92:	600b      	str	r3, [r1, #0]
1a003a94:	4686      	mov	lr, r0
1a003a96:	2601      	movs	r6, #1
1a003a98:	e041      	b.n	1a003b1e <pll_calc_divs+0x9a>
	}
	for (n = 1; n <= 4; n++) {
		for (p = 0; p < 4; p ++) {
			for (m = 1; m <= 256; m++) {
				uint32_t fcco, fout;
				if (ppll->ctrl & (1 << 6)) {
1a003a9a:	680d      	ldr	r5, [r1, #0]
1a003a9c:	f015 0f40 	tst.w	r5, #64	; 0x40
1a003aa0:	d008      	beq.n	1a003ab4 <pll_calc_divs+0x30>
					fcco = ((m << (p + 1)) * ppll->fin) / n;
1a003aa2:	1c7b      	adds	r3, r7, #1
1a003aa4:	fa04 f203 	lsl.w	r2, r4, r3
1a003aa8:	694b      	ldr	r3, [r1, #20]
1a003aaa:	fb03 f302 	mul.w	r3, r3, r2
1a003aae:	fbb3 f3f6 	udiv	r3, r3, r6
1a003ab2:	e004      	b.n	1a003abe <pll_calc_divs+0x3a>
				} else {
					fcco = (m * ppll->fin) / n;
1a003ab4:	694b      	ldr	r3, [r1, #20]
1a003ab6:	fb04 f303 	mul.w	r3, r4, r3
1a003aba:	fbb3 f3f6 	udiv	r3, r3, r6
				}
				if (fcco < PLL_MIN_CCO_FREQ) continue;
1a003abe:	4a19      	ldr	r2, [pc, #100]	; (1a003b24 <pll_calc_divs+0xa0>)
1a003ac0:	4293      	cmp	r3, r2
1a003ac2:	d920      	bls.n	1a003b06 <pll_calc_divs+0x82>
				if (fcco > PLL_MAX_CCO_FREQ) break;
1a003ac4:	4a18      	ldr	r2, [pc, #96]	; (1a003b28 <pll_calc_divs+0xa4>)
1a003ac6:	4293      	cmp	r3, r2
1a003ac8:	d823      	bhi.n	1a003b12 <pll_calc_divs+0x8e>
				if (ppll->ctrl & (1 << 7)) {
1a003aca:	f015 0f80 	tst.w	r5, #128	; 0x80
1a003ace:	d103      	bne.n	1a003ad8 <pll_calc_divs+0x54>
					fout = fcco;
				} else {
					fout = fcco >> (p + 1);
1a003ad0:	1c7a      	adds	r2, r7, #1
1a003ad2:	fa23 f202 	lsr.w	r2, r3, r2
1a003ad6:	e000      	b.n	1a003ada <pll_calc_divs+0x56>
					fcco = (m * ppll->fin) / n;
				}
				if (fcco < PLL_MIN_CCO_FREQ) continue;
				if (fcco > PLL_MAX_CCO_FREQ) break;
				if (ppll->ctrl & (1 << 7)) {
					fout = fcco;
1a003ad8:	461a      	mov	r2, r3
/*****************************************************************************
 * Private functions
 ****************************************************************************/
__STATIC_INLINE uint32_t ABS(int val)
{
	if (val < 0)
1a003ada:	1a85      	subs	r5, r0, r2
1a003adc:	d502      	bpl.n	1a003ae4 <pll_calc_divs+0x60>
		return -val;
1a003ade:	f1c5 0c00 	rsb	ip, r5, #0
1a003ae2:	e000      	b.n	1a003ae6 <pll_calc_divs+0x62>
	return val;
1a003ae4:	46ac      	mov	ip, r5
					fout = fcco;
				} else {
					fout = fcco >> (p + 1);
				}

				if (ABS(freq - fout) < prev) {
1a003ae6:	45e6      	cmp	lr, ip
1a003ae8:	d90d      	bls.n	1a003b06 <pll_calc_divs+0x82>
					ppll->nsel = n;
1a003aea:	608e      	str	r6, [r1, #8]
					ppll->psel = p + 1;
1a003aec:	f107 0e01 	add.w	lr, r7, #1
1a003af0:	f8c1 e00c 	str.w	lr, [r1, #12]
					ppll->msel = m;
1a003af4:	610c      	str	r4, [r1, #16]
					ppll->fout = fout;
1a003af6:	618a      	str	r2, [r1, #24]
					ppll->fcco = fcco;
1a003af8:	61cb      	str	r3, [r1, #28]
/*****************************************************************************
 * Private functions
 ****************************************************************************/
__STATIC_INLINE uint32_t ABS(int val)
{
	if (val < 0)
1a003afa:	2d00      	cmp	r5, #0
1a003afc:	da02      	bge.n	1a003b04 <pll_calc_divs+0x80>
		return -val;
1a003afe:	f1c5 0e00 	rsb	lr, r5, #0
1a003b02:	e000      	b.n	1a003b06 <pll_calc_divs+0x82>
	return val;
1a003b04:	46ae      	mov	lr, r5
	if (ppll->ctrl & (1 << 7)) {
		ppll->ctrl &= ~(1 << 6);
	}
	for (n = 1; n <= 4; n++) {
		for (p = 0; p < 4; p ++) {
			for (m = 1; m <= 256; m++) {
1a003b06:	3401      	adds	r4, #1
1a003b08:	e000      	b.n	1a003b0c <pll_calc_divs+0x88>
1a003b0a:	2401      	movs	r4, #1
1a003b0c:	f5b4 7f80 	cmp.w	r4, #256	; 0x100
1a003b10:	ddc3      	ble.n	1a003a9a <pll_calc_divs+0x16>
	/* When direct mode is set FBSEL should be a don't care */
	if (ppll->ctrl & (1 << 7)) {
		ppll->ctrl &= ~(1 << 6);
	}
	for (n = 1; n <= 4; n++) {
		for (p = 0; p < 4; p ++) {
1a003b12:	3701      	adds	r7, #1
1a003b14:	e000      	b.n	1a003b18 <pll_calc_divs+0x94>
1a003b16:	2700      	movs	r7, #0
1a003b18:	2f03      	cmp	r7, #3
1a003b1a:	ddf6      	ble.n	1a003b0a <pll_calc_divs+0x86>

	/* When direct mode is set FBSEL should be a don't care */
	if (ppll->ctrl & (1 << 7)) {
		ppll->ctrl &= ~(1 << 6);
	}
	for (n = 1; n <= 4; n++) {
1a003b1c:	3601      	adds	r6, #1
1a003b1e:	2e04      	cmp	r6, #4
1a003b20:	ddf9      	ble.n	1a003b16 <pll_calc_divs+0x92>
					prev = ABS(freq - fout);
				}
			}
		}
	}
}
1a003b22:	bdf0      	pop	{r4, r5, r6, r7, pc}
1a003b24:	094c5eff 	.word	0x094c5eff
1a003b28:	1312d000 	.word	0x1312d000

1a003b2c <pll_get_frac>:

static void pll_get_frac(uint32_t freq, PLL_PARAM_T *ppll)
{
1a003b2c:	b5f0      	push	{r4, r5, r6, r7, lr}
1a003b2e:	b099      	sub	sp, #100	; 0x64
1a003b30:	4605      	mov	r5, r0
1a003b32:	460c      	mov	r4, r1
	int diff[3];
	PLL_PARAM_T pll[3] = {{0},{0},{0}};
1a003b34:	4668      	mov	r0, sp
1a003b36:	2100      	movs	r1, #0
1a003b38:	2260      	movs	r2, #96	; 0x60
1a003b3a:	f001 f825 	bl	1a004b88 <memset>

	/* Try direct mode */
	pll[0].ctrl |= (1 << 7);
1a003b3e:	2380      	movs	r3, #128	; 0x80
1a003b40:	9300      	str	r3, [sp, #0]
	pll[0].fin = ppll->fin;
1a003b42:	6963      	ldr	r3, [r4, #20]
1a003b44:	9305      	str	r3, [sp, #20]
	pll[0].srcin = ppll->srcin;
1a003b46:	7923      	ldrb	r3, [r4, #4]
1a003b48:	f88d 3004 	strb.w	r3, [sp, #4]
	pll_calc_divs(freq, &pll[0]);
1a003b4c:	4628      	mov	r0, r5
1a003b4e:	4669      	mov	r1, sp
1a003b50:	f7ff ff98 	bl	1a003a84 <pll_calc_divs>
	if (pll[0].fout == freq) {
1a003b54:	9b06      	ldr	r3, [sp, #24]
1a003b56:	42ab      	cmp	r3, r5
1a003b58:	d107      	bne.n	1a003b6a <pll_get_frac+0x3e>
		*ppll = pll[0];
1a003b5a:	466d      	mov	r5, sp
1a003b5c:	cd0f      	ldmia	r5!, {r0, r1, r2, r3}
1a003b5e:	c40f      	stmia	r4!, {r0, r1, r2, r3}
1a003b60:	e895 000f 	ldmia.w	r5, {r0, r1, r2, r3}
1a003b64:	e884 000f 	stmia.w	r4, {r0, r1, r2, r3}
		return ;
1a003b68:	e05e      	b.n	1a003c28 <pll_get_frac+0xfc>
/*****************************************************************************
 * Private functions
 ****************************************************************************/
__STATIC_INLINE uint32_t ABS(int val)
{
	if (val < 0)
1a003b6a:	1aeb      	subs	r3, r5, r3
1a003b6c:	d500      	bpl.n	1a003b70 <pll_get_frac+0x44>
		return -val;
1a003b6e:	425b      	negs	r3, r3
	pll_calc_divs(freq, &pll[0]);
	if (pll[0].fout == freq) {
		*ppll = pll[0];
		return ;
	}
	diff[0] = ABS(freq - pll[0].fout);
1a003b70:	461e      	mov	r6, r3

	/* Try non-Integer mode */
	pll[2].ctrl &= ~(1 << 6);			// need to set FBSEL to 0
1a003b72:	9b10      	ldr	r3, [sp, #64]	; 0x40
1a003b74:	f023 0340 	bic.w	r3, r3, #64	; 0x40
1a003b78:	9310      	str	r3, [sp, #64]	; 0x40
	pll[2].fin = ppll->fin;
1a003b7a:	6963      	ldr	r3, [r4, #20]
1a003b7c:	9315      	str	r3, [sp, #84]	; 0x54
	pll[2].srcin = ppll->srcin;
1a003b7e:	7923      	ldrb	r3, [r4, #4]
1a003b80:	f88d 3044 	strb.w	r3, [sp, #68]	; 0x44
	pll_calc_divs(freq, &pll[2]);
1a003b84:	4628      	mov	r0, r5
1a003b86:	a910      	add	r1, sp, #64	; 0x40
1a003b88:	f7ff ff7c 	bl	1a003a84 <pll_calc_divs>
	if (pll[2].fout == freq) {
1a003b8c:	9b16      	ldr	r3, [sp, #88]	; 0x58
1a003b8e:	42ab      	cmp	r3, r5
1a003b90:	d107      	bne.n	1a003ba2 <pll_get_frac+0x76>
		*ppll = pll[2];
1a003b92:	ad10      	add	r5, sp, #64	; 0x40
1a003b94:	cd0f      	ldmia	r5!, {r0, r1, r2, r3}
1a003b96:	c40f      	stmia	r4!, {r0, r1, r2, r3}
1a003b98:	e895 000f 	ldmia.w	r5, {r0, r1, r2, r3}
1a003b9c:	e884 000f 	stmia.w	r4, {r0, r1, r2, r3}
		return ;
1a003ba0:	e042      	b.n	1a003c28 <pll_get_frac+0xfc>
/*****************************************************************************
 * Private functions
 ****************************************************************************/
__STATIC_INLINE uint32_t ABS(int val)
{
	if (val < 0)
1a003ba2:	1aeb      	subs	r3, r5, r3
1a003ba4:	d500      	bpl.n	1a003ba8 <pll_get_frac+0x7c>
		return -val;
1a003ba6:	425b      	negs	r3, r3
	pll_calc_divs(freq, &pll[2]);
	if (pll[2].fout == freq) {
		*ppll = pll[2];
		return ;
	}
	diff[2] = ABS(freq - pll[2].fout);
1a003ba8:	461f      	mov	r7, r3
	
	if (freq <= 110000000) {
1a003baa:	4b20      	ldr	r3, [pc, #128]	; (1a003c2c <pll_get_frac+0x100>)
1a003bac:	429d      	cmp	r5, r3
1a003bae:	d812      	bhi.n	1a003bd6 <pll_get_frac+0xaa>
		/* Try integer mode */
		pll[1].ctrl = (1 << 6);
1a003bb0:	2340      	movs	r3, #64	; 0x40
1a003bb2:	9308      	str	r3, [sp, #32]
		pll[1].fin = ppll->fin;
1a003bb4:	6963      	ldr	r3, [r4, #20]
1a003bb6:	930d      	str	r3, [sp, #52]	; 0x34
		pll_calc_divs(freq, &pll[1]);
1a003bb8:	4628      	mov	r0, r5
1a003bba:	a908      	add	r1, sp, #32
1a003bbc:	f7ff ff62 	bl	1a003a84 <pll_calc_divs>
		if (pll[1].fout == freq) {
1a003bc0:	9b0e      	ldr	r3, [sp, #56]	; 0x38
1a003bc2:	42ab      	cmp	r3, r5
1a003bc4:	d107      	bne.n	1a003bd6 <pll_get_frac+0xaa>
			*ppll = pll[1];
1a003bc6:	ad08      	add	r5, sp, #32
1a003bc8:	cd0f      	ldmia	r5!, {r0, r1, r2, r3}
1a003bca:	c40f      	stmia	r4!, {r0, r1, r2, r3}
1a003bcc:	e895 000f 	ldmia.w	r5, {r0, r1, r2, r3}
1a003bd0:	e884 000f 	stmia.w	r4, {r0, r1, r2, r3}
			return ;
1a003bd4:	e028      	b.n	1a003c28 <pll_get_frac+0xfc>
		}
	}
	diff[1] = ABS(freq - pll[1].fout);
1a003bd6:	9b0e      	ldr	r3, [sp, #56]	; 0x38
/*****************************************************************************
 * Private functions
 ****************************************************************************/
__STATIC_INLINE uint32_t ABS(int val)
{
	if (val < 0)
1a003bd8:	1aed      	subs	r5, r5, r3
1a003bda:	d500      	bpl.n	1a003bde <pll_get_frac+0xb2>
		return -val;
1a003bdc:	426d      	negs	r5, r5
		}
	}
	diff[1] = ABS(freq - pll[1].fout);

	/* Find the min of 3 and return */
	if (diff[0] <= diff[1]) {
1a003bde:	42ae      	cmp	r6, r5
1a003be0:	dc11      	bgt.n	1a003c06 <pll_get_frac+0xda>
		if (diff[0] <= diff[2]) {
1a003be2:	42be      	cmp	r6, r7
1a003be4:	dc07      	bgt.n	1a003bf6 <pll_get_frac+0xca>
			*ppll = pll[0];
1a003be6:	466d      	mov	r5, sp
1a003be8:	cd0f      	ldmia	r5!, {r0, r1, r2, r3}
1a003bea:	c40f      	stmia	r4!, {r0, r1, r2, r3}
1a003bec:	e895 000f 	ldmia.w	r5, {r0, r1, r2, r3}
1a003bf0:	e884 000f 	stmia.w	r4, {r0, r1, r2, r3}
1a003bf4:	e018      	b.n	1a003c28 <pll_get_frac+0xfc>
		} else {
			*ppll = pll[2];
1a003bf6:	ad10      	add	r5, sp, #64	; 0x40
1a003bf8:	cd0f      	ldmia	r5!, {r0, r1, r2, r3}
1a003bfa:	c40f      	stmia	r4!, {r0, r1, r2, r3}
1a003bfc:	e895 000f 	ldmia.w	r5, {r0, r1, r2, r3}
1a003c00:	e884 000f 	stmia.w	r4, {r0, r1, r2, r3}
1a003c04:	e010      	b.n	1a003c28 <pll_get_frac+0xfc>
		}
	} else {
		if (diff[1] <= diff[2]) {
1a003c06:	42af      	cmp	r7, r5
1a003c08:	db07      	blt.n	1a003c1a <pll_get_frac+0xee>
			*ppll = pll[1];
1a003c0a:	ad08      	add	r5, sp, #32
1a003c0c:	cd0f      	ldmia	r5!, {r0, r1, r2, r3}
1a003c0e:	c40f      	stmia	r4!, {r0, r1, r2, r3}
1a003c10:	e895 000f 	ldmia.w	r5, {r0, r1, r2, r3}
1a003c14:	e884 000f 	stmia.w	r4, {r0, r1, r2, r3}
1a003c18:	e006      	b.n	1a003c28 <pll_get_frac+0xfc>
		} else {
			*ppll = pll[2];
1a003c1a:	ad10      	add	r5, sp, #64	; 0x40
1a003c1c:	cd0f      	ldmia	r5!, {r0, r1, r2, r3}
1a003c1e:	c40f      	stmia	r4!, {r0, r1, r2, r3}
1a003c20:	e895 000f 	ldmia.w	r5, {r0, r1, r2, r3}
1a003c24:	e884 000f 	stmia.w	r4, {r0, r1, r2, r3}
		}
	}
}
1a003c28:	b019      	add	sp, #100	; 0x64
1a003c2a:	bdf0      	pop	{r4, r5, r6, r7, pc}
1a003c2c:	068e7780 	.word	0x068e7780

1a003c30 <Chip_Clock_FindBaseClock>:
	return Chip_Clock_GetClockInputHz(input) / (div + 1);
}

/* Finds the base clock for the peripheral clock */
static CHIP_CGU_BASE_CLK_T Chip_Clock_FindBaseClock(CHIP_CCU_CLK_T clk)
{
1a003c30:	b430      	push	{r4, r5}
	CHIP_CGU_BASE_CLK_T baseclk = CLK_BASE_NONE;
	int i = 0;
1a003c32:	2300      	movs	r3, #0
}

/* Finds the base clock for the peripheral clock */
static CHIP_CGU_BASE_CLK_T Chip_Clock_FindBaseClock(CHIP_CCU_CLK_T clk)
{
	CHIP_CGU_BASE_CLK_T baseclk = CLK_BASE_NONE;
1a003c34:	211c      	movs	r1, #28
	int i = 0;

	while ((baseclk == CLK_BASE_NONE) && (periph_to_base[i].clkbase != baseclk)) {
1a003c36:	e010      	b.n	1a003c5a <Chip_Clock_FindBaseClock+0x2a>
		if ((clk >= periph_to_base[i].clkstart) && (clk <= periph_to_base[i].clkend)) {
1a003c38:	eb03 0243 	add.w	r2, r3, r3, lsl #1
1a003c3c:	0052      	lsls	r2, r2, #1
1a003c3e:	4d0d      	ldr	r5, [pc, #52]	; (1a003c74 <Chip_Clock_FindBaseClock+0x44>)
1a003c40:	5aaa      	ldrh	r2, [r5, r2]
1a003c42:	4282      	cmp	r2, r0
1a003c44:	d806      	bhi.n	1a003c54 <Chip_Clock_FindBaseClock+0x24>
1a003c46:	eb03 0243 	add.w	r2, r3, r3, lsl #1
1a003c4a:	0052      	lsls	r2, r2, #1
1a003c4c:	442a      	add	r2, r5
1a003c4e:	8852      	ldrh	r2, [r2, #2]
1a003c50:	4282      	cmp	r2, r0
1a003c52:	d201      	bcs.n	1a003c58 <Chip_Clock_FindBaseClock+0x28>
			baseclk = periph_to_base[i].clkbase;
		}
		else {
			i++;
1a003c54:	3301      	adds	r3, #1
1a003c56:	e000      	b.n	1a003c5a <Chip_Clock_FindBaseClock+0x2a>
	CHIP_CGU_BASE_CLK_T baseclk = CLK_BASE_NONE;
	int i = 0;

	while ((baseclk == CLK_BASE_NONE) && (periph_to_base[i].clkbase != baseclk)) {
		if ((clk >= periph_to_base[i].clkstart) && (clk <= periph_to_base[i].clkend)) {
			baseclk = periph_to_base[i].clkbase;
1a003c58:	4621      	mov	r1, r4
static CHIP_CGU_BASE_CLK_T Chip_Clock_FindBaseClock(CHIP_CCU_CLK_T clk)
{
	CHIP_CGU_BASE_CLK_T baseclk = CLK_BASE_NONE;
	int i = 0;

	while ((baseclk == CLK_BASE_NONE) && (periph_to_base[i].clkbase != baseclk)) {
1a003c5a:	291c      	cmp	r1, #28
1a003c5c:	d107      	bne.n	1a003c6e <Chip_Clock_FindBaseClock+0x3e>
1a003c5e:	eb03 0243 	add.w	r2, r3, r3, lsl #1
1a003c62:	0052      	lsls	r2, r2, #1
1a003c64:	4c03      	ldr	r4, [pc, #12]	; (1a003c74 <Chip_Clock_FindBaseClock+0x44>)
1a003c66:	4422      	add	r2, r4
1a003c68:	7914      	ldrb	r4, [r2, #4]
1a003c6a:	428c      	cmp	r4, r1
1a003c6c:	d1e4      	bne.n	1a003c38 <Chip_Clock_FindBaseClock+0x8>
			i++;
		}
	}

	return baseclk;
}
1a003c6e:	4608      	mov	r0, r1
1a003c70:	bc30      	pop	{r4, r5}
1a003c72:	4770      	bx	lr
1a003c74:	1a0054a0 	.word	0x1a0054a0

1a003c78 <Chip_Clock_EnableCrystal>:
 * Public functions
 ****************************************************************************/

/* Enables the crystal oscillator */
void Chip_Clock_EnableCrystal(void)
{
1a003c78:	b082      	sub	sp, #8
	volatile uint32_t delay = 1000;
1a003c7a:	f44f 737a 	mov.w	r3, #1000	; 0x3e8
1a003c7e:	9301      	str	r3, [sp, #4]

	uint32_t OldCrystalConfig = LPC_CGU->XTAL_OSC_CTRL;
1a003c80:	4a0d      	ldr	r2, [pc, #52]	; (1a003cb8 <Chip_Clock_EnableCrystal+0x40>)
1a003c82:	6993      	ldr	r3, [r2, #24]

	/* Clear bypass mode */
	OldCrystalConfig &= (~2);
1a003c84:	f023 0102 	bic.w	r1, r3, #2
	if (OldCrystalConfig != LPC_CGU->XTAL_OSC_CTRL) {
1a003c88:	6992      	ldr	r2, [r2, #24]
1a003c8a:	428a      	cmp	r2, r1
1a003c8c:	d001      	beq.n	1a003c92 <Chip_Clock_EnableCrystal+0x1a>
		LPC_CGU->XTAL_OSC_CTRL = OldCrystalConfig;
1a003c8e:	4a0a      	ldr	r2, [pc, #40]	; (1a003cb8 <Chip_Clock_EnableCrystal+0x40>)
1a003c90:	6191      	str	r1, [r2, #24]
	}

	/* Enable crystal oscillator */
	OldCrystalConfig &= (~1);
1a003c92:	f023 0303 	bic.w	r3, r3, #3
	if (OscRateIn >= 20000000) {
1a003c96:	4a09      	ldr	r2, [pc, #36]	; (1a003cbc <Chip_Clock_EnableCrystal+0x44>)
1a003c98:	6811      	ldr	r1, [r2, #0]
1a003c9a:	4a09      	ldr	r2, [pc, #36]	; (1a003cc0 <Chip_Clock_EnableCrystal+0x48>)
1a003c9c:	4291      	cmp	r1, r2
1a003c9e:	d901      	bls.n	1a003ca4 <Chip_Clock_EnableCrystal+0x2c>
		OldCrystalConfig |= 4;	/* Set high frequency mode */
1a003ca0:	f043 0304 	orr.w	r3, r3, #4

	}
	LPC_CGU->XTAL_OSC_CTRL = OldCrystalConfig;
1a003ca4:	4a04      	ldr	r2, [pc, #16]	; (1a003cb8 <Chip_Clock_EnableCrystal+0x40>)
1a003ca6:	6193      	str	r3, [r2, #24]

	/* Delay for 250uSec */
	while(delay--) {}
1a003ca8:	9b01      	ldr	r3, [sp, #4]
1a003caa:	1e5a      	subs	r2, r3, #1
1a003cac:	9201      	str	r2, [sp, #4]
1a003cae:	2b00      	cmp	r3, #0
1a003cb0:	d1fa      	bne.n	1a003ca8 <Chip_Clock_EnableCrystal+0x30>
}
1a003cb2:	b002      	add	sp, #8
1a003cb4:	4770      	bx	lr
1a003cb6:	bf00      	nop
1a003cb8:	40050000 	.word	0x40050000
1a003cbc:	1a0053c4 	.word	0x1a0053c4
1a003cc0:	01312cff 	.word	0x01312cff

1a003cc4 <Chip_Clock_GetDividerSource>:
}

/* Gets a CGU clock divider source */
CHIP_CGU_CLKIN_T Chip_Clock_GetDividerSource(CHIP_CGU_IDIV_T Divider)
{
	uint32_t reg = LPC_CGU->IDIV_CTRL[Divider];
1a003cc4:	3012      	adds	r0, #18
1a003cc6:	4b05      	ldr	r3, [pc, #20]	; (1a003cdc <Chip_Clock_GetDividerSource+0x18>)
1a003cc8:	f853 0020 	ldr.w	r0, [r3, r0, lsl #2]

	if (reg & 1) {	/* divider is powered down */
1a003ccc:	f010 0f01 	tst.w	r0, #1
1a003cd0:	d102      	bne.n	1a003cd8 <Chip_Clock_GetDividerSource+0x14>
		return CLKINPUT_PD;
	}

	return (CHIP_CGU_CLKIN_T) ((reg >> 24) & 0x1F);
1a003cd2:	f3c0 6004 	ubfx	r0, r0, #24, #5
1a003cd6:	4770      	bx	lr
CHIP_CGU_CLKIN_T Chip_Clock_GetDividerSource(CHIP_CGU_IDIV_T Divider)
{
	uint32_t reg = LPC_CGU->IDIV_CTRL[Divider];

	if (reg & 1) {	/* divider is powered down */
		return CLKINPUT_PD;
1a003cd8:	2011      	movs	r0, #17
	}

	return (CHIP_CGU_CLKIN_T) ((reg >> 24) & 0x1F);
}
1a003cda:	4770      	bx	lr
1a003cdc:	40050000 	.word	0x40050000

1a003ce0 <Chip_Clock_GetDividerDivisor>:

/* Gets a CGU clock divider divisor */
uint32_t Chip_Clock_GetDividerDivisor(CHIP_CGU_IDIV_T Divider)
{
	return (CHIP_CGU_CLKIN_T) ((LPC_CGU->IDIV_CTRL[Divider] >> 2) & CHIP_CGU_IDIV_MASK(Divider));
1a003ce0:	f100 0212 	add.w	r2, r0, #18
1a003ce4:	4b03      	ldr	r3, [pc, #12]	; (1a003cf4 <Chip_Clock_GetDividerDivisor+0x14>)
1a003ce6:	f853 2022 	ldr.w	r2, [r3, r2, lsl #2]
1a003cea:	4b03      	ldr	r3, [pc, #12]	; (1a003cf8 <Chip_Clock_GetDividerDivisor+0x18>)
1a003cec:	5c18      	ldrb	r0, [r3, r0]
}
1a003cee:	ea00 0092 	and.w	r0, r0, r2, lsr #2
1a003cf2:	4770      	bx	lr
1a003cf4:	40050000 	.word	0x40050000
1a003cf8:	1a005498 	.word	0x1a005498

1a003cfc <Chip_Clock_GetClockInputHz>:

/* Returns the frequency of the specified input clock source */
uint32_t Chip_Clock_GetClockInputHz(CHIP_CGU_CLKIN_T input)
{
1a003cfc:	b508      	push	{r3, lr}
	uint32_t rate = 0;

	switch (input) {
1a003cfe:	2810      	cmp	r0, #16
1a003d00:	d80a      	bhi.n	1a003d18 <Chip_Clock_GetClockInputHz+0x1c>
1a003d02:	e8df f000 	tbb	[pc, r0]
1a003d06:	0b42      	.short	0x0b42
1a003d08:	091f160d 	.word	0x091f160d
1a003d0c:	2b282522 	.word	0x2b282522
1a003d10:	322e0909 	.word	0x322e0909
1a003d14:	3a36      	.short	0x3a36
1a003d16:	3e          	.byte	0x3e
1a003d17:	00          	.byte	0x00
}

/* Returns the frequency of the specified input clock source */
uint32_t Chip_Clock_GetClockInputHz(CHIP_CGU_CLKIN_T input)
{
	uint32_t rate = 0;
1a003d18:	2000      	movs	r0, #0
1a003d1a:	bd08      	pop	{r3, pc}
	case CLKIN_32K:
		rate = CRYSTAL_32K_FREQ_IN;
		break;

	case CLKIN_IRC:
		rate = CGU_IRC_FREQ;
1a003d1c:	481e      	ldr	r0, [pc, #120]	; (1a003d98 <Chip_Clock_GetClockInputHz+0x9c>)
		break;
1a003d1e:	bd08      	pop	{r3, pc}

	case CLKIN_ENET_RX:
		if ((LPC_CREG->CREG6 & 0x07) != 0x4) {
1a003d20:	4b1e      	ldr	r3, [pc, #120]	; (1a003d9c <Chip_Clock_GetClockInputHz+0xa0>)
1a003d22:	f8d3 312c 	ldr.w	r3, [r3, #300]	; 0x12c
1a003d26:	f003 0307 	and.w	r3, r3, #7
1a003d2a:	2b04      	cmp	r3, #4
1a003d2c:	d130      	bne.n	1a003d90 <Chip_Clock_GetClockInputHz+0x94>
}

/* Returns the frequency of the specified input clock source */
uint32_t Chip_Clock_GetClockInputHz(CHIP_CGU_CLKIN_T input)
{
	uint32_t rate = 0;
1a003d2e:	2000      	movs	r0, #0
1a003d30:	bd08      	pop	{r3, pc}
			rate = 25000000;
		}
		break;

	case CLKIN_ENET_TX:
		if ((LPC_CREG->CREG6 & 0x07) != 0x4) {
1a003d32:	4b1a      	ldr	r3, [pc, #104]	; (1a003d9c <Chip_Clock_GetClockInputHz+0xa0>)
1a003d34:	f8d3 312c 	ldr.w	r3, [r3, #300]	; 0x12c
1a003d38:	f003 0307 	and.w	r3, r3, #7
1a003d3c:	2b04      	cmp	r3, #4
1a003d3e:	d029      	beq.n	1a003d94 <Chip_Clock_GetClockInputHz+0x98>
			rate = 25000000; /* MII uses 25 MHz */
1a003d40:	4817      	ldr	r0, [pc, #92]	; (1a003da0 <Chip_Clock_GetClockInputHz+0xa4>)
1a003d42:	bd08      	pop	{r3, pc}
			rate = 50000000; /* RMII uses 50 MHz */
		}
		break;

	case CLKIN_CLKIN:
		rate = ExtRateIn;
1a003d44:	4b17      	ldr	r3, [pc, #92]	; (1a003da4 <Chip_Clock_GetClockInputHz+0xa8>)
1a003d46:	6818      	ldr	r0, [r3, #0]
		break;
1a003d48:	bd08      	pop	{r3, pc}

	case CLKIN_CRYSTAL:
		rate = OscRateIn;
1a003d4a:	4b17      	ldr	r3, [pc, #92]	; (1a003da8 <Chip_Clock_GetClockInputHz+0xac>)
1a003d4c:	6818      	ldr	r0, [r3, #0]
		break;
1a003d4e:	bd08      	pop	{r3, pc}

	case CLKIN_USBPLL:
		rate = audio_usb_pll_freq[CGU_USB_PLL];
1a003d50:	4b16      	ldr	r3, [pc, #88]	; (1a003dac <Chip_Clock_GetClockInputHz+0xb0>)
1a003d52:	6818      	ldr	r0, [r3, #0]
		break;
1a003d54:	bd08      	pop	{r3, pc}

	case CLKIN_AUDIOPLL:
		rate = audio_usb_pll_freq[CGU_AUDIO_PLL];
1a003d56:	4b15      	ldr	r3, [pc, #84]	; (1a003dac <Chip_Clock_GetClockInputHz+0xb0>)
1a003d58:	6858      	ldr	r0, [r3, #4]
		break;
1a003d5a:	bd08      	pop	{r3, pc}

	case CLKIN_MAINPLL:
		rate = Chip_Clock_GetMainPLLHz();
1a003d5c:	f000 f86a 	bl	1a003e34 <Chip_Clock_GetMainPLLHz>
		break;
1a003d60:	bd08      	pop	{r3, pc}

	case CLKIN_IDIVA:
		rate = Chip_Clock_GetDivRate(input, CLK_IDIV_A);
1a003d62:	2100      	movs	r1, #0
1a003d64:	f000 f89a 	bl	1a003e9c <Chip_Clock_GetDivRate>
		break;
1a003d68:	bd08      	pop	{r3, pc}

	case CLKIN_IDIVB:
		rate = Chip_Clock_GetDivRate(input, CLK_IDIV_B);
1a003d6a:	2101      	movs	r1, #1
1a003d6c:	f000 f896 	bl	1a003e9c <Chip_Clock_GetDivRate>
		break;
1a003d70:	bd08      	pop	{r3, pc}

	case CLKIN_IDIVC:
		rate = Chip_Clock_GetDivRate(input, CLK_IDIV_C);
1a003d72:	2102      	movs	r1, #2
1a003d74:	f000 f892 	bl	1a003e9c <Chip_Clock_GetDivRate>
		break;
1a003d78:	bd08      	pop	{r3, pc}

	case CLKIN_IDIVD:
		rate = Chip_Clock_GetDivRate(input, CLK_IDIV_D);
1a003d7a:	2103      	movs	r1, #3
1a003d7c:	f000 f88e 	bl	1a003e9c <Chip_Clock_GetDivRate>
		break;
1a003d80:	bd08      	pop	{r3, pc}

	case CLKIN_IDIVE:
		rate = Chip_Clock_GetDivRate(input, CLK_IDIV_E);
1a003d82:	2104      	movs	r1, #4
1a003d84:	f000 f88a 	bl	1a003e9c <Chip_Clock_GetDivRate>
		break;
1a003d88:	bd08      	pop	{r3, pc}
{
	uint32_t rate = 0;

	switch (input) {
	case CLKIN_32K:
		rate = CRYSTAL_32K_FREQ_IN;
1a003d8a:	f44f 4000 	mov.w	r0, #32768	; 0x8000
1a003d8e:	bd08      	pop	{r3, pc}
		break;

	case CLKIN_ENET_RX:
		if ((LPC_CREG->CREG6 & 0x07) != 0x4) {
			/* MII mode requires 25MHz clock */
			rate = 25000000;
1a003d90:	4803      	ldr	r0, [pc, #12]	; (1a003da0 <Chip_Clock_GetClockInputHz+0xa4>)
1a003d92:	bd08      	pop	{r3, pc}

	case CLKIN_ENET_TX:
		if ((LPC_CREG->CREG6 & 0x07) != 0x4) {
			rate = 25000000; /* MII uses 25 MHz */
		} else {
			rate = 50000000; /* RMII uses 50 MHz */
1a003d94:	4806      	ldr	r0, [pc, #24]	; (1a003db0 <Chip_Clock_GetClockInputHz+0xb4>)
	default:
		break;
	}

	return rate;
}
1a003d96:	bd08      	pop	{r3, pc}
1a003d98:	00b71b00 	.word	0x00b71b00
1a003d9c:	40043000 	.word	0x40043000
1a003da0:	017d7840 	.word	0x017d7840
1a003da4:	1a0053c8 	.word	0x1a0053c8
1a003da8:	1a0053c4 	.word	0x1a0053c4
1a003dac:	1000056c 	.word	0x1000056c
1a003db0:	02faf080 	.word	0x02faf080

1a003db4 <Chip_Clock_CalcMainPLLValue>:
	while(delay--) {}
}

/* Calculate the Main PLL div values */
int Chip_Clock_CalcMainPLLValue(uint32_t freq, PLL_PARAM_T *ppll)
{
1a003db4:	b538      	push	{r3, r4, r5, lr}
1a003db6:	4605      	mov	r5, r0
1a003db8:	460c      	mov	r4, r1
	ppll->fin = Chip_Clock_GetClockInputHz(ppll->srcin);
1a003dba:	7908      	ldrb	r0, [r1, #4]
1a003dbc:	f7ff ff9e 	bl	1a003cfc <Chip_Clock_GetClockInputHz>
1a003dc0:	6160      	str	r0, [r4, #20]

	/* Do sanity check on frequency */
	if (freq > MAX_CLOCK_FREQ || freq < (PLL_MIN_CCO_FREQ / 16) || !ppll->fin) {
1a003dc2:	4b19      	ldr	r3, [pc, #100]	; (1a003e28 <Chip_Clock_CalcMainPLLValue+0x74>)
1a003dc4:	442b      	add	r3, r5
1a003dc6:	4a19      	ldr	r2, [pc, #100]	; (1a003e2c <Chip_Clock_CalcMainPLLValue+0x78>)
1a003dc8:	4293      	cmp	r3, r2
1a003dca:	d821      	bhi.n	1a003e10 <Chip_Clock_CalcMainPLLValue+0x5c>
1a003dcc:	b318      	cbz	r0, 1a003e16 <Chip_Clock_CalcMainPLLValue+0x62>
		return -1;
	}

	ppll->ctrl = 1 << 7; /* Enable direct mode [If possible] */
1a003dce:	2380      	movs	r3, #128	; 0x80
1a003dd0:	6023      	str	r3, [r4, #0]
	ppll->nsel = 0;
1a003dd2:	2300      	movs	r3, #0
1a003dd4:	60a3      	str	r3, [r4, #8]
	ppll->psel = 0;
1a003dd6:	60e3      	str	r3, [r4, #12]
	ppll->msel = freq / ppll->fin;
1a003dd8:	fbb5 f3f0 	udiv	r3, r5, r0
1a003ddc:	6123      	str	r3, [r4, #16]

	if (freq < PLL_MIN_CCO_FREQ || ppll->msel * ppll->fin != freq) {
1a003dde:	4a14      	ldr	r2, [pc, #80]	; (1a003e30 <Chip_Clock_CalcMainPLLValue+0x7c>)
1a003de0:	4295      	cmp	r5, r2
1a003de2:	d903      	bls.n	1a003dec <Chip_Clock_CalcMainPLLValue+0x38>
1a003de4:	fb03 f000 	mul.w	r0, r3, r0
1a003de8:	42a8      	cmp	r0, r5
1a003dea:	d007      	beq.n	1a003dfc <Chip_Clock_CalcMainPLLValue+0x48>
		pll_get_frac(freq, ppll);
1a003dec:	4628      	mov	r0, r5
1a003dee:	4621      	mov	r1, r4
1a003df0:	f7ff fe9c 	bl	1a003b2c <pll_get_frac>
		if (!ppll->nsel) {
1a003df4:	68a3      	ldr	r3, [r4, #8]
1a003df6:	b18b      	cbz	r3, 1a003e1c <Chip_Clock_CalcMainPLLValue+0x68>
			return -1;
		}
		ppll->nsel --;
1a003df8:	3b01      	subs	r3, #1
1a003dfa:	60a3      	str	r3, [r4, #8]
	}

	if (ppll->msel == 0) {
1a003dfc:	6923      	ldr	r3, [r4, #16]
1a003dfe:	b183      	cbz	r3, 1a003e22 <Chip_Clock_CalcMainPLLValue+0x6e>
		return - 1;
	}

	if (ppll->psel) {
1a003e00:	68e2      	ldr	r2, [r4, #12]
1a003e02:	b10a      	cbz	r2, 1a003e08 <Chip_Clock_CalcMainPLLValue+0x54>
		ppll->psel --;
1a003e04:	3a01      	subs	r2, #1
1a003e06:	60e2      	str	r2, [r4, #12]
	}

	ppll->msel --;
1a003e08:	3b01      	subs	r3, #1
1a003e0a:	6123      	str	r3, [r4, #16]

	return 0;
1a003e0c:	2000      	movs	r0, #0
1a003e0e:	bd38      	pop	{r3, r4, r5, pc}
{
	ppll->fin = Chip_Clock_GetClockInputHz(ppll->srcin);

	/* Do sanity check on frequency */
	if (freq > MAX_CLOCK_FREQ || freq < (PLL_MIN_CCO_FREQ / 16) || !ppll->fin) {
		return -1;
1a003e10:	f04f 30ff 	mov.w	r0, #4294967295	; 0xffffffff
1a003e14:	bd38      	pop	{r3, r4, r5, pc}
1a003e16:	f04f 30ff 	mov.w	r0, #4294967295	; 0xffffffff
1a003e1a:	bd38      	pop	{r3, r4, r5, pc}
	ppll->msel = freq / ppll->fin;

	if (freq < PLL_MIN_CCO_FREQ || ppll->msel * ppll->fin != freq) {
		pll_get_frac(freq, ppll);
		if (!ppll->nsel) {
			return -1;
1a003e1c:	f04f 30ff 	mov.w	r0, #4294967295	; 0xffffffff
1a003e20:	bd38      	pop	{r3, r4, r5, pc}
		}
		ppll->nsel --;
	}

	if (ppll->msel == 0) {
		return - 1;
1a003e22:	f04f 30ff 	mov.w	r0, #4294967295	; 0xffffffff
	}

	ppll->msel --;

	return 0;
}
1a003e26:	bd38      	pop	{r3, r4, r5, pc}
1a003e28:	ff6b3a10 	.word	0xff6b3a10
1a003e2c:	0b940510 	.word	0x0b940510
1a003e30:	094c5eff 	.word	0x094c5eff

1a003e34 <Chip_Clock_GetMainPLLHz>:
	return freq;
}

/* Returns the frequency of the main PLL */
uint32_t Chip_Clock_GetMainPLLHz(void)
{
1a003e34:	b570      	push	{r4, r5, r6, lr}
1a003e36:	b082      	sub	sp, #8
	uint32_t PLLReg = LPC_CGU->PLL1_CTRL;
1a003e38:	4d16      	ldr	r5, [pc, #88]	; (1a003e94 <Chip_Clock_GetMainPLLHz+0x60>)
1a003e3a:	6c6c      	ldr	r4, [r5, #68]	; 0x44
	uint32_t freq = Chip_Clock_GetClockInputHz((CHIP_CGU_CLKIN_T) ((PLLReg >> 24) & 0xF));
1a003e3c:	f3c4 6003 	ubfx	r0, r4, #24, #4
1a003e40:	f7ff ff5c 	bl	1a003cfc <Chip_Clock_GetClockInputHz>
1a003e44:	4606      	mov	r6, r0
	uint32_t msel, nsel, psel, direct, fbsel;
	uint32_t m, n, p;
	const uint8_t ptab[] = {1, 2, 4, 8};
1a003e46:	4b14      	ldr	r3, [pc, #80]	; (1a003e98 <Chip_Clock_GetMainPLLHz+0x64>)
1a003e48:	6818      	ldr	r0, [r3, #0]
1a003e4a:	9001      	str	r0, [sp, #4]

	/* No lock? */
	if (!(LPC_CGU->PLL1_STAT & 1)) {
1a003e4c:	6c28      	ldr	r0, [r5, #64]	; 0x40
1a003e4e:	f010 0001 	ands.w	r0, r0, #1
1a003e52:	d01d      	beq.n	1a003e90 <Chip_Clock_GetMainPLLHz+0x5c>
		return 0;
	}

	msel = (PLLReg >> 16) & 0xFF;
1a003e54:	f3c4 4007 	ubfx	r0, r4, #16, #8
	nsel = (PLLReg >> 12) & 0x3;
1a003e58:	f3c4 3201 	ubfx	r2, r4, #12, #2
	psel = (PLLReg >> 8) & 0x3;
1a003e5c:	f3c4 2101 	ubfx	r1, r4, #8, #2
	direct = (PLLReg >> 7) & 0x1;
	fbsel = (PLLReg >> 6) & 0x1;
1a003e60:	f3c4 1580 	ubfx	r5, r4, #6, #1

	m = msel + 1;
1a003e64:	1c43      	adds	r3, r0, #1
	n = nsel + 1;
1a003e66:	3201      	adds	r2, #1
	p = ptab[psel];
1a003e68:	a802      	add	r0, sp, #8
1a003e6a:	4401      	add	r1, r0
1a003e6c:	f811 0c04 	ldrb.w	r0, [r1, #-4]

	if (direct || fbsel) {
1a003e70:	f014 0f80 	tst.w	r4, #128	; 0x80
1a003e74:	d100      	bne.n	1a003e78 <Chip_Clock_GetMainPLLHz+0x44>
1a003e76:	b125      	cbz	r5, 1a003e82 <Chip_Clock_GetMainPLLHz+0x4e>
		return m * (freq / n);
1a003e78:	fbb6 f0f2 	udiv	r0, r6, r2
1a003e7c:	fb03 f000 	mul.w	r0, r3, r0
1a003e80:	e006      	b.n	1a003e90 <Chip_Clock_GetMainPLLHz+0x5c>
	}

	return (m / (2 * p)) * (freq / n);
1a003e82:	0040      	lsls	r0, r0, #1
1a003e84:	fbb3 f3f0 	udiv	r3, r3, r0
1a003e88:	fbb6 f0f2 	udiv	r0, r6, r2
1a003e8c:	fb00 f003 	mul.w	r0, r0, r3
}
1a003e90:	b002      	add	sp, #8
1a003e92:	bd70      	pop	{r4, r5, r6, pc}
1a003e94:	40050000 	.word	0x40050000
1a003e98:	1a005494 	.word	0x1a005494

1a003e9c <Chip_Clock_GetDivRate>:
	return TestHz;
}

/* Returns clock rate out of a divider */
static uint32_t Chip_Clock_GetDivRate(CHIP_CGU_CLKIN_T clock, CHIP_CGU_IDIV_T divider)
{
1a003e9c:	b538      	push	{r3, r4, r5, lr}
1a003e9e:	460c      	mov	r4, r1
	CHIP_CGU_CLKIN_T input;
	uint32_t div;

	input = Chip_Clock_GetDividerSource(divider);
1a003ea0:	4608      	mov	r0, r1
1a003ea2:	f7ff ff0f 	bl	1a003cc4 <Chip_Clock_GetDividerSource>
1a003ea6:	4605      	mov	r5, r0
	div = Chip_Clock_GetDividerDivisor(divider);
1a003ea8:	4620      	mov	r0, r4
1a003eaa:	f7ff ff19 	bl	1a003ce0 <Chip_Clock_GetDividerDivisor>
1a003eae:	4604      	mov	r4, r0
	return Chip_Clock_GetClockInputHz(input) / (div + 1);
1a003eb0:	4628      	mov	r0, r5
1a003eb2:	f7ff ff23 	bl	1a003cfc <Chip_Clock_GetClockInputHz>
1a003eb6:	3401      	adds	r4, #1
}
1a003eb8:	fbb0 f0f4 	udiv	r0, r0, r4
1a003ebc:	bd38      	pop	{r3, r4, r5, pc}
1a003ebe:	bf00      	nop

1a003ec0 <Chip_Clock_SetBaseClock>:
	return Chip_Clock_GetClockInputHz(Chip_Clock_GetBaseClock(clock));
}

/* Sets a CGU Base Clock clock source */
void Chip_Clock_SetBaseClock(CHIP_CGU_BASE_CLK_T BaseClock, CHIP_CGU_CLKIN_T Input, bool autoblocken, bool powerdn)
{
1a003ec0:	b430      	push	{r4, r5}
	uint32_t reg = LPC_CGU->BASE_CLK[BaseClock];
1a003ec2:	0085      	lsls	r5, r0, #2
1a003ec4:	4c0d      	ldr	r4, [pc, #52]	; (1a003efc <Chip_Clock_SetBaseClock+0x3c>)
1a003ec6:	5965      	ldr	r5, [r4, r5]

	if (BaseClock < CLK_BASE_NONE) {
1a003ec8:	281b      	cmp	r0, #27
1a003eca:	d80f      	bhi.n	1a003eec <Chip_Clock_SetBaseClock+0x2c>
		if (Input != CLKINPUT_PD) {
1a003ecc:	2911      	cmp	r1, #17
1a003ece:	d012      	beq.n	1a003ef6 <Chip_Clock_SetBaseClock+0x36>
			/* Mask off fields we plan to update */
			reg &= ~((0x1F << 24) | 1 | (1 << 11));
1a003ed0:	4c0b      	ldr	r4, [pc, #44]	; (1a003f00 <Chip_Clock_SetBaseClock+0x40>)
1a003ed2:	402c      	ands	r4, r5

			if (autoblocken) {
1a003ed4:	b10a      	cbz	r2, 1a003eda <Chip_Clock_SetBaseClock+0x1a>
				reg |= (1 << 11);
1a003ed6:	f444 6400 	orr.w	r4, r4, #2048	; 0x800
			}
			if (powerdn) {
1a003eda:	b10b      	cbz	r3, 1a003ee0 <Chip_Clock_SetBaseClock+0x20>
				reg |= (1 << 0);
1a003edc:	f044 0401 	orr.w	r4, r4, #1
			}

			/* Set clock source */
			reg |= (Input << 24);
1a003ee0:	ea44 6401 	orr.w	r4, r4, r1, lsl #24

			LPC_CGU->BASE_CLK[BaseClock] = reg;
1a003ee4:	0080      	lsls	r0, r0, #2
1a003ee6:	4b05      	ldr	r3, [pc, #20]	; (1a003efc <Chip_Clock_SetBaseClock+0x3c>)
1a003ee8:	501c      	str	r4, [r3, r0]
1a003eea:	e004      	b.n	1a003ef6 <Chip_Clock_SetBaseClock+0x36>
		}
	}
	else {
		LPC_CGU->BASE_CLK[BaseClock] = reg | 1;	/* Power down this base clock */
1a003eec:	f045 0501 	orr.w	r5, r5, #1
1a003ef0:	0080      	lsls	r0, r0, #2
1a003ef2:	4b02      	ldr	r3, [pc, #8]	; (1a003efc <Chip_Clock_SetBaseClock+0x3c>)
1a003ef4:	501d      	str	r5, [r3, r0]
	}
}
1a003ef6:	bc30      	pop	{r4, r5}
1a003ef8:	4770      	bx	lr
1a003efa:	bf00      	nop
1a003efc:	4005005c 	.word	0x4005005c
1a003f00:	e0fff7fe 	.word	0xe0fff7fe

1a003f04 <Chip_Clock_GetBaseClock>:
/* Gets a CGU Base Clock clock source */
CHIP_CGU_CLKIN_T Chip_Clock_GetBaseClock(CHIP_CGU_BASE_CLK_T BaseClock)
{
	uint32_t reg;

	if (BaseClock >= CLK_BASE_NONE) {
1a003f04:	281b      	cmp	r0, #27
1a003f06:	d808      	bhi.n	1a003f1a <Chip_Clock_GetBaseClock+0x16>
		return CLKINPUT_PD;
	}

	reg = LPC_CGU->BASE_CLK[BaseClock];
1a003f08:	0080      	lsls	r0, r0, #2
1a003f0a:	4b06      	ldr	r3, [pc, #24]	; (1a003f24 <Chip_Clock_GetBaseClock+0x20>)
1a003f0c:	5818      	ldr	r0, [r3, r0]

	/* base clock is powered down? */
	if (reg & 1) {
1a003f0e:	f010 0f01 	tst.w	r0, #1
1a003f12:	d104      	bne.n	1a003f1e <Chip_Clock_GetBaseClock+0x1a>
		return CLKINPUT_PD;
	}

	return (CHIP_CGU_CLKIN_T) ((reg >> 24) & 0x1F);
1a003f14:	f3c0 6004 	ubfx	r0, r0, #24, #5
1a003f18:	4770      	bx	lr
CHIP_CGU_CLKIN_T Chip_Clock_GetBaseClock(CHIP_CGU_BASE_CLK_T BaseClock)
{
	uint32_t reg;

	if (BaseClock >= CLK_BASE_NONE) {
		return CLKINPUT_PD;
1a003f1a:	2011      	movs	r0, #17
1a003f1c:	4770      	bx	lr

	reg = LPC_CGU->BASE_CLK[BaseClock];

	/* base clock is powered down? */
	if (reg & 1) {
		return CLKINPUT_PD;
1a003f1e:	2011      	movs	r0, #17
	}

	return (CHIP_CGU_CLKIN_T) ((reg >> 24) & 0x1F);
}
1a003f20:	4770      	bx	lr
1a003f22:	bf00      	nop
1a003f24:	4005005c 	.word	0x4005005c

1a003f28 <Chip_Clock_GetBaseClocktHz>:
	return rate;
}

/* Returns the frequency of the specified base clock source */
uint32_t Chip_Clock_GetBaseClocktHz(CHIP_CGU_BASE_CLK_T clock)
{
1a003f28:	b508      	push	{r3, lr}
	return Chip_Clock_GetClockInputHz(Chip_Clock_GetBaseClock(clock));
1a003f2a:	f7ff ffeb 	bl	1a003f04 <Chip_Clock_GetBaseClock>
1a003f2e:	f7ff fee5 	bl	1a003cfc <Chip_Clock_GetClockInputHz>
}
1a003f32:	bd08      	pop	{r3, pc}

1a003f34 <Chip_Clock_EnableOpts>:
/* Enables a peripheral clock and sets clock states */
void Chip_Clock_EnableOpts(CHIP_CCU_CLK_T clk, bool autoen, bool wakeupen, int div)
{
	uint32_t reg = 1;

	if (autoen) {
1a003f34:	b909      	cbnz	r1, 1a003f3a <Chip_Clock_EnableOpts+0x6>
}

/* Enables a peripheral clock and sets clock states */
void Chip_Clock_EnableOpts(CHIP_CCU_CLK_T clk, bool autoen, bool wakeupen, int div)
{
	uint32_t reg = 1;
1a003f36:	2101      	movs	r1, #1
1a003f38:	e000      	b.n	1a003f3c <Chip_Clock_EnableOpts+0x8>

	if (autoen) {
		reg |= (1 << 1);
1a003f3a:	2103      	movs	r1, #3
	}
	if (wakeupen) {
1a003f3c:	b10a      	cbz	r2, 1a003f42 <Chip_Clock_EnableOpts+0xe>
		reg |= (1 << 2);
1a003f3e:	f041 0104 	orr.w	r1, r1, #4
	}

	/* Not all clocks support a divider, but we won't check that here. Only
	   dividers of 1 and 2 are allowed. Assume 1 if not 2 */
	if (div == 2) {
1a003f42:	2b02      	cmp	r3, #2
1a003f44:	d101      	bne.n	1a003f4a <Chip_Clock_EnableOpts+0x16>
		reg |= (1 << 5);
1a003f46:	f041 0120 	orr.w	r1, r1, #32
	}

	/* Setup peripheral clock and start running */
	if (clk >= CLK_CCU2_START) {
1a003f4a:	f5b0 7fa1 	cmp.w	r0, #322	; 0x142
1a003f4e:	d305      	bcc.n	1a003f5c <Chip_Clock_EnableOpts+0x28>
		LPC_CCU2->CLKCCU[clk - CLK_CCU2_START].CFG = reg;
1a003f50:	f5a0 7091 	sub.w	r0, r0, #290	; 0x122
1a003f54:	4b04      	ldr	r3, [pc, #16]	; (1a003f68 <Chip_Clock_EnableOpts+0x34>)
1a003f56:	f843 1030 	str.w	r1, [r3, r0, lsl #3]
1a003f5a:	4770      	bx	lr
	}
	else {
		LPC_CCU1->CLKCCU[clk].CFG = reg;
1a003f5c:	3020      	adds	r0, #32
1a003f5e:	4b03      	ldr	r3, [pc, #12]	; (1a003f6c <Chip_Clock_EnableOpts+0x38>)
1a003f60:	f843 1030 	str.w	r1, [r3, r0, lsl #3]
1a003f64:	4770      	bx	lr
1a003f66:	bf00      	nop
1a003f68:	40052000 	.word	0x40052000
1a003f6c:	40051000 	.word	0x40051000

1a003f70 <Chip_Clock_Enable>:

/* Enables a peripheral clock */
void Chip_Clock_Enable(CHIP_CCU_CLK_T clk)
{
	/* Start peripheral clock running */
	if (clk >= CLK_CCU2_START) {
1a003f70:	f5b0 7fa1 	cmp.w	r0, #322	; 0x142
1a003f74:	d309      	bcc.n	1a003f8a <Chip_Clock_Enable+0x1a>
		LPC_CCU2->CLKCCU[clk - CLK_CCU2_START].CFG |= 1;
1a003f76:	4a09      	ldr	r2, [pc, #36]	; (1a003f9c <Chip_Clock_Enable+0x2c>)
1a003f78:	f5a0 7091 	sub.w	r0, r0, #290	; 0x122
1a003f7c:	f852 3030 	ldr.w	r3, [r2, r0, lsl #3]
1a003f80:	f043 0301 	orr.w	r3, r3, #1
1a003f84:	f842 3030 	str.w	r3, [r2, r0, lsl #3]
1a003f88:	4770      	bx	lr
	}
	else {
		LPC_CCU1->CLKCCU[clk].CFG |= 1;
1a003f8a:	4a05      	ldr	r2, [pc, #20]	; (1a003fa0 <Chip_Clock_Enable+0x30>)
1a003f8c:	3020      	adds	r0, #32
1a003f8e:	f852 3030 	ldr.w	r3, [r2, r0, lsl #3]
1a003f92:	f043 0301 	orr.w	r3, r3, #1
1a003f96:	f842 3030 	str.w	r3, [r2, r0, lsl #3]
1a003f9a:	4770      	bx	lr
1a003f9c:	40052000 	.word	0x40052000
1a003fa0:	40051000 	.word	0x40051000

1a003fa4 <Chip_Clock_RTCEnable>:
}

/* Enable RTC Clock */
void Chip_Clock_RTCEnable(void)
{
	LPC_CREG->CREG0 &= ~((1 << 3) | (1 << 2));	/* Reset 32Khz oscillator */
1a003fa4:	4b04      	ldr	r3, [pc, #16]	; (1a003fb8 <Chip_Clock_RTCEnable+0x14>)
1a003fa6:	685a      	ldr	r2, [r3, #4]
1a003fa8:	f022 020c 	bic.w	r2, r2, #12
1a003fac:	605a      	str	r2, [r3, #4]
	LPC_CREG->CREG0 |= (1 << 1) | (1 << 0);	/* Enable 32 kHz & 1 kHz on osc32k and release reset */
1a003fae:	685a      	ldr	r2, [r3, #4]
1a003fb0:	f042 0203 	orr.w	r2, r2, #3
1a003fb4:	605a      	str	r2, [r3, #4]
1a003fb6:	4770      	bx	lr
1a003fb8:	40043000 	.word	0x40043000

1a003fbc <Chip_Clock_Disable>:

/* Disables a peripheral clock */
void Chip_Clock_Disable(CHIP_CCU_CLK_T clk)
{
	/* Stop peripheral clock */
	if (clk >= CLK_CCU2_START) {
1a003fbc:	f5b0 7fa1 	cmp.w	r0, #322	; 0x142
1a003fc0:	d309      	bcc.n	1a003fd6 <Chip_Clock_Disable+0x1a>
		LPC_CCU2->CLKCCU[clk - CLK_CCU2_START].CFG &= ~1;
1a003fc2:	4a09      	ldr	r2, [pc, #36]	; (1a003fe8 <Chip_Clock_Disable+0x2c>)
1a003fc4:	f5a0 7091 	sub.w	r0, r0, #290	; 0x122
1a003fc8:	f852 3030 	ldr.w	r3, [r2, r0, lsl #3]
1a003fcc:	f023 0301 	bic.w	r3, r3, #1
1a003fd0:	f842 3030 	str.w	r3, [r2, r0, lsl #3]
1a003fd4:	4770      	bx	lr
	}
	else {
		LPC_CCU1->CLKCCU[clk].CFG &= ~1;
1a003fd6:	4a05      	ldr	r2, [pc, #20]	; (1a003fec <Chip_Clock_Disable+0x30>)
1a003fd8:	3020      	adds	r0, #32
1a003fda:	f852 3030 	ldr.w	r3, [r2, r0, lsl #3]
1a003fde:	f023 0301 	bic.w	r3, r3, #1
1a003fe2:	f842 3030 	str.w	r3, [r2, r0, lsl #3]
1a003fe6:	4770      	bx	lr
1a003fe8:	40052000 	.word	0x40052000
1a003fec:	40051000 	.word	0x40051000

1a003ff0 <Chip_Clock_GetRate>:
	LPC_CCU2->PM = 0;
}

/* Returns a peripheral clock rate */
uint32_t Chip_Clock_GetRate(CHIP_CCU_CLK_T clk)
{
1a003ff0:	b510      	push	{r4, lr}
	CHIP_CGU_BASE_CLK_T baseclk;
	uint32_t reg, div, rate;

	/* Get CCU config register for clock */
	if (clk >= CLK_CCU2_START) {
1a003ff2:	f5b0 7fa1 	cmp.w	r0, #322	; 0x142
1a003ff6:	d305      	bcc.n	1a004004 <Chip_Clock_GetRate+0x14>
		reg = LPC_CCU2->CLKCCU[clk - CLK_CCU2_START].CFG;
1a003ff8:	f5a0 7391 	sub.w	r3, r0, #290	; 0x122
1a003ffc:	4a0d      	ldr	r2, [pc, #52]	; (1a004034 <Chip_Clock_GetRate+0x44>)
1a003ffe:	f852 4033 	ldr.w	r4, [r2, r3, lsl #3]
1a004002:	e004      	b.n	1a00400e <Chip_Clock_GetRate+0x1e>
	}
	else {
		reg = LPC_CCU1->CLKCCU[clk].CFG;
1a004004:	f100 0320 	add.w	r3, r0, #32
1a004008:	4a0b      	ldr	r2, [pc, #44]	; (1a004038 <Chip_Clock_GetRate+0x48>)
1a00400a:	f852 4033 	ldr.w	r4, [r2, r3, lsl #3]
	}

	/* Is the clock enabled? */
	if (reg & 1) {
1a00400e:	f014 0f01 	tst.w	r4, #1
1a004012:	d00c      	beq.n	1a00402e <Chip_Clock_GetRate+0x3e>
		/* Get base clock for this peripheral clock */
		baseclk = Chip_Clock_FindBaseClock(clk);
1a004014:	f7ff fe0c 	bl	1a003c30 <Chip_Clock_FindBaseClock>

		/* Get base clock rate */
		rate = Chip_Clock_GetBaseClocktHz(baseclk);
1a004018:	f7ff ff86 	bl	1a003f28 <Chip_Clock_GetBaseClocktHz>

		/* Get divider for this clock */
		if (((reg >> 5) & 0x7) == 0) {
1a00401c:	f014 0fe0 	tst.w	r4, #224	; 0xe0
1a004020:	d101      	bne.n	1a004026 <Chip_Clock_GetRate+0x36>
			div = 1;
1a004022:	2301      	movs	r3, #1
1a004024:	e000      	b.n	1a004028 <Chip_Clock_GetRate+0x38>
		}
		else {
			div = 2;/* No other dividers supported */
1a004026:	2302      	movs	r3, #2

		}
		rate = rate / div;
1a004028:	fbb0 f0f3 	udiv	r0, r0, r3
1a00402c:	bd10      	pop	{r4, pc}
	}
	else {
		rate = 0;
1a00402e:	2000      	movs	r0, #0
	}

	return rate;
}
1a004030:	bd10      	pop	{r4, pc}
1a004032:	bf00      	nop
1a004034:	40052000 	.word	0x40052000
1a004038:	40051000 	.word	0x40051000

1a00403c <fpuInit>:
 * Public functions
 ****************************************************************************/

/* Early initialization of the FPU */
void fpuInit(void)
{
1a00403c:	b084      	sub	sp, #16
	volatile uint32_t Cpacr;
	volatile uint32_t Mvfr0;
	volatile uint32_t Mvfr1;
	char vfpPresent = 0;

	Mvfr0 = *regMvfr0;
1a00403e:	4b10      	ldr	r3, [pc, #64]	; (1a004080 <fpuInit+0x44>)
1a004040:	681b      	ldr	r3, [r3, #0]
1a004042:	9302      	str	r3, [sp, #8]
	Mvfr1 = *regMvfr1;
1a004044:	4b0f      	ldr	r3, [pc, #60]	; (1a004084 <fpuInit+0x48>)
1a004046:	681b      	ldr	r3, [r3, #0]
1a004048:	9301      	str	r3, [sp, #4]

	vfpPresent = ((SCB_MVFR0_RESET == Mvfr0) && (SCB_MVFR1_RESET == Mvfr1));
1a00404a:	9a02      	ldr	r2, [sp, #8]
1a00404c:	4b0e      	ldr	r3, [pc, #56]	; (1a004088 <fpuInit+0x4c>)
1a00404e:	429a      	cmp	r2, r3
1a004050:	d105      	bne.n	1a00405e <fpuInit+0x22>
1a004052:	9a01      	ldr	r2, [sp, #4]
1a004054:	4b0d      	ldr	r3, [pc, #52]	; (1a00408c <fpuInit+0x50>)
1a004056:	429a      	cmp	r2, r3
1a004058:	d003      	beq.n	1a004062 <fpuInit+0x26>
1a00405a:	2300      	movs	r3, #0
1a00405c:	e002      	b.n	1a004064 <fpuInit+0x28>
1a00405e:	2300      	movs	r3, #0
1a004060:	e000      	b.n	1a004064 <fpuInit+0x28>
1a004062:	2301      	movs	r3, #1

	if (vfpPresent) {
1a004064:	f013 0fff 	tst.w	r3, #255	; 0xff
1a004068:	d008      	beq.n	1a00407c <fpuInit+0x40>
		Cpacr = *regCpacr;
1a00406a:	4a09      	ldr	r2, [pc, #36]	; (1a004090 <fpuInit+0x54>)
1a00406c:	6813      	ldr	r3, [r2, #0]
1a00406e:	9303      	str	r3, [sp, #12]
		Cpacr |= (0xF << 20);
1a004070:	9b03      	ldr	r3, [sp, #12]
1a004072:	f443 0370 	orr.w	r3, r3, #15728640	; 0xf00000
1a004076:	9303      	str	r3, [sp, #12]
		*regCpacr = Cpacr;	// enable CP10 and CP11 for full access
1a004078:	9b03      	ldr	r3, [sp, #12]
1a00407a:	6013      	str	r3, [r2, #0]
	}
#endif /* __FPU_PRESENT != 0 */
}
1a00407c:	b004      	add	sp, #16
1a00407e:	4770      	bx	lr
1a004080:	e000ef40 	.word	0xe000ef40
1a004084:	e000ef44 	.word	0xe000ef44
1a004088:	10110021 	.word	0x10110021
1a00408c:	11000011 	.word	0x11000011
1a004090:	e000ed88 	.word	0xe000ed88

1a004094 <Chip_RTC_ResetClockTickCounter>:

/* Reset clock tick counter in the RTC peripheral */
void Chip_RTC_ResetClockTickCounter(LPC_RTC_T *pRTC)
{
	/* Reset RTC clock*/
	pRTC->CCR |= RTC_CCR_CTCRST;
1a004094:	6883      	ldr	r3, [r0, #8]
1a004096:	f043 0302 	orr.w	r3, r3, #2
1a00409a:	6083      	str	r3, [r0, #8]
	while (!(pRTC->CCR & RTC_CCR_CTCRST)) {}
1a00409c:	6883      	ldr	r3, [r0, #8]
1a00409e:	f013 0f02 	tst.w	r3, #2
1a0040a2:	d0fb      	beq.n	1a00409c <Chip_RTC_ResetClockTickCounter+0x8>

	/* Finish resetting RTC clock */
	pRTC->CCR = (pRTC->CCR & ~RTC_CCR_CTCRST) & RTC_CCR_BITMASK;
1a0040a4:	6883      	ldr	r3, [r0, #8]
1a0040a6:	f003 0311 	and.w	r3, r3, #17
1a0040aa:	6083      	str	r3, [r0, #8]
	while (pRTC->CCR & RTC_CCR_CTCRST) {}
1a0040ac:	6883      	ldr	r3, [r0, #8]
1a0040ae:	f013 0f02 	tst.w	r3, #2
1a0040b2:	d1fb      	bne.n	1a0040ac <Chip_RTC_ResetClockTickCounter+0x18>
}
1a0040b4:	4770      	bx	lr
1a0040b6:	bf00      	nop

1a0040b8 <Chip_RTC_Enable>:

/* Start/Stop RTC peripheral */
void Chip_RTC_Enable(LPC_RTC_T *pRTC, FunctionalState NewState)
{
	if (NewState == ENABLE) {
1a0040b8:	2901      	cmp	r1, #1
1a0040ba:	d104      	bne.n	1a0040c6 <Chip_RTC_Enable+0xe>
		pRTC->CCR |= RTC_CCR_CLKEN;
1a0040bc:	6883      	ldr	r3, [r0, #8]
1a0040be:	f043 0301 	orr.w	r3, r3, #1
1a0040c2:	6083      	str	r3, [r0, #8]
1a0040c4:	4770      	bx	lr
	} else {
		pRTC->CCR = (pRTC->CCR & ~RTC_CCR_CLKEN) & RTC_CCR_BITMASK;
1a0040c6:	6883      	ldr	r3, [r0, #8]
1a0040c8:	f003 0312 	and.w	r3, r3, #18
1a0040cc:	6083      	str	r3, [r0, #8]
1a0040ce:	4770      	bx	lr

1a0040d0 <Chip_RTC_SetFullTime>:
	}
}

/* Set full time in the RTC peripheral */
void Chip_RTC_SetFullTime(LPC_RTC_T *pRTC, RTC_TIME_T *pFullTime)
{
1a0040d0:	b430      	push	{r4, r5}
	RTC_TIMEINDEX_T i;
	uint32_t ccr_val = pRTC->CCR;
1a0040d2:	6885      	ldr	r5, [r0, #8]

	/* Temporarily disable */
	if (ccr_val & RTC_CCR_CLKEN) {
1a0040d4:	f015 0f01 	tst.w	r5, #1
1a0040d8:	d002      	beq.n	1a0040e0 <Chip_RTC_SetFullTime+0x10>
		pRTC->CCR = ccr_val & (~RTC_CCR_CLKEN) & RTC_CCR_BITMASK;
1a0040da:	f005 0312 	and.w	r3, r5, #18
1a0040de:	6083      	str	r3, [r0, #8]
	}
}

/* Set full time in the RTC peripheral */
void Chip_RTC_SetFullTime(LPC_RTC_T *pRTC, RTC_TIME_T *pFullTime)
{
1a0040e0:	2300      	movs	r3, #0
1a0040e2:	e007      	b.n	1a0040f4 <Chip_RTC_SetFullTime+0x24>
		pRTC->CCR = ccr_val & (~RTC_CCR_CLKEN) & RTC_CCR_BITMASK;
	}

	/* Date time setting */
	for (i = RTC_TIMETYPE_SECOND; i < RTC_TIMETYPE_LAST; i++) {
		pRTC->TIME[i] = pFullTime->time[i];
1a0040e4:	f851 4023 	ldr.w	r4, [r1, r3, lsl #2]
1a0040e8:	f103 0208 	add.w	r2, r3, #8
1a0040ec:	f840 4022 	str.w	r4, [r0, r2, lsl #2]
	if (ccr_val & RTC_CCR_CLKEN) {
		pRTC->CCR = ccr_val & (~RTC_CCR_CLKEN) & RTC_CCR_BITMASK;
	}

	/* Date time setting */
	for (i = RTC_TIMETYPE_SECOND; i < RTC_TIMETYPE_LAST; i++) {
1a0040f0:	3301      	adds	r3, #1
1a0040f2:	b2db      	uxtb	r3, r3
1a0040f4:	2b07      	cmp	r3, #7
1a0040f6:	d9f5      	bls.n	1a0040e4 <Chip_RTC_SetFullTime+0x14>
		pRTC->TIME[i] = pFullTime->time[i];
	}

	/* Restore to old setting */
	pRTC->CCR = ccr_val;
1a0040f8:	6085      	str	r5, [r0, #8]
}
1a0040fa:	bc30      	pop	{r4, r5}
1a0040fc:	4770      	bx	lr
1a0040fe:	bf00      	nop

1a004100 <Chip_RTC_GetFullTime>:

/* Get full time from the RTC peripheral */
void Chip_RTC_GetFullTime(LPC_RTC_T *pRTC, RTC_TIME_T *pFullTime)
{
1a004100:	b410      	push	{r4}
	RTC_TIMEINDEX_T i;
	uint32_t secs = 0xFF;
1a004102:	24ff      	movs	r4, #255	; 0xff

	/* Read full time, but verify second tick didn't change during the read. If
	   it did, re-read the time again so it will be consistent across all fields. */
	while (secs != pRTC->TIME[RTC_TIMETYPE_SECOND]) {
1a004104:	e00e      	b.n	1a004124 <Chip_RTC_GetFullTime+0x24>
		secs = pFullTime->time[RTC_TIMETYPE_SECOND] = pRTC->TIME[RTC_TIMETYPE_SECOND];
1a004106:	6a03      	ldr	r3, [r0, #32]
1a004108:	600b      	str	r3, [r1, #0]
1a00410a:	461c      	mov	r4, r3
		for (i = RTC_TIMETYPE_MINUTE; i < RTC_TIMETYPE_LAST; i++) {
1a00410c:	2301      	movs	r3, #1
1a00410e:	e007      	b.n	1a004120 <Chip_RTC_GetFullTime+0x20>
			pFullTime->time[i] = pRTC->TIME[i];
1a004110:	f103 0208 	add.w	r2, r3, #8
1a004114:	f850 2022 	ldr.w	r2, [r0, r2, lsl #2]
1a004118:	f841 2023 	str.w	r2, [r1, r3, lsl #2]

	/* Read full time, but verify second tick didn't change during the read. If
	   it did, re-read the time again so it will be consistent across all fields. */
	while (secs != pRTC->TIME[RTC_TIMETYPE_SECOND]) {
		secs = pFullTime->time[RTC_TIMETYPE_SECOND] = pRTC->TIME[RTC_TIMETYPE_SECOND];
		for (i = RTC_TIMETYPE_MINUTE; i < RTC_TIMETYPE_LAST; i++) {
1a00411c:	3301      	adds	r3, #1
1a00411e:	b2db      	uxtb	r3, r3
1a004120:	2b07      	cmp	r3, #7
1a004122:	d9f5      	bls.n	1a004110 <Chip_RTC_GetFullTime+0x10>
	RTC_TIMEINDEX_T i;
	uint32_t secs = 0xFF;

	/* Read full time, but verify second tick didn't change during the read. If
	   it did, re-read the time again so it will be consistent across all fields. */
	while (secs != pRTC->TIME[RTC_TIMETYPE_SECOND]) {
1a004124:	6a03      	ldr	r3, [r0, #32]
1a004126:	42a3      	cmp	r3, r4
1a004128:	d1ed      	bne.n	1a004106 <Chip_RTC_GetFullTime+0x6>
		secs = pFullTime->time[RTC_TIMETYPE_SECOND] = pRTC->TIME[RTC_TIMETYPE_SECOND];
		for (i = RTC_TIMETYPE_MINUTE; i < RTC_TIMETYPE_LAST; i++) {
			pFullTime->time[i] = pRTC->TIME[i];
		}
	}
}
1a00412a:	f85d 4b04 	ldr.w	r4, [sp], #4
1a00412e:	4770      	bx	lr

1a004130 <Chip_RTC_CalibCounterCmd>:
}

/* Enable/Disable calibration counter in the RTC peripheral */
void Chip_RTC_CalibCounterCmd(LPC_RTC_T *pRTC, FunctionalState NewState)
{
	if (NewState == ENABLE) {
1a004130:	2901      	cmp	r1, #1
1a004132:	d108      	bne.n	1a004146 <Chip_RTC_CalibCounterCmd+0x16>
		do {
			pRTC->CCR &= (~RTC_CCR_CCALEN) & RTC_CCR_BITMASK;
1a004134:	6883      	ldr	r3, [r0, #8]
1a004136:	f003 0303 	and.w	r3, r3, #3
1a00413a:	6083      	str	r3, [r0, #8]
		} while (pRTC->CCR & RTC_CCR_CCALEN);
1a00413c:	6883      	ldr	r3, [r0, #8]
1a00413e:	f013 0f10 	tst.w	r3, #16
1a004142:	d1f7      	bne.n	1a004134 <Chip_RTC_CalibCounterCmd+0x4>
1a004144:	4770      	bx	lr
	}
	else {
		pRTC->CCR |= RTC_CCR_CCALEN;
1a004146:	6883      	ldr	r3, [r0, #8]
1a004148:	f043 0310 	orr.w	r3, r3, #16
1a00414c:	6083      	str	r3, [r0, #8]
1a00414e:	4770      	bx	lr

1a004150 <Chip_RTC_Init>:
 * Public functions
 ****************************************************************************/

/* Initialize the RTC peripheral */
void Chip_RTC_Init(LPC_RTC_T *pRTC)
{
1a004150:	b510      	push	{r4, lr}
1a004152:	4604      	mov	r4, r0
	Chip_Clock_RTCEnable();
1a004154:	f7ff ff26 	bl	1a003fa4 <Chip_Clock_RTCEnable>

	/* 2-Second delay after enabling RTC clock */
	LPC_ATIMER->DOWNCOUNTER = 2048;
1a004158:	f44f 6200 	mov.w	r2, #2048	; 0x800
1a00415c:	4b0d      	ldr	r3, [pc, #52]	; (1a004194 <Chip_RTC_Init+0x44>)
1a00415e:	601a      	str	r2, [r3, #0]
	while (LPC_ATIMER->DOWNCOUNTER);
1a004160:	4b0c      	ldr	r3, [pc, #48]	; (1a004194 <Chip_RTC_Init+0x44>)
1a004162:	681b      	ldr	r3, [r3, #0]
1a004164:	2b00      	cmp	r3, #0
1a004166:	d1fb      	bne.n	1a004160 <Chip_RTC_Init+0x10>

	/* Disable RTC */
	Chip_RTC_Enable(pRTC, DISABLE);
1a004168:	4620      	mov	r0, r4
1a00416a:	2100      	movs	r1, #0
1a00416c:	f7ff ffa4 	bl	1a0040b8 <Chip_RTC_Enable>

	/* Disable Calibration */
	Chip_RTC_CalibCounterCmd(pRTC, DISABLE);
1a004170:	4620      	mov	r0, r4
1a004172:	2100      	movs	r1, #0
1a004174:	f7ff ffdc 	bl	1a004130 <Chip_RTC_CalibCounterCmd>

	/* Reset RTC Clock */
	Chip_RTC_ResetClockTickCounter(pRTC);
1a004178:	4620      	mov	r0, r4
1a00417a:	f7ff ff8b 	bl	1a004094 <Chip_RTC_ResetClockTickCounter>

	/* Clear counter increment and alarm interrupt */
	pRTC->ILR = RTC_IRL_RTCCIF | RTC_IRL_RTCALF;
1a00417e:	2303      	movs	r3, #3
1a004180:	6023      	str	r3, [r4, #0]
	while (pRTC->ILR != 0) {}
1a004182:	6823      	ldr	r3, [r4, #0]
1a004184:	2b00      	cmp	r3, #0
1a004186:	d1fc      	bne.n	1a004182 <Chip_RTC_Init+0x32>

	/* Clear all register to be default */
	pRTC->CIIR = 0x00;
1a004188:	60e3      	str	r3, [r4, #12]
	pRTC->AMR = 0xFF;
1a00418a:	22ff      	movs	r2, #255	; 0xff
1a00418c:	6122      	str	r2, [r4, #16]
	pRTC->CALIBRATION = 0x00;
1a00418e:	6423      	str	r3, [r4, #64]	; 0x40
1a004190:	bd10      	pop	{r4, pc}
1a004192:	bf00      	nop
1a004194:	40040000 	.word	0x40040000

1a004198 <Chip_GPIO_Init>:
 * Public functions
 ****************************************************************************/

/* Initialize GPIO block */
void Chip_GPIO_Init(LPC_GPIO_T *pGPIO)
{
1a004198:	4770      	bx	lr
1a00419a:	bf00      	nop

1a00419c <Chip_SetupCoreClock>:
/*****************************************************************************
 * Public functions
 ****************************************************************************/
/* Setup Chip Core clock */
void Chip_SetupCoreClock(CHIP_CGU_CLKIN_T clkin, uint32_t core_freq, bool setbase)
{
1a00419c:	b570      	push	{r4, r5, r6, lr}
1a00419e:	b08a      	sub	sp, #40	; 0x28
1a0041a0:	4605      	mov	r5, r0
1a0041a2:	460e      	mov	r6, r1
1a0041a4:	4614      	mov	r4, r2
	int i;
	volatile uint32_t delay = 10000; // FIXME: original was 500, fix for horrible crystals. @Eric
1a0041a6:	f242 7310 	movw	r3, #10000	; 0x2710
1a0041aa:	9309      	str	r3, [sp, #36]	; 0x24
	uint32_t direct = 0, pdivide = 0;
	PLL_PARAM_T ppll;

	if (clkin == CLKIN_CRYSTAL) {
1a0041ac:	2806      	cmp	r0, #6
1a0041ae:	d101      	bne.n	1a0041b4 <Chip_SetupCoreClock+0x18>
		/* Switch main system clocking to crystal */
		Chip_Clock_EnableCrystal();
1a0041b0:	f7ff fd62 	bl	1a003c78 <Chip_Clock_EnableCrystal>
	}
	Chip_Clock_SetBaseClock(CLK_BASE_MX, clkin, true, false);
1a0041b4:	2004      	movs	r0, #4
1a0041b6:	4629      	mov	r1, r5
1a0041b8:	2201      	movs	r2, #1
1a0041ba:	2300      	movs	r3, #0
1a0041bc:	f7ff fe80 	bl	1a003ec0 <Chip_Clock_SetBaseClock>
 * Saves power if the main PLL is not needed.
 */
__STATIC_INLINE void Chip_Clock_DisableMainPLL(void)
{
	/* power down main PLL */
	LPC_CGU->PLL1_CTRL |= 1;
1a0041c0:	4a47      	ldr	r2, [pc, #284]	; (1a0042e0 <Chip_SetupCoreClock+0x144>)
1a0041c2:	6c53      	ldr	r3, [r2, #68]	; 0x44
1a0041c4:	f043 0301 	orr.w	r3, r3, #1
1a0041c8:	6453      	str	r3, [r2, #68]	; 0x44
	Chip_Clock_DisableMainPLL(); /* Disable PLL */

	/* Calculate the PLL Parameters */
	ppll.srcin = clkin;
1a0041ca:	f88d 5008 	strb.w	r5, [sp, #8]
	Chip_Clock_CalcMainPLLValue(core_freq, &ppll);
1a0041ce:	4630      	mov	r0, r6
1a0041d0:	a901      	add	r1, sp, #4
1a0041d2:	f7ff fdef 	bl	1a003db4 <Chip_Clock_CalcMainPLLValue>

	if (core_freq > 110000000UL) {
1a0041d6:	4b43      	ldr	r3, [pc, #268]	; (1a0042e4 <Chip_SetupCoreClock+0x148>)
1a0041d8:	429e      	cmp	r6, r3
1a0041da:	d913      	bls.n	1a004204 <Chip_SetupCoreClock+0x68>
		if (ppll.ctrl & (1 << 6)) {
1a0041dc:	9b01      	ldr	r3, [sp, #4]
1a0041de:	f013 0f40 	tst.w	r3, #64	; 0x40
1a0041e2:	d000      	beq.n	1a0041e6 <Chip_SetupCoreClock+0x4a>
			while(1);		// to run in integer mode above 110 MHz, you need to use IDIV clock to boot strap CPU to that freq
1a0041e4:	e7fe      	b.n	1a0041e4 <Chip_SetupCoreClock+0x48>
		} else if (ppll.ctrl & (1 << 7)){
1a0041e6:	f013 0f80 	tst.w	r3, #128	; 0x80
1a0041ea:	d005      	beq.n	1a0041f8 <Chip_SetupCoreClock+0x5c>
			direct = 1;
			ppll.ctrl &= ~(1 << 7);
1a0041ec:	f023 0380 	bic.w	r3, r3, #128	; 0x80
1a0041f0:	9301      	str	r3, [sp, #4]
/* Setup Chip Core clock */
void Chip_SetupCoreClock(CHIP_CGU_CLKIN_T clkin, uint32_t core_freq, bool setbase)
{
	int i;
	volatile uint32_t delay = 10000; // FIXME: original was 500, fix for horrible crystals. @Eric
	uint32_t direct = 0, pdivide = 0;
1a0041f2:	2500      	movs	r5, #0

	if (core_freq > 110000000UL) {
		if (ppll.ctrl & (1 << 6)) {
			while(1);		// to run in integer mode above 110 MHz, you need to use IDIV clock to boot strap CPU to that freq
		} else if (ppll.ctrl & (1 << 7)){
			direct = 1;
1a0041f4:	2601      	movs	r6, #1
1a0041f6:	e007      	b.n	1a004208 <Chip_SetupCoreClock+0x6c>
			ppll.ctrl &= ~(1 << 7);
		} else {
			pdivide = 1;
			ppll.psel++;
1a0041f8:	9b04      	ldr	r3, [sp, #16]
1a0041fa:	3301      	adds	r3, #1
1a0041fc:	9304      	str	r3, [sp, #16]
			while(1);		// to run in integer mode above 110 MHz, you need to use IDIV clock to boot strap CPU to that freq
		} else if (ppll.ctrl & (1 << 7)){
			direct = 1;
			ppll.ctrl &= ~(1 << 7);
		} else {
			pdivide = 1;
1a0041fe:	2501      	movs	r5, #1
/* Setup Chip Core clock */
void Chip_SetupCoreClock(CHIP_CGU_CLKIN_T clkin, uint32_t core_freq, bool setbase)
{
	int i;
	volatile uint32_t delay = 10000; // FIXME: original was 500, fix for horrible crystals. @Eric
	uint32_t direct = 0, pdivide = 0;
1a004200:	2600      	movs	r6, #0
1a004202:	e001      	b.n	1a004208 <Chip_SetupCoreClock+0x6c>
1a004204:	2500      	movs	r5, #0
1a004206:	462e      	mov	r6, r5
 * Make sure the main PLL is enabled.
 */
__STATIC_INLINE void Chip_Clock_SetupMainPLL(const PLL_PARAM_T *ppll)
{
	/* power up main PLL */
    LPC_CGU->PLL1_CTRL = ppll->ctrl | ((uint32_t) ppll->srcin << 24) | (ppll->msel << 16) | (ppll->nsel << 12) | (ppll->psel << 8) | ( 1 << 11);	
1a004208:	f89d 2008 	ldrb.w	r2, [sp, #8]
1a00420c:	9b01      	ldr	r3, [sp, #4]
1a00420e:	ea43 6302 	orr.w	r3, r3, r2, lsl #24
1a004212:	9a05      	ldr	r2, [sp, #20]
1a004214:	ea43 4302 	orr.w	r3, r3, r2, lsl #16
1a004218:	9a03      	ldr	r2, [sp, #12]
1a00421a:	ea43 3302 	orr.w	r3, r3, r2, lsl #12
1a00421e:	9a04      	ldr	r2, [sp, #16]
1a004220:	ea43 2302 	orr.w	r3, r3, r2, lsl #8
1a004224:	f443 6300 	orr.w	r3, r3, #2048	; 0x800
1a004228:	4a2d      	ldr	r2, [pc, #180]	; (1a0042e0 <Chip_SetupCoreClock+0x144>)
1a00422a:	6453      	str	r3, [r2, #68]	; 0x44
 * @note	The main PLL should be locked prior to using it as a clock input for a base clock.
 */
__STATIC_INLINE int Chip_Clock_MainPLLLocked(void)
{
	/* Return true if locked */
	return (LPC_CGU->PLL1_STAT & 1) != 0;
1a00422c:	4b2c      	ldr	r3, [pc, #176]	; (1a0042e0 <Chip_SetupCoreClock+0x144>)
1a00422e:	6c1b      	ldr	r3, [r3, #64]	; 0x40

	/* Setup and start the PLL */
	Chip_Clock_SetupMainPLL(&ppll);

	/* Wait for the PLL to lock */
	while(!Chip_Clock_MainPLLLocked()) {}
1a004230:	f013 0f01 	tst.w	r3, #1
1a004234:	d0fa      	beq.n	1a00422c <Chip_SetupCoreClock+0x90>

	/* Set core clock base as PLL1 */
	Chip_Clock_SetBaseClock(CLK_BASE_MX, CLKIN_MAINPLL, true, false);
1a004236:	2004      	movs	r0, #4
1a004238:	2109      	movs	r1, #9
1a00423a:	2201      	movs	r2, #1
1a00423c:	2300      	movs	r3, #0
1a00423e:	f7ff fe3f 	bl	1a003ec0 <Chip_Clock_SetBaseClock>

	if (direct) {
1a004242:	b1ee      	cbz	r6, 1a004280 <Chip_SetupCoreClock+0xe4>
		delay = 10000; // FIXME: original was 1000, fix for horrible crystals. @Eric
1a004244:	f242 7310 	movw	r3, #10000	; 0x2710
1a004248:	9309      	str	r3, [sp, #36]	; 0x24
		while(delay --){} /* Wait for approx 50 uSec -- for power supply to stabilize*/
1a00424a:	9b09      	ldr	r3, [sp, #36]	; 0x24
1a00424c:	1e5a      	subs	r2, r3, #1
1a00424e:	9209      	str	r2, [sp, #36]	; 0x24
1a004250:	2b00      	cmp	r3, #0
1a004252:	d1fa      	bne.n	1a00424a <Chip_SetupCoreClock+0xae>
		ppll.ctrl |= 1 << 7;
1a004254:	9b01      	ldr	r3, [sp, #4]
1a004256:	f043 0380 	orr.w	r3, r3, #128	; 0x80
1a00425a:	9301      	str	r3, [sp, #4]
 * Make sure the main PLL is enabled.
 */
__STATIC_INLINE void Chip_Clock_SetupMainPLL(const PLL_PARAM_T *ppll)
{
	/* power up main PLL */
    LPC_CGU->PLL1_CTRL = ppll->ctrl | ((uint32_t) ppll->srcin << 24) | (ppll->msel << 16) | (ppll->nsel << 12) | (ppll->psel << 8) | ( 1 << 11);	
1a00425c:	f89d 2008 	ldrb.w	r2, [sp, #8]
1a004260:	ea43 6302 	orr.w	r3, r3, r2, lsl #24
1a004264:	9a05      	ldr	r2, [sp, #20]
1a004266:	ea43 4302 	orr.w	r3, r3, r2, lsl #16
1a00426a:	9a03      	ldr	r2, [sp, #12]
1a00426c:	ea43 3302 	orr.w	r3, r3, r2, lsl #12
1a004270:	9a04      	ldr	r2, [sp, #16]
1a004272:	ea43 2302 	orr.w	r3, r3, r2, lsl #8
1a004276:	f443 6300 	orr.w	r3, r3, #2048	; 0x800
1a00427a:	4a19      	ldr	r2, [pc, #100]	; (1a0042e0 <Chip_SetupCoreClock+0x144>)
1a00427c:	6453      	str	r3, [r2, #68]	; 0x44
1a00427e:	e01c      	b.n	1a0042ba <Chip_SetupCoreClock+0x11e>
		Chip_Clock_SetupMainPLL(&ppll); /* Set DIRECT to operate at full frequency */
	} else if (pdivide) {
1a004280:	b1dd      	cbz	r5, 1a0042ba <Chip_SetupCoreClock+0x11e>
		delay = 10000; // FIXME: original was 1000, fix for horrible crystals. @Eric
1a004282:	f242 7310 	movw	r3, #10000	; 0x2710
1a004286:	9309      	str	r3, [sp, #36]	; 0x24
		while(delay --){} /* Wait for approx 50 uSec -- for power supply to stabilize */
1a004288:	9b09      	ldr	r3, [sp, #36]	; 0x24
1a00428a:	1e5a      	subs	r2, r3, #1
1a00428c:	9209      	str	r2, [sp, #36]	; 0x24
1a00428e:	2b00      	cmp	r3, #0
1a004290:	d1fa      	bne.n	1a004288 <Chip_SetupCoreClock+0xec>
		ppll.psel--;
1a004292:	9b04      	ldr	r3, [sp, #16]
1a004294:	1e59      	subs	r1, r3, #1
1a004296:	9104      	str	r1, [sp, #16]
1a004298:	f89d 2008 	ldrb.w	r2, [sp, #8]
1a00429c:	9b01      	ldr	r3, [sp, #4]
1a00429e:	ea43 6202 	orr.w	r2, r3, r2, lsl #24
1a0042a2:	9b05      	ldr	r3, [sp, #20]
1a0042a4:	ea42 4203 	orr.w	r2, r2, r3, lsl #16
1a0042a8:	9b03      	ldr	r3, [sp, #12]
1a0042aa:	ea42 3303 	orr.w	r3, r2, r3, lsl #12
1a0042ae:	ea43 2301 	orr.w	r3, r3, r1, lsl #8
1a0042b2:	f443 6300 	orr.w	r3, r3, #2048	; 0x800
1a0042b6:	4a0a      	ldr	r2, [pc, #40]	; (1a0042e0 <Chip_SetupCoreClock+0x144>)
1a0042b8:	6453      	str	r3, [r2, #68]	; 0x44
		Chip_Clock_SetupMainPLL(&ppll); /* Set PDIV to operate at full frequency */
	}

	if (setbase) {
1a0042ba:	b964      	cbnz	r4, 1a0042d6 <Chip_SetupCoreClock+0x13a>
1a0042bc:	e00e      	b.n	1a0042dc <Chip_SetupCoreClock+0x140>
		/* Setup system base clocks and initial states. This won't enable and
		   disable individual clocks, but sets up the base clock sources for
		   each individual peripheral clock. */
		for (i = 0; i < (sizeof(InitClkStates) / sizeof(InitClkStates[0])); i++) {
			Chip_Clock_SetBaseClock(InitClkStates[i].clk, InitClkStates[i].clkin,
1a0042be:	4a0a      	ldr	r2, [pc, #40]	; (1a0042e8 <Chip_SetupCoreClock+0x14c>)
1a0042c0:	eb02 0384 	add.w	r3, r2, r4, lsl #2
1a0042c4:	f812 0024 	ldrb.w	r0, [r2, r4, lsl #2]
1a0042c8:	7859      	ldrb	r1, [r3, #1]
1a0042ca:	789a      	ldrb	r2, [r3, #2]
1a0042cc:	78db      	ldrb	r3, [r3, #3]
1a0042ce:	f7ff fdf7 	bl	1a003ec0 <Chip_Clock_SetBaseClock>

	if (setbase) {
		/* Setup system base clocks and initial states. This won't enable and
		   disable individual clocks, but sets up the base clock sources for
		   each individual peripheral clock. */
		for (i = 0; i < (sizeof(InitClkStates) / sizeof(InitClkStates[0])); i++) {
1a0042d2:	3401      	adds	r4, #1
1a0042d4:	e000      	b.n	1a0042d8 <Chip_SetupCoreClock+0x13c>
1a0042d6:	2400      	movs	r4, #0
1a0042d8:	2c11      	cmp	r4, #17
1a0042da:	d9f0      	bls.n	1a0042be <Chip_SetupCoreClock+0x122>
			Chip_Clock_SetBaseClock(InitClkStates[i].clk, InitClkStates[i].clkin,
									InitClkStates[i].autoblock_enab, InitClkStates[i].powerdn);
		}
	}
}
1a0042dc:	b00a      	add	sp, #40	; 0x28
1a0042de:	bd70      	pop	{r4, r5, r6, pc}
1a0042e0:	40050000 	.word	0x40050000
1a0042e4:	068e7780 	.word	0x068e7780
1a0042e8:	1a00550c 	.word	0x1a00550c

1a0042ec <SSP_Write2BFifo>:
 * Private functions
 ****************************************************************************/

STATIC void SSP_Write2BFifo(LPC_SSP_T *pSSP, Chip_SSP_DATA_SETUP_T *xf_setup)
{
	if (xf_setup->tx_data) {
1a0042ec:	680b      	ldr	r3, [r1, #0]
1a0042ee:	b11b      	cbz	r3, 1a0042f8 <SSP_Write2BFifo+0xc>
		Chip_SSP_SendFrame(pSSP, (*(uint16_t *) ((uint32_t) xf_setup->tx_data +
												 xf_setup->tx_cnt)));
1a0042f0:	684a      	ldr	r2, [r1, #4]
 ****************************************************************************/

STATIC void SSP_Write2BFifo(LPC_SSP_T *pSSP, Chip_SSP_DATA_SETUP_T *xf_setup)
{
	if (xf_setup->tx_data) {
		Chip_SSP_SendFrame(pSSP, (*(uint16_t *) ((uint32_t) xf_setup->tx_data +
1a0042f2:	5a9b      	ldrh	r3, [r3, r2]
 * @param	tx_data	: SSP 16-bit data to be transmited
 * @return	 Nothing
 */
STATIC INLINE void Chip_SSP_SendFrame(LPC_SSP_T *pSSP, uint16_t tx_data)
{
	pSSP->DR = SSP_DR_BITMASK(tx_data);
1a0042f4:	6083      	str	r3, [r0, #8]
1a0042f6:	e002      	b.n	1a0042fe <SSP_Write2BFifo+0x12>
1a0042f8:	f64f 73ff 	movw	r3, #65535	; 0xffff
1a0042fc:	6083      	str	r3, [r0, #8]
	}
	else {
		Chip_SSP_SendFrame(pSSP, 0xFFFF);
	}

	xf_setup->tx_cnt += 2;
1a0042fe:	684b      	ldr	r3, [r1, #4]
1a004300:	3302      	adds	r3, #2
1a004302:	604b      	str	r3, [r1, #4]
1a004304:	4770      	bx	lr
1a004306:	bf00      	nop

1a004308 <SSP_Write1BFifo>:
}

/** SSP macro: write 1 bytes to FIFO buffer */
STATIC void SSP_Write1BFifo(LPC_SSP_T *pSSP, Chip_SSP_DATA_SETUP_T *xf_setup)
{
	if (xf_setup->tx_data) {
1a004308:	680b      	ldr	r3, [r1, #0]
1a00430a:	b11b      	cbz	r3, 1a004314 <SSP_Write1BFifo+0xc>
		Chip_SSP_SendFrame(pSSP, (*(uint8_t *) ((uint32_t) xf_setup->tx_data + xf_setup->tx_cnt)));
1a00430c:	684a      	ldr	r2, [r1, #4]
1a00430e:	5c9b      	ldrb	r3, [r3, r2]
1a004310:	6083      	str	r3, [r0, #8]
1a004312:	e001      	b.n	1a004318 <SSP_Write1BFifo+0x10>
1a004314:	23ff      	movs	r3, #255	; 0xff
1a004316:	6083      	str	r3, [r0, #8]
	}
	else {
		Chip_SSP_SendFrame(pSSP, 0xFF);
	}

	xf_setup->tx_cnt++;
1a004318:	684b      	ldr	r3, [r1, #4]
1a00431a:	3301      	adds	r3, #1
1a00431c:	604b      	str	r3, [r1, #4]
1a00431e:	4770      	bx	lr

1a004320 <SSP_Read2BFifo>:
}

/** SSP macro: read 1 bytes from FIFO buffer */
STATIC void SSP_Read2BFifo(LPC_SSP_T *pSSP, Chip_SSP_DATA_SETUP_T *xf_setup)
{
1a004320:	b410      	push	{r4}
	uint16_t rDat;

	while ((Chip_SSP_GetStatus(pSSP, SSP_STAT_RNE) == SET) &&
1a004322:	e007      	b.n	1a004334 <SSP_Read2BFifo+0x14>
 * @param	pSSP	: The base of SSP peripheral on the chip
 * @return	 SSP 16-bit data received
 */
STATIC INLINE uint16_t Chip_SSP_ReceiveFrame(LPC_SSP_T *pSSP)
{
	return (uint16_t) (SSP_DR_BITMASK(pSSP->DR));
1a004324:	6883      	ldr	r3, [r0, #8]
1a004326:	b29b      	uxth	r3, r3
		   (xf_setup->rx_cnt < xf_setup->length)) {
		rDat = Chip_SSP_ReceiveFrame(pSSP);
		if (xf_setup->rx_data) {
1a004328:	688c      	ldr	r4, [r1, #8]
1a00432a:	b104      	cbz	r4, 1a00432e <SSP_Read2BFifo+0xe>
			*(uint16_t *) ((uint32_t) xf_setup->rx_data + xf_setup->rx_cnt) = rDat;
1a00432c:	5313      	strh	r3, [r2, r4]
		}

		xf_setup->rx_cnt += 2;
1a00432e:	68cb      	ldr	r3, [r1, #12]
1a004330:	3302      	adds	r3, #2
1a004332:	60cb      	str	r3, [r1, #12]
 *						- SSP_STAT_BSY
 * @return	 SSP controller status, SET or RESET
 */
STATIC INLINE FlagStatus Chip_SSP_GetStatus(LPC_SSP_T *pSSP, SSP_STATUS_T Stat)
{
	return (pSSP->SR & Stat) ? SET : RESET;
1a004334:	68c3      	ldr	r3, [r0, #12]
/** SSP macro: read 1 bytes from FIFO buffer */
STATIC void SSP_Read2BFifo(LPC_SSP_T *pSSP, Chip_SSP_DATA_SETUP_T *xf_setup)
{
	uint16_t rDat;

	while ((Chip_SSP_GetStatus(pSSP, SSP_STAT_RNE) == SET) &&
1a004336:	f013 0f04 	tst.w	r3, #4
1a00433a:	d003      	beq.n	1a004344 <SSP_Read2BFifo+0x24>
		   (xf_setup->rx_cnt < xf_setup->length)) {
1a00433c:	68ca      	ldr	r2, [r1, #12]
1a00433e:	690b      	ldr	r3, [r1, #16]
/** SSP macro: read 1 bytes from FIFO buffer */
STATIC void SSP_Read2BFifo(LPC_SSP_T *pSSP, Chip_SSP_DATA_SETUP_T *xf_setup)
{
	uint16_t rDat;

	while ((Chip_SSP_GetStatus(pSSP, SSP_STAT_RNE) == SET) &&
1a004340:	429a      	cmp	r2, r3
1a004342:	d3ef      	bcc.n	1a004324 <SSP_Read2BFifo+0x4>
			*(uint16_t *) ((uint32_t) xf_setup->rx_data + xf_setup->rx_cnt) = rDat;
		}

		xf_setup->rx_cnt += 2;
	}
}
1a004344:	f85d 4b04 	ldr.w	r4, [sp], #4
1a004348:	4770      	bx	lr
1a00434a:	bf00      	nop

1a00434c <SSP_Read1BFifo>:

/** SSP macro: read 2 bytes from FIFO buffer */
STATIC void SSP_Read1BFifo(LPC_SSP_T *pSSP, Chip_SSP_DATA_SETUP_T *xf_setup)
{
1a00434c:	b410      	push	{r4}
	uint16_t rDat;

	while ((Chip_SSP_GetStatus(pSSP, SSP_STAT_RNE) == SET) &&
1a00434e:	e007      	b.n	1a004360 <SSP_Read1BFifo+0x14>
 * @param	pSSP	: The base of SSP peripheral on the chip
 * @return	 SSP 16-bit data received
 */
STATIC INLINE uint16_t Chip_SSP_ReceiveFrame(LPC_SSP_T *pSSP)
{
	return (uint16_t) (SSP_DR_BITMASK(pSSP->DR));
1a004350:	6883      	ldr	r3, [r0, #8]
1a004352:	b29b      	uxth	r3, r3
		   (xf_setup->rx_cnt < xf_setup->length)) {
		rDat = Chip_SSP_ReceiveFrame(pSSP);
		if (xf_setup->rx_data) {
1a004354:	688c      	ldr	r4, [r1, #8]
1a004356:	b104      	cbz	r4, 1a00435a <SSP_Read1BFifo+0xe>
			*(uint8_t *) ((uint32_t) xf_setup->rx_data + xf_setup->rx_cnt) = rDat;
1a004358:	5513      	strb	r3, [r2, r4]
		}

		xf_setup->rx_cnt++;
1a00435a:	68cb      	ldr	r3, [r1, #12]
1a00435c:	3301      	adds	r3, #1
1a00435e:	60cb      	str	r3, [r1, #12]
 *						- SSP_STAT_BSY
 * @return	 SSP controller status, SET or RESET
 */
STATIC INLINE FlagStatus Chip_SSP_GetStatus(LPC_SSP_T *pSSP, SSP_STATUS_T Stat)
{
	return (pSSP->SR & Stat) ? SET : RESET;
1a004360:	68c3      	ldr	r3, [r0, #12]
/** SSP macro: read 2 bytes from FIFO buffer */
STATIC void SSP_Read1BFifo(LPC_SSP_T *pSSP, Chip_SSP_DATA_SETUP_T *xf_setup)
{
	uint16_t rDat;

	while ((Chip_SSP_GetStatus(pSSP, SSP_STAT_RNE) == SET) &&
1a004362:	f013 0f04 	tst.w	r3, #4
1a004366:	d003      	beq.n	1a004370 <SSP_Read1BFifo+0x24>
		   (xf_setup->rx_cnt < xf_setup->length)) {
1a004368:	68ca      	ldr	r2, [r1, #12]
1a00436a:	690b      	ldr	r3, [r1, #16]
/** SSP macro: read 2 bytes from FIFO buffer */
STATIC void SSP_Read1BFifo(LPC_SSP_T *pSSP, Chip_SSP_DATA_SETUP_T *xf_setup)
{
	uint16_t rDat;

	while ((Chip_SSP_GetStatus(pSSP, SSP_STAT_RNE) == SET) &&
1a00436c:	429a      	cmp	r2, r3
1a00436e:	d3ef      	bcc.n	1a004350 <SSP_Read1BFifo+0x4>
			*(uint8_t *) ((uint32_t) xf_setup->rx_data + xf_setup->rx_cnt) = rDat;
		}

		xf_setup->rx_cnt++;
	}
}
1a004370:	f85d 4b04 	ldr.w	r4, [sp], #4
1a004374:	4770      	bx	lr
1a004376:	bf00      	nop

1a004378 <Chip_SSP_GetClockIndex>:
/* Returns clock index for the register interface */
STATIC CHIP_CCU_CLK_T Chip_SSP_GetClockIndex(LPC_SSP_T *pSSP)
{
	CHIP_CCU_CLK_T clkSSP;

	if (pSSP == LPC_SSP1) {
1a004378:	4b03      	ldr	r3, [pc, #12]	; (1a004388 <Chip_SSP_GetClockIndex+0x10>)
1a00437a:	4298      	cmp	r0, r3
1a00437c:	d101      	bne.n	1a004382 <Chip_SSP_GetClockIndex+0xa>
		clkSSP = CLK_MX_SSP1;
1a00437e:	20a5      	movs	r0, #165	; 0xa5
1a004380:	4770      	bx	lr
	}
	else {
		clkSSP = CLK_MX_SSP0;
1a004382:	2083      	movs	r0, #131	; 0x83
	}

	return clkSSP;
}
1a004384:	4770      	bx	lr
1a004386:	bf00      	nop
1a004388:	400c5000 	.word	0x400c5000

1a00438c <Chip_SSP_GetPeriphClockIndex>:
/* Returns clock index for the peripheral block */
STATIC CHIP_CCU_CLK_T Chip_SSP_GetPeriphClockIndex(LPC_SSP_T *pSSP)
{
	CHIP_CCU_CLK_T clkSSP;

	if (pSSP == LPC_SSP1) {
1a00438c:	4b04      	ldr	r3, [pc, #16]	; (1a0043a0 <Chip_SSP_GetPeriphClockIndex+0x14>)
1a00438e:	4298      	cmp	r0, r3
1a004390:	d102      	bne.n	1a004398 <Chip_SSP_GetPeriphClockIndex+0xc>
		clkSSP = CLK_APB2_SSP1;
1a004392:	f44f 70f1 	mov.w	r0, #482	; 0x1e2
1a004396:	4770      	bx	lr
	}
	else {
		clkSSP = CLK_APB0_SSP0;
1a004398:	f240 2002 	movw	r0, #514	; 0x202
	}

	return clkSSP;
}
1a00439c:	4770      	bx	lr
1a00439e:	bf00      	nop
1a0043a0:	400c5000 	.word	0x400c5000

1a0043a4 <Chip_SSP_SetClockRate>:

/*Set up output clocks per bit for SSP bus*/
void Chip_SSP_SetClockRate(LPC_SSP_T *pSSP, uint32_t clk_rate, uint32_t prescale)
{
	uint32_t temp;
	temp = pSSP->CR0 & (~(SSP_CR0_SCR(0xFF)));
1a0043a4:	6803      	ldr	r3, [r0, #0]
1a0043a6:	f423 437f 	bic.w	r3, r3, #65280	; 0xff00
	pSSP->CR0 = temp | (SSP_CR0_SCR(clk_rate));
1a0043aa:	0209      	lsls	r1, r1, #8
1a0043ac:	b289      	uxth	r1, r1
1a0043ae:	430b      	orrs	r3, r1
1a0043b0:	6003      	str	r3, [r0, #0]
	pSSP->CPSR = prescale;
1a0043b2:	6102      	str	r2, [r0, #16]
1a0043b4:	4770      	bx	lr
1a0043b6:	bf00      	nop

1a0043b8 <Chip_SSP_RWFrames_Blocking>:
}

/* SSP Polling Read/Write in blocking mode */
uint32_t Chip_SSP_RWFrames_Blocking(LPC_SSP_T *pSSP, Chip_SSP_DATA_SETUP_T *xf_setup)
{
1a0043b8:	b538      	push	{r3, r4, r5, lr}
1a0043ba:	4604      	mov	r4, r0
1a0043bc:	460d      	mov	r5, r1
	/* Clear all remaining frames in RX FIFO */
	while (Chip_SSP_GetStatus(pSSP, SSP_STAT_RNE)) {
1a0043be:	e000      	b.n	1a0043c2 <Chip_SSP_RWFrames_Blocking+0xa>
 * @param	pSSP	: The base of SSP peripheral on the chip
 * @return	 SSP 16-bit data received
 */
STATIC INLINE uint16_t Chip_SSP_ReceiveFrame(LPC_SSP_T *pSSP)
{
	return (uint16_t) (SSP_DR_BITMASK(pSSP->DR));
1a0043c0:	68a3      	ldr	r3, [r4, #8]
 *						- SSP_STAT_BSY
 * @return	 SSP controller status, SET or RESET
 */
STATIC INLINE FlagStatus Chip_SSP_GetStatus(LPC_SSP_T *pSSP, SSP_STATUS_T Stat)
{
	return (pSSP->SR & Stat) ? SET : RESET;
1a0043c2:	68e3      	ldr	r3, [r4, #12]
1a0043c4:	f013 0f04 	tst.w	r3, #4
1a0043c8:	d1fa      	bne.n	1a0043c0 <Chip_SSP_RWFrames_Blocking+0x8>
 * @return	 Nothing
 * @note	Software can clear one or more interrupt condition(s) in the SSP controller
 */
STATIC INLINE void Chip_SSP_ClearIntPending(LPC_SSP_T *pSSP, SSP_INTCLEAR_T IntClear)
{
	pSSP->ICR = IntClear;
1a0043ca:	2303      	movs	r3, #3
1a0043cc:	6223      	str	r3, [r4, #32]
 * @return	 the number of bits transferred in each frame minus one
 * @note	The return value is 0x03 -> 0xF corresponding to 4bit -> 16bit transfer
 */
STATIC INLINE uint8_t Chip_SSP_GetDataSize(LPC_SSP_T *pSSP)
{
	return SSP_CR0_DSS(pSSP->CR0);
1a0043ce:	6823      	ldr	r3, [r4, #0]
1a0043d0:	f003 030f 	and.w	r3, r3, #15
	}

	/* Clear status */
	Chip_SSP_ClearIntPending(pSSP, SSP_INT_CLEAR_BITMASK);

	if (Chip_SSP_GetDataSize(pSSP) > SSP_BITS_8) {
1a0043d4:	2b07      	cmp	r3, #7
1a0043d6:	d815      	bhi.n	1a004404 <Chip_SSP_RWFrames_Blocking+0x4c>
1a0043d8:	e031      	b.n	1a00443e <Chip_SSP_RWFrames_Blocking+0x86>
 *						- SSP_STAT_BSY
 * @return	 SSP controller status, SET or RESET
 */
STATIC INLINE FlagStatus Chip_SSP_GetStatus(LPC_SSP_T *pSSP, SSP_STATUS_T Stat)
{
	return (pSSP->SR & Stat) ? SET : RESET;
1a0043da:	68e2      	ldr	r2, [r4, #12]
		while (xf_setup->rx_cnt < xf_setup->length || xf_setup->tx_cnt < xf_setup->length) {
			/* write data to buffer */
			if (( Chip_SSP_GetStatus(pSSP, SSP_STAT_TNF) == SET) && ( xf_setup->tx_cnt < xf_setup->length) ) {
1a0043dc:	f012 0f02 	tst.w	r2, #2
1a0043e0:	d006      	beq.n	1a0043f0 <Chip_SSP_RWFrames_Blocking+0x38>
1a0043e2:	686a      	ldr	r2, [r5, #4]
1a0043e4:	4293      	cmp	r3, r2
1a0043e6:	d903      	bls.n	1a0043f0 <Chip_SSP_RWFrames_Blocking+0x38>
				SSP_Write2BFifo(pSSP, xf_setup);
1a0043e8:	4620      	mov	r0, r4
1a0043ea:	4629      	mov	r1, r5
1a0043ec:	f7ff ff7e 	bl	1a0042ec <SSP_Write2BFifo>
 * @return	 Raw interrupt status corresponding to interrupt condition , SET or RESET
 * @note	Get the status of each interrupt condition ,regardless of whether or not the interrupt is enabled
 */
STATIC INLINE IntStatus Chip_SSP_GetRawIntStatus(LPC_SSP_T *pSSP, SSP_RAWINTSTATUS_T RawInt)
{
	return (pSSP->RIS & RawInt) ? SET : RESET;
1a0043f0:	69a3      	ldr	r3, [r4, #24]
1a0043f2:	f003 0301 	and.w	r3, r3, #1
			}

			/* Check overrun error */
			if (Chip_SSP_GetRawIntStatus(pSSP, SSP_RORRIS) == SET) {
1a0043f6:	f013 0fff 	tst.w	r3, #255	; 0xff
1a0043fa:	d12f      	bne.n	1a00445c <Chip_SSP_RWFrames_Blocking+0xa4>
				return ERROR;
			}

			/* Check for any data available in RX FIFO */
			SSP_Read2BFifo(pSSP, xf_setup);
1a0043fc:	4620      	mov	r0, r4
1a0043fe:	4629      	mov	r1, r5
1a004400:	f7ff ff8e 	bl	1a004320 <SSP_Read2BFifo>

	/* Clear status */
	Chip_SSP_ClearIntPending(pSSP, SSP_INT_CLEAR_BITMASK);

	if (Chip_SSP_GetDataSize(pSSP) > SSP_BITS_8) {
		while (xf_setup->rx_cnt < xf_setup->length || xf_setup->tx_cnt < xf_setup->length) {
1a004404:	68ea      	ldr	r2, [r5, #12]
1a004406:	692b      	ldr	r3, [r5, #16]
1a004408:	429a      	cmp	r2, r3
1a00440a:	d3e6      	bcc.n	1a0043da <Chip_SSP_RWFrames_Blocking+0x22>
1a00440c:	686a      	ldr	r2, [r5, #4]
1a00440e:	4293      	cmp	r3, r2
1a004410:	d8e3      	bhi.n	1a0043da <Chip_SSP_RWFrames_Blocking+0x22>
1a004412:	e01b      	b.n	1a00444c <Chip_SSP_RWFrames_Blocking+0x94>
 *						- SSP_STAT_BSY
 * @return	 SSP controller status, SET or RESET
 */
STATIC INLINE FlagStatus Chip_SSP_GetStatus(LPC_SSP_T *pSSP, SSP_STATUS_T Stat)
{
	return (pSSP->SR & Stat) ? SET : RESET;
1a004414:	68e2      	ldr	r2, [r4, #12]
		}
	}
	else {
		while (xf_setup->rx_cnt < xf_setup->length || xf_setup->tx_cnt < xf_setup->length) {
			/* write data to buffer */
			if (( Chip_SSP_GetStatus(pSSP, SSP_STAT_TNF) == SET) && ( xf_setup->tx_cnt < xf_setup->length) ) {
1a004416:	f012 0f02 	tst.w	r2, #2
1a00441a:	d006      	beq.n	1a00442a <Chip_SSP_RWFrames_Blocking+0x72>
1a00441c:	686a      	ldr	r2, [r5, #4]
1a00441e:	4293      	cmp	r3, r2
1a004420:	d903      	bls.n	1a00442a <Chip_SSP_RWFrames_Blocking+0x72>
				SSP_Write1BFifo(pSSP, xf_setup);
1a004422:	4620      	mov	r0, r4
1a004424:	4629      	mov	r1, r5
1a004426:	f7ff ff6f 	bl	1a004308 <SSP_Write1BFifo>
 * @return	 Raw interrupt status corresponding to interrupt condition , SET or RESET
 * @note	Get the status of each interrupt condition ,regardless of whether or not the interrupt is enabled
 */
STATIC INLINE IntStatus Chip_SSP_GetRawIntStatus(LPC_SSP_T *pSSP, SSP_RAWINTSTATUS_T RawInt)
{
	return (pSSP->RIS & RawInt) ? SET : RESET;
1a00442a:	69a3      	ldr	r3, [r4, #24]
1a00442c:	f003 0301 	and.w	r3, r3, #1
			}

			/* Check overrun error */
			if (Chip_SSP_GetRawIntStatus(pSSP, SSP_RORRIS) == SET) {
1a004430:	f013 0fff 	tst.w	r3, #255	; 0xff
1a004434:	d114      	bne.n	1a004460 <Chip_SSP_RWFrames_Blocking+0xa8>
				return ERROR;
			}

			/* Check for any data available in RX FIFO */
			SSP_Read1BFifo(pSSP, xf_setup);
1a004436:	4620      	mov	r0, r4
1a004438:	4629      	mov	r1, r5
1a00443a:	f7ff ff87 	bl	1a00434c <SSP_Read1BFifo>
			/* Check for any data available in RX FIFO */
			SSP_Read2BFifo(pSSP, xf_setup);
		}
	}
	else {
		while (xf_setup->rx_cnt < xf_setup->length || xf_setup->tx_cnt < xf_setup->length) {
1a00443e:	68ea      	ldr	r2, [r5, #12]
1a004440:	692b      	ldr	r3, [r5, #16]
1a004442:	429a      	cmp	r2, r3
1a004444:	d3e6      	bcc.n	1a004414 <Chip_SSP_RWFrames_Blocking+0x5c>
1a004446:	686a      	ldr	r2, [r5, #4]
1a004448:	4293      	cmp	r3, r2
1a00444a:	d8e3      	bhi.n	1a004414 <Chip_SSP_RWFrames_Blocking+0x5c>

			/* Check for any data available in RX FIFO */
			SSP_Read1BFifo(pSSP, xf_setup);
		}
	}
	if (xf_setup->tx_data) {
1a00444c:	682b      	ldr	r3, [r5, #0]
1a00444e:	b10b      	cbz	r3, 1a004454 <Chip_SSP_RWFrames_Blocking+0x9c>
		return xf_setup->tx_cnt;
1a004450:	6868      	ldr	r0, [r5, #4]
1a004452:	bd38      	pop	{r3, r4, r5, pc}
	}
	else if (xf_setup->rx_data) {
1a004454:	68ab      	ldr	r3, [r5, #8]
1a004456:	b12b      	cbz	r3, 1a004464 <Chip_SSP_RWFrames_Blocking+0xac>
		return xf_setup->rx_cnt;
1a004458:	68e8      	ldr	r0, [r5, #12]
1a00445a:	bd38      	pop	{r3, r4, r5, pc}
				SSP_Write2BFifo(pSSP, xf_setup);
			}

			/* Check overrun error */
			if (Chip_SSP_GetRawIntStatus(pSSP, SSP_RORRIS) == SET) {
				return ERROR;
1a00445c:	2000      	movs	r0, #0
1a00445e:	bd38      	pop	{r3, r4, r5, pc}
				SSP_Write1BFifo(pSSP, xf_setup);
			}

			/* Check overrun error */
			if (Chip_SSP_GetRawIntStatus(pSSP, SSP_RORRIS) == SET) {
				return ERROR;
1a004460:	2000      	movs	r0, #0
1a004462:	bd38      	pop	{r3, r4, r5, pc}
	}
	else if (xf_setup->rx_data) {
		return xf_setup->rx_cnt;
	}

	return 0;
1a004464:	2000      	movs	r0, #0
}
1a004466:	bd38      	pop	{r3, r4, r5, pc}

1a004468 <Chip_SSP_SetBitRate>:
	}
}

/* Set the clock frequency for SSP interface */
void Chip_SSP_SetBitRate(LPC_SSP_T *pSSP, uint32_t bitRate)
{
1a004468:	b570      	push	{r4, r5, r6, lr}
1a00446a:	4606      	mov	r6, r0
1a00446c:	460d      	mov	r5, r1
	uint32_t ssp_clk, cr0_div, cmp_clk, prescale;

	ssp_clk = Chip_Clock_GetRate(Chip_SSP_GetPeriphClockIndex(pSSP));
1a00446e:	f7ff ff8d 	bl	1a00438c <Chip_SSP_GetPeriphClockIndex>
1a004472:	f7ff fdbd 	bl	1a003ff0 <Chip_Clock_GetRate>

	cr0_div = 0;
	cmp_clk = 0xFFFFFFFF;
	prescale = 2;
1a004476:	2202      	movs	r2, #2
	uint32_t ssp_clk, cr0_div, cmp_clk, prescale;

	ssp_clk = Chip_Clock_GetRate(Chip_SSP_GetPeriphClockIndex(pSSP));

	cr0_div = 0;
	cmp_clk = 0xFFFFFFFF;
1a004478:	f04f 33ff 	mov.w	r3, #4294967295	; 0xffffffff
{
	uint32_t ssp_clk, cr0_div, cmp_clk, prescale;

	ssp_clk = Chip_Clock_GetRate(Chip_SSP_GetPeriphClockIndex(pSSP));

	cr0_div = 0;
1a00447c:	2100      	movs	r1, #0
	cmp_clk = 0xFFFFFFFF;
	prescale = 2;

	while (cmp_clk > bitRate) {
1a00447e:	e00c      	b.n	1a00449a <Chip_SSP_SetBitRate+0x32>
		cmp_clk = ssp_clk / ((cr0_div + 1) * prescale);
1a004480:	1c4c      	adds	r4, r1, #1
1a004482:	fb02 f304 	mul.w	r3, r2, r4
1a004486:	fbb0 f3f3 	udiv	r3, r0, r3
		if (cmp_clk > bitRate) {
1a00448a:	42ab      	cmp	r3, r5
1a00448c:	d905      	bls.n	1a00449a <Chip_SSP_SetBitRate+0x32>
			cr0_div++;
			if (cr0_div > 0xFF) {
1a00448e:	2cff      	cmp	r4, #255	; 0xff
1a004490:	d902      	bls.n	1a004498 <Chip_SSP_SetBitRate+0x30>
				cr0_div = 0;
				prescale += 2;
1a004492:	3202      	adds	r2, #2
	while (cmp_clk > bitRate) {
		cmp_clk = ssp_clk / ((cr0_div + 1) * prescale);
		if (cmp_clk > bitRate) {
			cr0_div++;
			if (cr0_div > 0xFF) {
				cr0_div = 0;
1a004494:	2100      	movs	r1, #0
1a004496:	e000      	b.n	1a00449a <Chip_SSP_SetBitRate+0x32>
	prescale = 2;

	while (cmp_clk > bitRate) {
		cmp_clk = ssp_clk / ((cr0_div + 1) * prescale);
		if (cmp_clk > bitRate) {
			cr0_div++;
1a004498:	4621      	mov	r1, r4

	cr0_div = 0;
	cmp_clk = 0xFFFFFFFF;
	prescale = 2;

	while (cmp_clk > bitRate) {
1a00449a:	42ab      	cmp	r3, r5
1a00449c:	d8f0      	bhi.n	1a004480 <Chip_SSP_SetBitRate+0x18>
				prescale += 2;
			}
		}
	}

	Chip_SSP_SetClockRate(pSSP, cr0_div, prescale);
1a00449e:	4630      	mov	r0, r6
1a0044a0:	f7ff ff80 	bl	1a0043a4 <Chip_SSP_SetClockRate>
1a0044a4:	bd70      	pop	{r4, r5, r6, pc}
1a0044a6:	bf00      	nop

1a0044a8 <Chip_SSP_Init>:
}

/* Initialize the SSP */
void Chip_SSP_Init(LPC_SSP_T *pSSP)
{
1a0044a8:	b510      	push	{r4, lr}
1a0044aa:	4604      	mov	r4, r0
	Chip_Clock_Enable(Chip_SSP_GetClockIndex(pSSP));
1a0044ac:	f7ff ff64 	bl	1a004378 <Chip_SSP_GetClockIndex>
1a0044b0:	f7ff fd5e 	bl	1a003f70 <Chip_Clock_Enable>
	Chip_Clock_Enable(Chip_SSP_GetPeriphClockIndex(pSSP));
1a0044b4:	4620      	mov	r0, r4
1a0044b6:	f7ff ff69 	bl	1a00438c <Chip_SSP_GetPeriphClockIndex>
1a0044ba:	f7ff fd59 	bl	1a003f70 <Chip_Clock_Enable>
 *						- SSP_MODE_SLAVE
 * @return	 Nothing
 */
STATIC INLINE void Chip_SSP_Set_Mode(LPC_SSP_T *pSSP, uint32_t mode)
{
	pSSP->CR1 = (pSSP->CR1 & ~(1 << 2)) | mode;
1a0044be:	6863      	ldr	r3, [r4, #4]
1a0044c0:	f023 0304 	bic.w	r3, r3, #4
1a0044c4:	6063      	str	r3, [r4, #4]
 * @return	 Nothing
 * @note	Note: The clockFormat is only used in SPI mode
 */
STATIC INLINE void Chip_SSP_SetFormat(LPC_SSP_T *pSSP, uint32_t bits, uint32_t frameFormat, uint32_t clockMode)
{
	pSSP->CR0 = (pSSP->CR0 & ~0xFF) | bits | frameFormat | clockMode;
1a0044c6:	6823      	ldr	r3, [r4, #0]
1a0044c8:	f023 03ff 	bic.w	r3, r3, #255	; 0xff
1a0044cc:	f043 0307 	orr.w	r3, r3, #7
1a0044d0:	6023      	str	r3, [r4, #0]

	Chip_SSP_Set_Mode(pSSP, SSP_MODE_MASTER);
	Chip_SSP_SetFormat(pSSP, SSP_BITS_8, SSP_FRAMEFORMAT_SPI, SSP_CLOCK_CPHA0_CPOL0);
	Chip_SSP_SetBitRate(pSSP, 100000);
1a0044d2:	4620      	mov	r0, r4
1a0044d4:	4901      	ldr	r1, [pc, #4]	; (1a0044dc <Chip_SSP_Init+0x34>)
1a0044d6:	f7ff ffc7 	bl	1a004468 <Chip_SSP_SetBitRate>
1a0044da:	bd10      	pop	{r4, pc}
1a0044dc:	000186a0 	.word	0x000186a0

1a0044e0 <ResetISR>:
// not debug) by setting the define 'DONT_RESET_ON_RESTART'.
//
#ifndef DONT_RESET_ON_RESTART

    // Disable interrupts
    __asm volatile ("cpsid i");
1a0044e0:	b672      	cpsid	i
    // Note that we do not use the CMSIS register access mechanism,
    // as there is no guarantee that the project has been configured
    // to use CMSIS.

    // Write to LPC_RGU->RESET_CTRL0
    *(RESET_CONTROL + 0) = 0x10DF1000;
1a0044e2:	4a19      	ldr	r2, [pc, #100]	; (1a004548 <ResetISR+0x68>)
1a0044e4:	4b19      	ldr	r3, [pc, #100]	; (1a00454c <ResetISR+0x6c>)
1a0044e6:	601a      	str	r2, [r3, #0]
    // GPIO_RST|AES_RST|ETHERNET_RST|SDIO_RST|DMA_RST|
    // USB1_RST|USB0_RST|LCD_RST|M0_SUB_RST

    // Write to LPC_RGU->RESET_CTRL1
    *(RESET_CONTROL + 1) = 0x01DFF7FF;
1a0044e8:	4a19      	ldr	r2, [pc, #100]	; (1a004550 <ResetISR+0x70>)
1a0044ea:	3304      	adds	r3, #4
1a0044ec:	601a      	str	r2, [r3, #0]
    // RITIMER_RST|TIMER3_RST|TIMER2_RST|TIMER1_RST|TIMER0_RST

    // Clear all pending interrupts in the NVIC
    volatile unsigned int *NVIC_ICPR = (unsigned int *) 0xE000E280;
    unsigned int irqpendloop;
    for (irqpendloop = 0; irqpendloop < 8; irqpendloop++) {
1a0044ee:	2300      	movs	r3, #0
1a0044f0:	e005      	b.n	1a0044fe <ResetISR+0x1e>
        *(NVIC_ICPR + irqpendloop) = 0xFFFFFFFF;
1a0044f2:	f04f 31ff 	mov.w	r1, #4294967295	; 0xffffffff
1a0044f6:	4a17      	ldr	r2, [pc, #92]	; (1a004554 <ResetISR+0x74>)
1a0044f8:	f842 1023 	str.w	r1, [r2, r3, lsl #2]
    // RITIMER_RST|TIMER3_RST|TIMER2_RST|TIMER1_RST|TIMER0_RST

    // Clear all pending interrupts in the NVIC
    volatile unsigned int *NVIC_ICPR = (unsigned int *) 0xE000E280;
    unsigned int irqpendloop;
    for (irqpendloop = 0; irqpendloop < 8; irqpendloop++) {
1a0044fc:	3301      	adds	r3, #1
1a0044fe:	2b07      	cmp	r3, #7
1a004500:	d9f7      	bls.n	1a0044f2 <ResetISR+0x12>
// Reset entry point for your code.
// Sets up a simple runtime environment and initializes the C/C++
// library.
//
//*****************************************************************************
void ResetISR(void) {
1a004502:	b510      	push	{r4, lr}
    for (irqpendloop = 0; irqpendloop < 8; irqpendloop++) {
        *(NVIC_ICPR + irqpendloop) = 0xFFFFFFFF;
    }

    // Reenable interrupts
    __asm volatile ("cpsie i");
1a004504:	b662      	cpsie	i

#endif  // ifndef DONT_RESET_ON_RESTART
// *************************************************************

#if defined (__USE_LPCOPEN)
    SystemInit();
1a004506:	f7ff f85b 	bl	1a0035c0 <SystemInit>
    //
    unsigned int LoadAddr, ExeAddr, SectionLen;
    unsigned int *SectionTableAddr;

    // Load base address of Global Section Table
    SectionTableAddr = &__data_section_table;
1a00450a:	4b13      	ldr	r3, [pc, #76]	; (1a004558 <ResetISR+0x78>)

    // Copy the data sections from flash to SRAM.
    while (SectionTableAddr < &__data_section_table_end) {
1a00450c:	e007      	b.n	1a00451e <ResetISR+0x3e>
        LoadAddr = *SectionTableAddr++;
        ExeAddr = *SectionTableAddr++;
        SectionLen = *SectionTableAddr++;
1a00450e:	f103 040c 	add.w	r4, r3, #12
        data_init(LoadAddr, ExeAddr, SectionLen);
1a004512:	6818      	ldr	r0, [r3, #0]
1a004514:	6859      	ldr	r1, [r3, #4]
1a004516:	689a      	ldr	r2, [r3, #8]
1a004518:	f7fb fe48 	bl	1a0001ac <data_init>

    // Copy the data sections from flash to SRAM.
    while (SectionTableAddr < &__data_section_table_end) {
        LoadAddr = *SectionTableAddr++;
        ExeAddr = *SectionTableAddr++;
        SectionLen = *SectionTableAddr++;
1a00451c:	4623      	mov	r3, r4

    // Load base address of Global Section Table
    SectionTableAddr = &__data_section_table;

    // Copy the data sections from flash to SRAM.
    while (SectionTableAddr < &__data_section_table_end) {
1a00451e:	4a0f      	ldr	r2, [pc, #60]	; (1a00455c <ResetISR+0x7c>)
1a004520:	4293      	cmp	r3, r2
1a004522:	d3f4      	bcc.n	1a00450e <ResetISR+0x2e>
1a004524:	e006      	b.n	1a004534 <ResetISR+0x54>
        data_init(LoadAddr, ExeAddr, SectionLen);
    }
    // At this point, SectionTableAddr = &__bss_section_table;
    // Zero fill the bss segment
    while (SectionTableAddr < &__bss_section_table_end) {
        ExeAddr = *SectionTableAddr++;
1a004526:	461c      	mov	r4, r3
        SectionLen = *SectionTableAddr++;
        bss_init(ExeAddr, SectionLen);
1a004528:	f854 0b08 	ldr.w	r0, [r4], #8
1a00452c:	6859      	ldr	r1, [r3, #4]
1a00452e:	f7fb fe4b 	bl	1a0001c8 <bss_init>
    }
    // At this point, SectionTableAddr = &__bss_section_table;
    // Zero fill the bss segment
    while (SectionTableAddr < &__bss_section_table_end) {
        ExeAddr = *SectionTableAddr++;
        SectionLen = *SectionTableAddr++;
1a004532:	4623      	mov	r3, r4
        SectionLen = *SectionTableAddr++;
        data_init(LoadAddr, ExeAddr, SectionLen);
    }
    // At this point, SectionTableAddr = &__bss_section_table;
    // Zero fill the bss segment
    while (SectionTableAddr < &__bss_section_table_end) {
1a004534:	4a0a      	ldr	r2, [pc, #40]	; (1a004560 <ResetISR+0x80>)
1a004536:	4293      	cmp	r3, r2
1a004538:	d3f5      	bcc.n	1a004526 <ResetISR+0x46>

#if defined (__USE_CMSIS)
    SystemInit();
#endif

    __libc_init_array();
1a00453a:	f000 faff 	bl	1a004b3c <__libc_init_array>

#if defined (__REDLIB__)
    // Call the Redlib library, which in turn calls main()
    __main();
#else
    Board_Init(); // From Board module (modules/lpc4337_m4/board)
1a00453e:	f7ff f821 	bl	1a003584 <Board_Init>
    main();
1a004542:	f7fc fba3 	bl	1a000c8c <main>
    //
    // main() shouldn't return, but if it does, we'll just enter an infinite loop
    //
    while (1) {
        ;
    }
1a004546:	e7fe      	b.n	1a004546 <ResetISR+0x66>
1a004548:	10df1000 	.word	0x10df1000
1a00454c:	40053100 	.word	0x40053100
1a004550:	01dff7ff 	.word	0x01dff7ff
1a004554:	e000e280 	.word	0xe000e280
1a004558:	1a000114 	.word	0x1a000114
1a00455c:	1a000150 	.word	0x1a000150
1a004560:	1a000178 	.word	0x1a000178

1a004564 <_init>:
    unsigned int loop;
    for (loop = 0; loop < len; loop = loop + 4)
        *pulDest++ = 0;
}

void _init(void) {}
1a004564:	4770      	bx	lr
1a004566:	bf00      	nop

1a004568 <__aeabi_ldivmod>:
1a004568:	b97b      	cbnz	r3, 1a00458a <__aeabi_ldivmod+0x22>
1a00456a:	b972      	cbnz	r2, 1a00458a <__aeabi_ldivmod+0x22>
1a00456c:	2900      	cmp	r1, #0
1a00456e:	bfbe      	ittt	lt
1a004570:	2000      	movlt	r0, #0
1a004572:	f04f 4100 	movlt.w	r1, #2147483648	; 0x80000000
1a004576:	e006      	blt.n	1a004586 <__aeabi_ldivmod+0x1e>
1a004578:	bf08      	it	eq
1a00457a:	2800      	cmpeq	r0, #0
1a00457c:	bf1c      	itt	ne
1a00457e:	f06f 4100 	mvnne.w	r1, #2147483648	; 0x80000000
1a004582:	f04f 30ff 	movne.w	r0, #4294967295	; 0xffffffff
1a004586:	f000 b853 	b.w	1a004630 <__aeabi_idiv0>
1a00458a:	b082      	sub	sp, #8
1a00458c:	46ec      	mov	ip, sp
1a00458e:	e92d 5000 	stmdb	sp!, {ip, lr}
1a004592:	f000 f81d 	bl	1a0045d0 <__gnu_ldivmod_helper>
1a004596:	f8dd e004 	ldr.w	lr, [sp, #4]
1a00459a:	b002      	add	sp, #8
1a00459c:	bc0c      	pop	{r2, r3}
1a00459e:	4770      	bx	lr

1a0045a0 <__aeabi_uldivmod>:
1a0045a0:	b953      	cbnz	r3, 1a0045b8 <__aeabi_uldivmod+0x18>
1a0045a2:	b94a      	cbnz	r2, 1a0045b8 <__aeabi_uldivmod+0x18>
1a0045a4:	2900      	cmp	r1, #0
1a0045a6:	bf08      	it	eq
1a0045a8:	2800      	cmpeq	r0, #0
1a0045aa:	bf1c      	itt	ne
1a0045ac:	f04f 31ff 	movne.w	r1, #4294967295	; 0xffffffff
1a0045b0:	f04f 30ff 	movne.w	r0, #4294967295	; 0xffffffff
1a0045b4:	f000 b83c 	b.w	1a004630 <__aeabi_idiv0>
1a0045b8:	b082      	sub	sp, #8
1a0045ba:	46ec      	mov	ip, sp
1a0045bc:	e92d 5000 	stmdb	sp!, {ip, lr}
1a0045c0:	f000 f81e 	bl	1a004600 <__gnu_uldivmod_helper>
1a0045c4:	f8dd e004 	ldr.w	lr, [sp, #4]
1a0045c8:	b002      	add	sp, #8
1a0045ca:	bc0c      	pop	{r2, r3}
1a0045cc:	4770      	bx	lr
1a0045ce:	bf00      	nop

1a0045d0 <__gnu_ldivmod_helper>:
1a0045d0:	e92d 41f0 	stmdb	sp!, {r4, r5, r6, r7, r8, lr}
1a0045d4:	9c06      	ldr	r4, [sp, #24]
1a0045d6:	4615      	mov	r5, r2
1a0045d8:	4606      	mov	r6, r0
1a0045da:	460f      	mov	r7, r1
1a0045dc:	4698      	mov	r8, r3
1a0045de:	f000 f829 	bl	1a004634 <__divdi3>
1a0045e2:	fb05 f301 	mul.w	r3, r5, r1
1a0045e6:	fb00 3808 	mla	r8, r0, r8, r3
1a0045ea:	fba5 2300 	umull	r2, r3, r5, r0
1a0045ee:	1ab2      	subs	r2, r6, r2
1a0045f0:	4443      	add	r3, r8
1a0045f2:	eb67 0303 	sbc.w	r3, r7, r3
1a0045f6:	e9c4 2300 	strd	r2, r3, [r4]
1a0045fa:	e8bd 81f0 	ldmia.w	sp!, {r4, r5, r6, r7, r8, pc}
1a0045fe:	bf00      	nop

1a004600 <__gnu_uldivmod_helper>:
1a004600:	e92d 41f0 	stmdb	sp!, {r4, r5, r6, r7, r8, lr}
1a004604:	9c06      	ldr	r4, [sp, #24]
1a004606:	4690      	mov	r8, r2
1a004608:	4606      	mov	r6, r0
1a00460a:	460f      	mov	r7, r1
1a00460c:	461d      	mov	r5, r3
1a00460e:	f000 f95f 	bl	1a0048d0 <__udivdi3>
1a004612:	fb00 f505 	mul.w	r5, r0, r5
1a004616:	fba0 2308 	umull	r2, r3, r0, r8
1a00461a:	fb08 5501 	mla	r5, r8, r1, r5
1a00461e:	1ab2      	subs	r2, r6, r2
1a004620:	442b      	add	r3, r5
1a004622:	eb67 0303 	sbc.w	r3, r7, r3
1a004626:	e9c4 2300 	strd	r2, r3, [r4]
1a00462a:	e8bd 81f0 	ldmia.w	sp!, {r4, r5, r6, r7, r8, pc}
1a00462e:	bf00      	nop

1a004630 <__aeabi_idiv0>:
1a004630:	4770      	bx	lr
1a004632:	bf00      	nop

1a004634 <__divdi3>:
1a004634:	2900      	cmp	r1, #0
1a004636:	e92d 43f0 	stmdb	sp!, {r4, r5, r6, r7, r8, r9, lr}
1a00463a:	f2c0 80a6 	blt.w	1a00478a <__divdi3+0x156>
1a00463e:	2600      	movs	r6, #0
1a004640:	2b00      	cmp	r3, #0
1a004642:	f2c0 809c 	blt.w	1a00477e <__divdi3+0x14a>
1a004646:	4688      	mov	r8, r1
1a004648:	4694      	mov	ip, r2
1a00464a:	469e      	mov	lr, r3
1a00464c:	4615      	mov	r5, r2
1a00464e:	4604      	mov	r4, r0
1a004650:	460f      	mov	r7, r1
1a004652:	2b00      	cmp	r3, #0
1a004654:	d13d      	bne.n	1a0046d2 <__divdi3+0x9e>
1a004656:	428a      	cmp	r2, r1
1a004658:	d959      	bls.n	1a00470e <__divdi3+0xda>
1a00465a:	fab2 f382 	clz	r3, r2
1a00465e:	b13b      	cbz	r3, 1a004670 <__divdi3+0x3c>
1a004660:	f1c3 0220 	rsb	r2, r3, #32
1a004664:	409f      	lsls	r7, r3
1a004666:	fa20 f202 	lsr.w	r2, r0, r2
1a00466a:	409d      	lsls	r5, r3
1a00466c:	4317      	orrs	r7, r2
1a00466e:	409c      	lsls	r4, r3
1a004670:	0c29      	lsrs	r1, r5, #16
1a004672:	0c22      	lsrs	r2, r4, #16
1a004674:	fbb7 fef1 	udiv	lr, r7, r1
1a004678:	b2a8      	uxth	r0, r5
1a00467a:	fb01 771e 	mls	r7, r1, lr, r7
1a00467e:	ea42 4707 	orr.w	r7, r2, r7, lsl #16
1a004682:	fb00 f30e 	mul.w	r3, r0, lr
1a004686:	42bb      	cmp	r3, r7
1a004688:	d90a      	bls.n	1a0046a0 <__divdi3+0x6c>
1a00468a:	197f      	adds	r7, r7, r5
1a00468c:	f10e 32ff 	add.w	r2, lr, #4294967295	; 0xffffffff
1a004690:	f080 8105 	bcs.w	1a00489e <__divdi3+0x26a>
1a004694:	42bb      	cmp	r3, r7
1a004696:	f240 8102 	bls.w	1a00489e <__divdi3+0x26a>
1a00469a:	f1ae 0e02 	sub.w	lr, lr, #2
1a00469e:	442f      	add	r7, r5
1a0046a0:	1aff      	subs	r7, r7, r3
1a0046a2:	b2a4      	uxth	r4, r4
1a0046a4:	fbb7 f3f1 	udiv	r3, r7, r1
1a0046a8:	fb01 7713 	mls	r7, r1, r3, r7
1a0046ac:	ea44 4707 	orr.w	r7, r4, r7, lsl #16
1a0046b0:	fb00 f003 	mul.w	r0, r0, r3
1a0046b4:	42b8      	cmp	r0, r7
1a0046b6:	d908      	bls.n	1a0046ca <__divdi3+0x96>
1a0046b8:	197f      	adds	r7, r7, r5
1a0046ba:	f103 32ff 	add.w	r2, r3, #4294967295	; 0xffffffff
1a0046be:	f080 80f0 	bcs.w	1a0048a2 <__divdi3+0x26e>
1a0046c2:	42b8      	cmp	r0, r7
1a0046c4:	f240 80ed 	bls.w	1a0048a2 <__divdi3+0x26e>
1a0046c8:	3b02      	subs	r3, #2
1a0046ca:	ea43 430e 	orr.w	r3, r3, lr, lsl #16
1a0046ce:	2200      	movs	r2, #0
1a0046d0:	e003      	b.n	1a0046da <__divdi3+0xa6>
1a0046d2:	428b      	cmp	r3, r1
1a0046d4:	d90f      	bls.n	1a0046f6 <__divdi3+0xc2>
1a0046d6:	2200      	movs	r2, #0
1a0046d8:	4613      	mov	r3, r2
1a0046da:	1c34      	adds	r4, r6, #0
1a0046dc:	bf18      	it	ne
1a0046de:	2401      	movne	r4, #1
1a0046e0:	4260      	negs	r0, r4
1a0046e2:	f04f 0500 	mov.w	r5, #0
1a0046e6:	eb65 0145 	sbc.w	r1, r5, r5, lsl #1
1a0046ea:	4058      	eors	r0, r3
1a0046ec:	4051      	eors	r1, r2
1a0046ee:	1900      	adds	r0, r0, r4
1a0046f0:	4169      	adcs	r1, r5
1a0046f2:	e8bd 83f0 	ldmia.w	sp!, {r4, r5, r6, r7, r8, r9, pc}
1a0046f6:	fab3 f283 	clz	r2, r3
1a0046fa:	2a00      	cmp	r2, #0
1a0046fc:	f040 8086 	bne.w	1a00480c <__divdi3+0x1d8>
1a004700:	428b      	cmp	r3, r1
1a004702:	d302      	bcc.n	1a00470a <__divdi3+0xd6>
1a004704:	4584      	cmp	ip, r0
1a004706:	f200 80db 	bhi.w	1a0048c0 <__divdi3+0x28c>
1a00470a:	2301      	movs	r3, #1
1a00470c:	e7e5      	b.n	1a0046da <__divdi3+0xa6>
1a00470e:	b912      	cbnz	r2, 1a004716 <__divdi3+0xe2>
1a004710:	2301      	movs	r3, #1
1a004712:	fbb3 f5f2 	udiv	r5, r3, r2
1a004716:	fab5 f085 	clz	r0, r5
1a00471a:	2800      	cmp	r0, #0
1a00471c:	d13b      	bne.n	1a004796 <__divdi3+0x162>
1a00471e:	1b78      	subs	r0, r7, r5
1a004720:	ea4f 4e15 	mov.w	lr, r5, lsr #16
1a004724:	fa1f fc85 	uxth.w	ip, r5
1a004728:	2201      	movs	r2, #1
1a00472a:	fbb0 f8fe 	udiv	r8, r0, lr
1a00472e:	0c21      	lsrs	r1, r4, #16
1a004730:	fb0e 0718 	mls	r7, lr, r8, r0
1a004734:	ea41 4707 	orr.w	r7, r1, r7, lsl #16
1a004738:	fb0c f308 	mul.w	r3, ip, r8
1a00473c:	42bb      	cmp	r3, r7
1a00473e:	d907      	bls.n	1a004750 <__divdi3+0x11c>
1a004740:	197f      	adds	r7, r7, r5
1a004742:	f108 31ff 	add.w	r1, r8, #4294967295	; 0xffffffff
1a004746:	d202      	bcs.n	1a00474e <__divdi3+0x11a>
1a004748:	42bb      	cmp	r3, r7
1a00474a:	f200 80bd 	bhi.w	1a0048c8 <__divdi3+0x294>
1a00474e:	4688      	mov	r8, r1
1a004750:	1aff      	subs	r7, r7, r3
1a004752:	b2a4      	uxth	r4, r4
1a004754:	fbb7 f3fe 	udiv	r3, r7, lr
1a004758:	fb0e 7713 	mls	r7, lr, r3, r7
1a00475c:	ea44 4707 	orr.w	r7, r4, r7, lsl #16
1a004760:	fb0c fc03 	mul.w	ip, ip, r3
1a004764:	45bc      	cmp	ip, r7
1a004766:	d907      	bls.n	1a004778 <__divdi3+0x144>
1a004768:	197f      	adds	r7, r7, r5
1a00476a:	f103 31ff 	add.w	r1, r3, #4294967295	; 0xffffffff
1a00476e:	d202      	bcs.n	1a004776 <__divdi3+0x142>
1a004770:	45bc      	cmp	ip, r7
1a004772:	f200 80a7 	bhi.w	1a0048c4 <__divdi3+0x290>
1a004776:	460b      	mov	r3, r1
1a004778:	ea43 4308 	orr.w	r3, r3, r8, lsl #16
1a00477c:	e7ad      	b.n	1a0046da <__divdi3+0xa6>
1a00477e:	4252      	negs	r2, r2
1a004780:	ea6f 0606 	mvn.w	r6, r6
1a004784:	eb63 0343 	sbc.w	r3, r3, r3, lsl #1
1a004788:	e75d      	b.n	1a004646 <__divdi3+0x12>
1a00478a:	4240      	negs	r0, r0
1a00478c:	eb61 0141 	sbc.w	r1, r1, r1, lsl #1
1a004790:	f04f 36ff 	mov.w	r6, #4294967295	; 0xffffffff
1a004794:	e754      	b.n	1a004640 <__divdi3+0xc>
1a004796:	f1c0 0220 	rsb	r2, r0, #32
1a00479a:	fa24 f102 	lsr.w	r1, r4, r2
1a00479e:	fa07 f300 	lsl.w	r3, r7, r0
1a0047a2:	4085      	lsls	r5, r0
1a0047a4:	ea4f 4e15 	mov.w	lr, r5, lsr #16
1a0047a8:	40d7      	lsrs	r7, r2
1a0047aa:	4319      	orrs	r1, r3
1a0047ac:	fbb7 f2fe 	udiv	r2, r7, lr
1a0047b0:	0c0b      	lsrs	r3, r1, #16
1a0047b2:	fb0e 7712 	mls	r7, lr, r2, r7
1a0047b6:	fa1f fc85 	uxth.w	ip, r5
1a0047ba:	ea43 4307 	orr.w	r3, r3, r7, lsl #16
1a0047be:	fb0c f702 	mul.w	r7, ip, r2
1a0047c2:	429f      	cmp	r7, r3
1a0047c4:	fa04 f400 	lsl.w	r4, r4, r0
1a0047c8:	d907      	bls.n	1a0047da <__divdi3+0x1a6>
1a0047ca:	195b      	adds	r3, r3, r5
1a0047cc:	f102 30ff 	add.w	r0, r2, #4294967295	; 0xffffffff
1a0047d0:	d274      	bcs.n	1a0048bc <__divdi3+0x288>
1a0047d2:	429f      	cmp	r7, r3
1a0047d4:	d972      	bls.n	1a0048bc <__divdi3+0x288>
1a0047d6:	3a02      	subs	r2, #2
1a0047d8:	442b      	add	r3, r5
1a0047da:	1bdf      	subs	r7, r3, r7
1a0047dc:	b289      	uxth	r1, r1
1a0047de:	fbb7 f8fe 	udiv	r8, r7, lr
1a0047e2:	fb0e 7318 	mls	r3, lr, r8, r7
1a0047e6:	ea41 4303 	orr.w	r3, r1, r3, lsl #16
1a0047ea:	fb0c f708 	mul.w	r7, ip, r8
1a0047ee:	429f      	cmp	r7, r3
1a0047f0:	d908      	bls.n	1a004804 <__divdi3+0x1d0>
1a0047f2:	195b      	adds	r3, r3, r5
1a0047f4:	f108 31ff 	add.w	r1, r8, #4294967295	; 0xffffffff
1a0047f8:	d25c      	bcs.n	1a0048b4 <__divdi3+0x280>
1a0047fa:	429f      	cmp	r7, r3
1a0047fc:	d95a      	bls.n	1a0048b4 <__divdi3+0x280>
1a0047fe:	f1a8 0802 	sub.w	r8, r8, #2
1a004802:	442b      	add	r3, r5
1a004804:	1bd8      	subs	r0, r3, r7
1a004806:	ea48 4202 	orr.w	r2, r8, r2, lsl #16
1a00480a:	e78e      	b.n	1a00472a <__divdi3+0xf6>
1a00480c:	f1c2 0320 	rsb	r3, r2, #32
1a004810:	fa2c f103 	lsr.w	r1, ip, r3
1a004814:	fa0e fe02 	lsl.w	lr, lr, r2
1a004818:	fa20 f703 	lsr.w	r7, r0, r3
1a00481c:	ea41 0e0e 	orr.w	lr, r1, lr
1a004820:	fa08 f002 	lsl.w	r0, r8, r2
1a004824:	fa28 f103 	lsr.w	r1, r8, r3
1a004828:	ea4f 451e 	mov.w	r5, lr, lsr #16
1a00482c:	4338      	orrs	r0, r7
1a00482e:	fbb1 f8f5 	udiv	r8, r1, r5
1a004832:	0c03      	lsrs	r3, r0, #16
1a004834:	fb05 1118 	mls	r1, r5, r8, r1
1a004838:	fa1f f78e 	uxth.w	r7, lr
1a00483c:	ea43 4101 	orr.w	r1, r3, r1, lsl #16
1a004840:	fb07 f308 	mul.w	r3, r7, r8
1a004844:	428b      	cmp	r3, r1
1a004846:	fa0c fc02 	lsl.w	ip, ip, r2
1a00484a:	d909      	bls.n	1a004860 <__divdi3+0x22c>
1a00484c:	eb11 010e 	adds.w	r1, r1, lr
1a004850:	f108 39ff 	add.w	r9, r8, #4294967295	; 0xffffffff
1a004854:	d230      	bcs.n	1a0048b8 <__divdi3+0x284>
1a004856:	428b      	cmp	r3, r1
1a004858:	d92e      	bls.n	1a0048b8 <__divdi3+0x284>
1a00485a:	f1a8 0802 	sub.w	r8, r8, #2
1a00485e:	4471      	add	r1, lr
1a004860:	1ac9      	subs	r1, r1, r3
1a004862:	b280      	uxth	r0, r0
1a004864:	fbb1 f3f5 	udiv	r3, r1, r5
1a004868:	fb05 1113 	mls	r1, r5, r3, r1
1a00486c:	ea40 4101 	orr.w	r1, r0, r1, lsl #16
1a004870:	fb07 f703 	mul.w	r7, r7, r3
1a004874:	428f      	cmp	r7, r1
1a004876:	d908      	bls.n	1a00488a <__divdi3+0x256>
1a004878:	eb11 010e 	adds.w	r1, r1, lr
1a00487c:	f103 30ff 	add.w	r0, r3, #4294967295	; 0xffffffff
1a004880:	d216      	bcs.n	1a0048b0 <__divdi3+0x27c>
1a004882:	428f      	cmp	r7, r1
1a004884:	d914      	bls.n	1a0048b0 <__divdi3+0x27c>
1a004886:	3b02      	subs	r3, #2
1a004888:	4471      	add	r1, lr
1a00488a:	ea43 4308 	orr.w	r3, r3, r8, lsl #16
1a00488e:	1bc9      	subs	r1, r1, r7
1a004890:	fba3 890c 	umull	r8, r9, r3, ip
1a004894:	4549      	cmp	r1, r9
1a004896:	d309      	bcc.n	1a0048ac <__divdi3+0x278>
1a004898:	d005      	beq.n	1a0048a6 <__divdi3+0x272>
1a00489a:	2200      	movs	r2, #0
1a00489c:	e71d      	b.n	1a0046da <__divdi3+0xa6>
1a00489e:	4696      	mov	lr, r2
1a0048a0:	e6fe      	b.n	1a0046a0 <__divdi3+0x6c>
1a0048a2:	4613      	mov	r3, r2
1a0048a4:	e711      	b.n	1a0046ca <__divdi3+0x96>
1a0048a6:	4094      	lsls	r4, r2
1a0048a8:	4544      	cmp	r4, r8
1a0048aa:	d2f6      	bcs.n	1a00489a <__divdi3+0x266>
1a0048ac:	3b01      	subs	r3, #1
1a0048ae:	e7f4      	b.n	1a00489a <__divdi3+0x266>
1a0048b0:	4603      	mov	r3, r0
1a0048b2:	e7ea      	b.n	1a00488a <__divdi3+0x256>
1a0048b4:	4688      	mov	r8, r1
1a0048b6:	e7a5      	b.n	1a004804 <__divdi3+0x1d0>
1a0048b8:	46c8      	mov	r8, r9
1a0048ba:	e7d1      	b.n	1a004860 <__divdi3+0x22c>
1a0048bc:	4602      	mov	r2, r0
1a0048be:	e78c      	b.n	1a0047da <__divdi3+0x1a6>
1a0048c0:	4613      	mov	r3, r2
1a0048c2:	e70a      	b.n	1a0046da <__divdi3+0xa6>
1a0048c4:	3b02      	subs	r3, #2
1a0048c6:	e757      	b.n	1a004778 <__divdi3+0x144>
1a0048c8:	f1a8 0802 	sub.w	r8, r8, #2
1a0048cc:	442f      	add	r7, r5
1a0048ce:	e73f      	b.n	1a004750 <__divdi3+0x11c>

1a0048d0 <__udivdi3>:
1a0048d0:	e92d 41f0 	stmdb	sp!, {r4, r5, r6, r7, r8, lr}
1a0048d4:	2b00      	cmp	r3, #0
1a0048d6:	d144      	bne.n	1a004962 <__udivdi3+0x92>
1a0048d8:	428a      	cmp	r2, r1
1a0048da:	4615      	mov	r5, r2
1a0048dc:	4604      	mov	r4, r0
1a0048de:	d94f      	bls.n	1a004980 <__udivdi3+0xb0>
1a0048e0:	fab2 f782 	clz	r7, r2
1a0048e4:	460e      	mov	r6, r1
1a0048e6:	b14f      	cbz	r7, 1a0048fc <__udivdi3+0x2c>
1a0048e8:	f1c7 0320 	rsb	r3, r7, #32
1a0048ec:	40b9      	lsls	r1, r7
1a0048ee:	fa20 f603 	lsr.w	r6, r0, r3
1a0048f2:	fa02 f507 	lsl.w	r5, r2, r7
1a0048f6:	430e      	orrs	r6, r1
1a0048f8:	fa00 f407 	lsl.w	r4, r0, r7
1a0048fc:	ea4f 4e15 	mov.w	lr, r5, lsr #16
1a004900:	0c23      	lsrs	r3, r4, #16
1a004902:	fbb6 f0fe 	udiv	r0, r6, lr
1a004906:	b2af      	uxth	r7, r5
1a004908:	fb0e 6110 	mls	r1, lr, r0, r6
1a00490c:	ea43 4301 	orr.w	r3, r3, r1, lsl #16
1a004910:	fb07 f100 	mul.w	r1, r7, r0
1a004914:	4299      	cmp	r1, r3
1a004916:	d909      	bls.n	1a00492c <__udivdi3+0x5c>
1a004918:	195b      	adds	r3, r3, r5
1a00491a:	f100 32ff 	add.w	r2, r0, #4294967295	; 0xffffffff
1a00491e:	f080 80ec 	bcs.w	1a004afa <__udivdi3+0x22a>
1a004922:	4299      	cmp	r1, r3
1a004924:	f240 80e9 	bls.w	1a004afa <__udivdi3+0x22a>
1a004928:	3802      	subs	r0, #2
1a00492a:	442b      	add	r3, r5
1a00492c:	1a5a      	subs	r2, r3, r1
1a00492e:	b2a4      	uxth	r4, r4
1a004930:	fbb2 f3fe 	udiv	r3, r2, lr
1a004934:	fb0e 2213 	mls	r2, lr, r3, r2
1a004938:	ea44 4202 	orr.w	r2, r4, r2, lsl #16
1a00493c:	fb07 f703 	mul.w	r7, r7, r3
1a004940:	4297      	cmp	r7, r2
1a004942:	d908      	bls.n	1a004956 <__udivdi3+0x86>
1a004944:	1952      	adds	r2, r2, r5
1a004946:	f103 31ff 	add.w	r1, r3, #4294967295	; 0xffffffff
1a00494a:	f080 80d8 	bcs.w	1a004afe <__udivdi3+0x22e>
1a00494e:	4297      	cmp	r7, r2
1a004950:	f240 80d5 	bls.w	1a004afe <__udivdi3+0x22e>
1a004954:	3b02      	subs	r3, #2
1a004956:	ea43 4000 	orr.w	r0, r3, r0, lsl #16
1a00495a:	2600      	movs	r6, #0
1a00495c:	4631      	mov	r1, r6
1a00495e:	e8bd 81f0 	ldmia.w	sp!, {r4, r5, r6, r7, r8, pc}
1a004962:	428b      	cmp	r3, r1
1a004964:	d847      	bhi.n	1a0049f6 <__udivdi3+0x126>
1a004966:	fab3 f683 	clz	r6, r3
1a00496a:	2e00      	cmp	r6, #0
1a00496c:	d148      	bne.n	1a004a00 <__udivdi3+0x130>
1a00496e:	428b      	cmp	r3, r1
1a004970:	d302      	bcc.n	1a004978 <__udivdi3+0xa8>
1a004972:	4282      	cmp	r2, r0
1a004974:	f200 80cd 	bhi.w	1a004b12 <__udivdi3+0x242>
1a004978:	2001      	movs	r0, #1
1a00497a:	4631      	mov	r1, r6
1a00497c:	e8bd 81f0 	ldmia.w	sp!, {r4, r5, r6, r7, r8, pc}
1a004980:	b912      	cbnz	r2, 1a004988 <__udivdi3+0xb8>
1a004982:	2501      	movs	r5, #1
1a004984:	fbb5 f5f2 	udiv	r5, r5, r2
1a004988:	fab5 f885 	clz	r8, r5
1a00498c:	f1b8 0f00 	cmp.w	r8, #0
1a004990:	d177      	bne.n	1a004a82 <__udivdi3+0x1b2>
1a004992:	1b4a      	subs	r2, r1, r5
1a004994:	ea4f 4e15 	mov.w	lr, r5, lsr #16
1a004998:	b2af      	uxth	r7, r5
1a00499a:	2601      	movs	r6, #1
1a00499c:	fbb2 f0fe 	udiv	r0, r2, lr
1a0049a0:	0c23      	lsrs	r3, r4, #16
1a0049a2:	fb0e 2110 	mls	r1, lr, r0, r2
1a0049a6:	ea43 4101 	orr.w	r1, r3, r1, lsl #16
1a0049aa:	fb07 f300 	mul.w	r3, r7, r0
1a0049ae:	428b      	cmp	r3, r1
1a0049b0:	d907      	bls.n	1a0049c2 <__udivdi3+0xf2>
1a0049b2:	1949      	adds	r1, r1, r5
1a0049b4:	f100 32ff 	add.w	r2, r0, #4294967295	; 0xffffffff
1a0049b8:	d202      	bcs.n	1a0049c0 <__udivdi3+0xf0>
1a0049ba:	428b      	cmp	r3, r1
1a0049bc:	f200 80ba 	bhi.w	1a004b34 <__udivdi3+0x264>
1a0049c0:	4610      	mov	r0, r2
1a0049c2:	1ac9      	subs	r1, r1, r3
1a0049c4:	b2a4      	uxth	r4, r4
1a0049c6:	fbb1 f3fe 	udiv	r3, r1, lr
1a0049ca:	fb0e 1113 	mls	r1, lr, r3, r1
1a0049ce:	ea44 4401 	orr.w	r4, r4, r1, lsl #16
1a0049d2:	fb07 f703 	mul.w	r7, r7, r3
1a0049d6:	42a7      	cmp	r7, r4
1a0049d8:	d908      	bls.n	1a0049ec <__udivdi3+0x11c>
1a0049da:	1964      	adds	r4, r4, r5
1a0049dc:	f103 32ff 	add.w	r2, r3, #4294967295	; 0xffffffff
1a0049e0:	f080 808f 	bcs.w	1a004b02 <__udivdi3+0x232>
1a0049e4:	42a7      	cmp	r7, r4
1a0049e6:	f240 808c 	bls.w	1a004b02 <__udivdi3+0x232>
1a0049ea:	3b02      	subs	r3, #2
1a0049ec:	ea43 4000 	orr.w	r0, r3, r0, lsl #16
1a0049f0:	4631      	mov	r1, r6
1a0049f2:	e8bd 81f0 	ldmia.w	sp!, {r4, r5, r6, r7, r8, pc}
1a0049f6:	2600      	movs	r6, #0
1a0049f8:	4630      	mov	r0, r6
1a0049fa:	4631      	mov	r1, r6
1a0049fc:	e8bd 81f0 	ldmia.w	sp!, {r4, r5, r6, r7, r8, pc}
1a004a00:	f1c6 0420 	rsb	r4, r6, #32
1a004a04:	fa22 f504 	lsr.w	r5, r2, r4
1a004a08:	40b3      	lsls	r3, r6
1a004a0a:	432b      	orrs	r3, r5
1a004a0c:	fa20 fc04 	lsr.w	ip, r0, r4
1a004a10:	fa01 f706 	lsl.w	r7, r1, r6
1a004a14:	fa21 f504 	lsr.w	r5, r1, r4
1a004a18:	ea4f 4e13 	mov.w	lr, r3, lsr #16
1a004a1c:	ea4c 0707 	orr.w	r7, ip, r7
1a004a20:	fbb5 f8fe 	udiv	r8, r5, lr
1a004a24:	0c39      	lsrs	r1, r7, #16
1a004a26:	fb0e 5518 	mls	r5, lr, r8, r5
1a004a2a:	fa1f fc83 	uxth.w	ip, r3
1a004a2e:	ea41 4505 	orr.w	r5, r1, r5, lsl #16
1a004a32:	fb0c f108 	mul.w	r1, ip, r8
1a004a36:	42a9      	cmp	r1, r5
1a004a38:	fa02 f206 	lsl.w	r2, r2, r6
1a004a3c:	d904      	bls.n	1a004a48 <__udivdi3+0x178>
1a004a3e:	18ed      	adds	r5, r5, r3
1a004a40:	f108 34ff 	add.w	r4, r8, #4294967295	; 0xffffffff
1a004a44:	d367      	bcc.n	1a004b16 <__udivdi3+0x246>
1a004a46:	46a0      	mov	r8, r4
1a004a48:	1a6d      	subs	r5, r5, r1
1a004a4a:	b2bf      	uxth	r7, r7
1a004a4c:	fbb5 f4fe 	udiv	r4, r5, lr
1a004a50:	fb0e 5514 	mls	r5, lr, r4, r5
1a004a54:	ea47 4105 	orr.w	r1, r7, r5, lsl #16
1a004a58:	fb0c fc04 	mul.w	ip, ip, r4
1a004a5c:	458c      	cmp	ip, r1
1a004a5e:	d904      	bls.n	1a004a6a <__udivdi3+0x19a>
1a004a60:	18c9      	adds	r1, r1, r3
1a004a62:	f104 35ff 	add.w	r5, r4, #4294967295	; 0xffffffff
1a004a66:	d35c      	bcc.n	1a004b22 <__udivdi3+0x252>
1a004a68:	462c      	mov	r4, r5
1a004a6a:	ea44 4408 	orr.w	r4, r4, r8, lsl #16
1a004a6e:	ebcc 0101 	rsb	r1, ip, r1
1a004a72:	fba4 2302 	umull	r2, r3, r4, r2
1a004a76:	4299      	cmp	r1, r3
1a004a78:	d348      	bcc.n	1a004b0c <__udivdi3+0x23c>
1a004a7a:	d044      	beq.n	1a004b06 <__udivdi3+0x236>
1a004a7c:	4620      	mov	r0, r4
1a004a7e:	2600      	movs	r6, #0
1a004a80:	e76c      	b.n	1a00495c <__udivdi3+0x8c>
1a004a82:	f1c8 0420 	rsb	r4, r8, #32
1a004a86:	fa01 f308 	lsl.w	r3, r1, r8
1a004a8a:	fa05 f508 	lsl.w	r5, r5, r8
1a004a8e:	fa20 f704 	lsr.w	r7, r0, r4
1a004a92:	40e1      	lsrs	r1, r4
1a004a94:	ea4f 4e15 	mov.w	lr, r5, lsr #16
1a004a98:	431f      	orrs	r7, r3
1a004a9a:	fbb1 f6fe 	udiv	r6, r1, lr
1a004a9e:	0c3a      	lsrs	r2, r7, #16
1a004aa0:	fb0e 1116 	mls	r1, lr, r6, r1
1a004aa4:	fa1f fc85 	uxth.w	ip, r5
1a004aa8:	ea42 4301 	orr.w	r3, r2, r1, lsl #16
1a004aac:	fb0c f206 	mul.w	r2, ip, r6
1a004ab0:	429a      	cmp	r2, r3
1a004ab2:	fa00 f408 	lsl.w	r4, r0, r8
1a004ab6:	d907      	bls.n	1a004ac8 <__udivdi3+0x1f8>
1a004ab8:	195b      	adds	r3, r3, r5
1a004aba:	f106 31ff 	add.w	r1, r6, #4294967295	; 0xffffffff
1a004abe:	d237      	bcs.n	1a004b30 <__udivdi3+0x260>
1a004ac0:	429a      	cmp	r2, r3
1a004ac2:	d935      	bls.n	1a004b30 <__udivdi3+0x260>
1a004ac4:	3e02      	subs	r6, #2
1a004ac6:	442b      	add	r3, r5
1a004ac8:	1a9b      	subs	r3, r3, r2
1a004aca:	b2bf      	uxth	r7, r7
1a004acc:	fbb3 f0fe 	udiv	r0, r3, lr
1a004ad0:	fb0e 3310 	mls	r3, lr, r0, r3
1a004ad4:	ea47 4303 	orr.w	r3, r7, r3, lsl #16
1a004ad8:	fb0c f100 	mul.w	r1, ip, r0
1a004adc:	4299      	cmp	r1, r3
1a004ade:	d907      	bls.n	1a004af0 <__udivdi3+0x220>
1a004ae0:	195b      	adds	r3, r3, r5
1a004ae2:	f100 32ff 	add.w	r2, r0, #4294967295	; 0xffffffff
1a004ae6:	d221      	bcs.n	1a004b2c <__udivdi3+0x25c>
1a004ae8:	4299      	cmp	r1, r3
1a004aea:	d91f      	bls.n	1a004b2c <__udivdi3+0x25c>
1a004aec:	3802      	subs	r0, #2
1a004aee:	442b      	add	r3, r5
1a004af0:	1a5a      	subs	r2, r3, r1
1a004af2:	ea40 4606 	orr.w	r6, r0, r6, lsl #16
1a004af6:	4667      	mov	r7, ip
1a004af8:	e750      	b.n	1a00499c <__udivdi3+0xcc>
1a004afa:	4610      	mov	r0, r2
1a004afc:	e716      	b.n	1a00492c <__udivdi3+0x5c>
1a004afe:	460b      	mov	r3, r1
1a004b00:	e729      	b.n	1a004956 <__udivdi3+0x86>
1a004b02:	4613      	mov	r3, r2
1a004b04:	e772      	b.n	1a0049ec <__udivdi3+0x11c>
1a004b06:	40b0      	lsls	r0, r6
1a004b08:	4290      	cmp	r0, r2
1a004b0a:	d2b7      	bcs.n	1a004a7c <__udivdi3+0x1ac>
1a004b0c:	1e60      	subs	r0, r4, #1
1a004b0e:	2600      	movs	r6, #0
1a004b10:	e724      	b.n	1a00495c <__udivdi3+0x8c>
1a004b12:	4630      	mov	r0, r6
1a004b14:	e722      	b.n	1a00495c <__udivdi3+0x8c>
1a004b16:	42a9      	cmp	r1, r5
1a004b18:	d995      	bls.n	1a004a46 <__udivdi3+0x176>
1a004b1a:	f1a8 0802 	sub.w	r8, r8, #2
1a004b1e:	441d      	add	r5, r3
1a004b20:	e792      	b.n	1a004a48 <__udivdi3+0x178>
1a004b22:	458c      	cmp	ip, r1
1a004b24:	d9a0      	bls.n	1a004a68 <__udivdi3+0x198>
1a004b26:	3c02      	subs	r4, #2
1a004b28:	4419      	add	r1, r3
1a004b2a:	e79e      	b.n	1a004a6a <__udivdi3+0x19a>
1a004b2c:	4610      	mov	r0, r2
1a004b2e:	e7df      	b.n	1a004af0 <__udivdi3+0x220>
1a004b30:	460e      	mov	r6, r1
1a004b32:	e7c9      	b.n	1a004ac8 <__udivdi3+0x1f8>
1a004b34:	3802      	subs	r0, #2
1a004b36:	4429      	add	r1, r5
1a004b38:	e743      	b.n	1a0049c2 <__udivdi3+0xf2>
1a004b3a:	bf00      	nop

1a004b3c <__libc_init_array>:
1a004b3c:	b570      	push	{r4, r5, r6, lr}
1a004b3e:	4b0e      	ldr	r3, [pc, #56]	; (1a004b78 <__libc_init_array+0x3c>)
1a004b40:	4c0e      	ldr	r4, [pc, #56]	; (1a004b7c <__libc_init_array+0x40>)
1a004b42:	1ae4      	subs	r4, r4, r3
1a004b44:	10a4      	asrs	r4, r4, #2
1a004b46:	2500      	movs	r5, #0
1a004b48:	461e      	mov	r6, r3
1a004b4a:	42a5      	cmp	r5, r4
1a004b4c:	d004      	beq.n	1a004b58 <__libc_init_array+0x1c>
1a004b4e:	f856 3025 	ldr.w	r3, [r6, r5, lsl #2]
1a004b52:	4798      	blx	r3
1a004b54:	3501      	adds	r5, #1
1a004b56:	e7f8      	b.n	1a004b4a <__libc_init_array+0xe>
1a004b58:	f7ff fd04 	bl	1a004564 <_init>
1a004b5c:	4c08      	ldr	r4, [pc, #32]	; (1a004b80 <__libc_init_array+0x44>)
1a004b5e:	4b09      	ldr	r3, [pc, #36]	; (1a004b84 <__libc_init_array+0x48>)
1a004b60:	1ae4      	subs	r4, r4, r3
1a004b62:	10a4      	asrs	r4, r4, #2
1a004b64:	2500      	movs	r5, #0
1a004b66:	461e      	mov	r6, r3
1a004b68:	42a5      	cmp	r5, r4
1a004b6a:	d004      	beq.n	1a004b76 <__libc_init_array+0x3a>
1a004b6c:	f856 3025 	ldr.w	r3, [r6, r5, lsl #2]
1a004b70:	4798      	blx	r3
1a004b72:	3501      	adds	r5, #1
1a004b74:	e7f8      	b.n	1a004b68 <__libc_init_array+0x2c>
1a004b76:	bd70      	pop	{r4, r5, r6, pc}
1a004b78:	1a005554 	.word	0x1a005554
1a004b7c:	1a005554 	.word	0x1a005554
1a004b80:	1a005554 	.word	0x1a005554
1a004b84:	1a005554 	.word	0x1a005554

1a004b88 <memset>:
1a004b88:	4402      	add	r2, r0
1a004b8a:	4603      	mov	r3, r0
1a004b8c:	4293      	cmp	r3, r2
1a004b8e:	d002      	beq.n	1a004b96 <memset+0xe>
1a004b90:	f803 1b01 	strb.w	r1, [r3], #1
1a004b94:	e7fa      	b.n	1a004b8c <memset+0x4>
1a004b96:	4770      	bx	lr

1a004b98 <strcat>:
1a004b98:	b510      	push	{r4, lr}
1a004b9a:	4602      	mov	r2, r0
1a004b9c:	4613      	mov	r3, r2
1a004b9e:	3201      	adds	r2, #1
1a004ba0:	781c      	ldrb	r4, [r3, #0]
1a004ba2:	2c00      	cmp	r4, #0
1a004ba4:	d1fa      	bne.n	1a004b9c <strcat+0x4>
1a004ba6:	3b01      	subs	r3, #1
1a004ba8:	f811 2b01 	ldrb.w	r2, [r1], #1
1a004bac:	f803 2f01 	strb.w	r2, [r3, #1]!
1a004bb0:	2a00      	cmp	r2, #0
1a004bb2:	d1f9      	bne.n	1a004ba8 <strcat+0x10>
1a004bb4:	bd10      	pop	{r4, pc}

1a004bb6 <strlen>:
1a004bb6:	4603      	mov	r3, r0
1a004bb8:	f813 2b01 	ldrb.w	r2, [r3], #1
1a004bbc:	2a00      	cmp	r2, #0
1a004bbe:	d1fb      	bne.n	1a004bb8 <strlen+0x2>
1a004bc0:	1a18      	subs	r0, r3, r0
1a004bc2:	3801      	subs	r0, #1
1a004bc4:	4770      	bx	lr

1a004bc6 <strncat>:
1a004bc6:	b530      	push	{r4, r5, lr}
1a004bc8:	4604      	mov	r4, r0
1a004bca:	4623      	mov	r3, r4
1a004bcc:	3401      	adds	r4, #1
1a004bce:	781d      	ldrb	r5, [r3, #0]
1a004bd0:	2d00      	cmp	r5, #0
1a004bd2:	d1fa      	bne.n	1a004bca <strncat+0x4>
1a004bd4:	f112 32ff 	adds.w	r2, r2, #4294967295	; 0xffffffff
1a004bd8:	d308      	bcc.n	1a004bec <strncat+0x26>
1a004bda:	f811 4b01 	ldrb.w	r4, [r1], #1
1a004bde:	f803 4b01 	strb.w	r4, [r3], #1
1a004be2:	b11c      	cbz	r4, 1a004bec <strncat+0x26>
1a004be4:	2a00      	cmp	r2, #0
1a004be6:	d1f5      	bne.n	1a004bd4 <strncat+0xe>
1a004be8:	701a      	strb	r2, [r3, #0]
1a004bea:	e7f3      	b.n	1a004bd4 <strncat+0xe>
1a004bec:	bd30      	pop	{r4, r5, pc}

1a004bee <strstr>:
1a004bee:	b530      	push	{r4, r5, lr}
1a004bf0:	7803      	ldrb	r3, [r0, #0]
1a004bf2:	b923      	cbnz	r3, 1a004bfe <strstr+0x10>
1a004bf4:	780b      	ldrb	r3, [r1, #0]
1a004bf6:	2b00      	cmp	r3, #0
1a004bf8:	bf18      	it	ne
1a004bfa:	2000      	movne	r0, #0
1a004bfc:	bd30      	pop	{r4, r5, pc}
1a004bfe:	4603      	mov	r3, r0
1a004c00:	3001      	adds	r0, #1
1a004c02:	781a      	ldrb	r2, [r3, #0]
1a004c04:	b13a      	cbz	r2, 1a004c16 <strstr+0x28>
1a004c06:	2200      	movs	r2, #0
1a004c08:	5c8c      	ldrb	r4, [r1, r2]
1a004c0a:	b134      	cbz	r4, 1a004c1a <strstr+0x2c>
1a004c0c:	5c9d      	ldrb	r5, [r3, r2]
1a004c0e:	42a5      	cmp	r5, r4
1a004c10:	d1f5      	bne.n	1a004bfe <strstr+0x10>
1a004c12:	3201      	adds	r2, #1
1a004c14:	e7f8      	b.n	1a004c08 <strstr+0x1a>
1a004c16:	4610      	mov	r0, r2
1a004c18:	bd30      	pop	{r4, r5, pc}
1a004c1a:	4618      	mov	r0, r3
1a004c1c:	bd30      	pop	{r4, r5, pc}
1a004c1e:	ffff 3e3e 	vcvt.f32.u32	d19, d30, #1
1a004c22:	3e3e      	.short	0x3e3e
1a004c24:	766e4520 	.word	0x766e4520
1a004c28:	64206f69 	.word	0x64206f69
1a004c2c:	736f7461 	.word	0x736f7461
1a004c30:	50435420 	.word	0x50435420
1a004c34:	2050492f 	.word	0x2050492f
1a004c38:	73206c61 	.word	0x73206c61
1a004c3c:	69767265 	.word	0x69767265
1a004c40:	2e726f64 	.word	0x2e726f64
1a004c44:	00002e2e 	.word	0x00002e2e
1a004c48:	3e3e3e3e 	.word	0x3e3e3e3e
1a004c4c:	2b544120 	.word	0x2b544120
1a004c50:	53504943 	.word	0x53504943
1a004c54:	3d444e45 	.word	0x3d444e45
1a004c58:	00000000 	.word	0x00000000
1a004c5c:	432b5441 	.word	0x432b5441
1a004c60:	45535049 	.word	0x45535049
1a004c64:	003d444e 	.word	0x003d444e
1a004c68:	0a0d0a0d 	.word	0x0a0d0a0d
1a004c6c:	0a0d4b4f 	.word	0x0a0d4b4f
1a004c70:	0000003e 	.word	0x0000003e
1a004c74:	444e4553 	.word	0x444e4553
1a004c78:	0d4b4f20 	.word	0x0d4b4f20
1a004c7c:	0000000a 	.word	0x0000000a
1a004c80:	534f4c43 	.word	0x534f4c43
1a004c84:	0a0d4445 	.word	0x0a0d4445
1a004c88:	00000000 	.word	0x00000000
1a004c8c:	3e3e3e3e 	.word	0x3e3e3e3e
1a004c90:	72724520 	.word	0x72724520
1a004c94:	6120726f 	.word	0x6120726f
1a004c98:	6e65206c 	.word	0x6e65206c
1a004c9c:	72616976 	.word	0x72616976
1a004ca0:	736f6c20 	.word	0x736f6c20
1a004ca4:	74616420 	.word	0x74616420
1a004ca8:	5420736f 	.word	0x5420736f
1a004cac:	492f5043 	.word	0x492f5043
1a004cb0:	65202c50 	.word	0x65202c50
1a004cb4:	6c65206e 	.word	0x6c65206e
1a004cb8:	766e6520 	.word	0x766e6520
1a004cbc:	64206f69 	.word	0x64206f69
1a004cc0:	73206c65 	.word	0x73206c65
1a004cc4:	6e697274 	.word	0x6e697274
1a004cc8:	00000067 	.word	0x00000067
1a004ccc:	3e3e3e3e 	.word	0x3e3e3e3e
1a004cd0:	74732220 	.word	0x74732220
1a004cd4:	74614472 	.word	0x74614472
1a004cd8:	202c2261 	.word	0x202c2261
1a004cdc:	6e617563 	.word	0x6e617563
1a004ce0:	65206f64 	.word	0x65206f64
1a004ce4:	5345206c 	.word	0x5345206c
1a004ce8:	20313050 	.word	0x20313050
1a004cec:	656e6f70 	.word	0x656e6f70
1a004cf0:	206c6520 	.word	0x206c6520
1a004cf4:	6d6f7270 	.word	0x6d6f7270
1a004cf8:	3e207470 	.word	0x3e207470
1a004cfc:	00000020 	.word	0x00000020
1a004d00:	3e3e3e3e 	.word	0x3e3e3e3e
1a004d04:	6e207920 	.word	0x6e207920
1a004d08:	6573206f 	.word	0x6573206f
1a004d0c:	63657220 	.word	0x63657220
1a004d10:	20656269 	.word	0x20656269
1a004d14:	7220616c 	.word	0x7220616c
1a004d18:	75707365 	.word	0x75707365
1a004d1c:	61747365 	.word	0x61747365
1a004d20:	22207920 	.word	0x22207920
1a004d24:	534f4c43 	.word	0x534f4c43
1a004d28:	21224445 	.word	0x21224445
1a004d2c:	000a0d21 	.word	0x000a0d21
1a004d30:	3e3e3e3e 	.word	0x3e3e3e3e
1a004d34:	6e207920 	.word	0x6e207920
1a004d38:	6573206f 	.word	0x6573206f
1a004d3c:	63657220 	.word	0x63657220
1a004d40:	20656269 	.word	0x20656269
1a004d44:	4e455322 	.word	0x4e455322
1a004d48:	4b4f2044 	.word	0x4b4f2044
1a004d4c:	0d212122 	.word	0x0d212122
1a004d50:	0000000a 	.word	0x0000000a
1a004d54:	3e3e3e3e 	.word	0x3e3e3e3e
1a004d58:	72724520 	.word	0x72724520
1a004d5c:	6120726f 	.word	0x6120726f
1a004d60:	6e65206c 	.word	0x6e65206c
1a004d64:	72616976 	.word	0x72616976
1a004d68:	736f6c20 	.word	0x736f6c20
1a004d6c:	74616420 	.word	0x74616420
1a004d70:	5420736f 	.word	0x5420736f
1a004d74:	492f5043 	.word	0x492f5043
1a004d78:	65202c50 	.word	0x65202c50
1a004d7c:	6f63206e 	.word	0x6f63206e
1a004d80:	646e616d 	.word	0x646e616d
1a004d84:	0000006f 	.word	0x0000006f
1a004d88:	3e3e3e3e 	.word	0x3e3e3e3e
1a004d8c:	54412220 	.word	0x54412220
1a004d90:	5049432b 	.word	0x5049432b
1a004d94:	444e4553 	.word	0x444e4553
1a004d98:	0d212122 	.word	0x0d212122
1a004d9c:	0000000a 	.word	0x0000000a
1a004da0:	3e3e3e3e 	.word	0x3e3e3e3e
1a004da4:	6e6f4320 	.word	0x6e6f4320
1a004da8:	61746365 	.word	0x61746365
1a004dac:	206f646e 	.word	0x206f646e
1a004db0:	73206c61 	.word	0x73206c61
1a004db4:	69767265 	.word	0x69767265
1a004db8:	20726f64 	.word	0x20726f64
1a004dbc:	00000022 	.word	0x00000022
1a004dc0:	70202c22 	.word	0x70202c22
1a004dc4:	74726575 	.word	0x74726575
1a004dc8:	0022206f 	.word	0x0022206f
1a004dcc:	3e3e3e3e 	.word	0x3e3e3e3e
1a004dd0:	2b544120 	.word	0x2b544120
1a004dd4:	53504943 	.word	0x53504943
1a004dd8:	54524154 	.word	0x54524154
1a004ddc:	4354223d 	.word	0x4354223d
1a004de0:	222c2250 	.word	0x222c2250
1a004de4:	00000000 	.word	0x00000000
1a004de8:	00002c22 	.word	0x00002c22
1a004dec:	432b5441 	.word	0x432b5441
1a004df0:	54535049 	.word	0x54535049
1a004df4:	3d545241 	.word	0x3d545241
1a004df8:	50435422 	.word	0x50435422
1a004dfc:	00222c22 	.word	0x00222c22
1a004e00:	4e4e4f43 	.word	0x4e4e4f43
1a004e04:	0d544345 	.word	0x0d544345
1a004e08:	4f0a0d0a 	.word	0x4f0a0d0a
1a004e0c:	000a0d4b 	.word	0x000a0d4b
1a004e10:	3e3e3e3e 	.word	0x3e3e3e3e
1a004e14:	20202020 	.word	0x20202020
1a004e18:	6f727245 	.word	0x6f727245
1a004e1c:	4e203a72 	.word	0x4e203a72
1a004e20:	6573206f 	.word	0x6573206f
1a004e24:	65757020 	.word	0x65757020
1a004e28:	63206564 	.word	0x63206564
1a004e2c:	63656e6f 	.word	0x63656e6f
1a004e30:	20726174 	.word	0x20726174
1a004e34:	73206c61 	.word	0x73206c61
1a004e38:	69767265 	.word	0x69767265
1a004e3c:	3a726f64 	.word	0x3a726f64
1a004e40:	00002220 	.word	0x00002220
1a004e44:	3e3e3e3e 	.word	0x3e3e3e3e
1a004e48:	3d3d3d20 	.word	0x3d3d3d20
1a004e4c:	3d3d3d3d 	.word	0x3d3d3d3d
1a004e50:	3d3d3d3d 	.word	0x3d3d3d3d
1a004e54:	3d3d3d3d 	.word	0x3d3d3d3d
1a004e58:	3d3d3d3d 	.word	0x3d3d3d3d
1a004e5c:	3d3d3d3d 	.word	0x3d3d3d3d
1a004e60:	3d3d3d3d 	.word	0x3d3d3d3d
1a004e64:	3d3d3d3d 	.word	0x3d3d3d3d
1a004e68:	3d3d3d3d 	.word	0x3d3d3d3d
1a004e6c:	3d3d3d3d 	.word	0x3d3d3d3d
1a004e70:	3d3d3d3d 	.word	0x3d3d3d3d
1a004e74:	3d3d3d3d 	.word	0x3d3d3d3d
1a004e78:	3d3d3d3d 	.word	0x3d3d3d3d
1a004e7c:	3d3d3d3d 	.word	0x3d3d3d3d
1a004e80:	3d3d3d3d 	.word	0x3d3d3d3d
1a004e84:	00000000 	.word	0x00000000
1a004e88:	3e3e3e3e 	.word	0x3e3e3e3e
1a004e8c:	766e4520 	.word	0x766e4520
1a004e90:	20726169 	.word	0x20726169
1a004e94:	6f746164 	.word	0x6f746164
1a004e98:	0022203a 	.word	0x0022203a
1a004e9c:	3e0a0d22 	.word	0x3e0a0d22
1a004ea0:	203e3e3e 	.word	0x203e3e3e
1a004ea4:	73206c61 	.word	0x73206c61
1a004ea8:	69767265 	.word	0x69767265
1a004eac:	20726f64 	.word	0x20726f64
1a004eb0:	00000022 	.word	0x00000022
1a004eb4:	3e3e3e3e 	.word	0x3e3e3e3e
1a004eb8:	6e6f4320 	.word	0x6e6f4320
1a004ebc:	61746365 	.word	0x61746365
1a004ec0:	206f646e 	.word	0x206f646e
1a004ec4:	616c2061 	.word	0x616c2061
1a004ec8:	64657220 	.word	0x64657220
1a004ecc:	2d695720 	.word	0x2d695720
1a004ed0:	203a6946 	.word	0x203a6946
1a004ed4:	00000022 	.word	0x00000022
1a004ed8:	432b5441 	.word	0x432b5441
1a004edc:	50414a57 	.word	0x50414a57
1a004ee0:	0000223d 	.word	0x0000223d
1a004ee4:	000a0d22 	.word	0x000a0d22
1a004ee8:	49464957 	.word	0x49464957
1a004eec:	4e4f4320 	.word	0x4e4f4320
1a004ef0:	5443454e 	.word	0x5443454e
1a004ef4:	0a0d4445 	.word	0x0a0d4445
1a004ef8:	49464957 	.word	0x49464957
1a004efc:	544f4720 	.word	0x544f4720
1a004f00:	0d504920 	.word	0x0d504920
1a004f04:	4f0a0d0a 	.word	0x4f0a0d0a
1a004f08:	000a0d4b 	.word	0x000a0d4b
1a004f0c:	49464957 	.word	0x49464957
1a004f10:	4e4f4320 	.word	0x4e4f4320
1a004f14:	5443454e 	.word	0x5443454e
1a004f18:	00004445 	.word	0x00004445
1a004f1c:	3e3e3e3e 	.word	0x3e3e3e3e
1a004f20:	20202020 	.word	0x20202020
1a004f24:	6f727245 	.word	0x6f727245
1a004f28:	4e203a72 	.word	0x4e203a72
1a004f2c:	6573206f 	.word	0x6573206f
1a004f30:	65757020 	.word	0x65757020
1a004f34:	63206564 	.word	0x63206564
1a004f38:	63656e6f 	.word	0x63656e6f
1a004f3c:	20726174 	.word	0x20726174
1a004f40:	616c2061 	.word	0x616c2061
1a004f44:	64657220 	.word	0x64657220
1a004f48:	0022203a 	.word	0x0022203a
1a004f4c:	3e3e3e3e 	.word	0x3e3e3e3e
1a004f50:	6e6f4320 	.word	0x6e6f4320
1a004f54:	746c7573 	.word	0x746c7573
1a004f58:	6f646e61 	.word	0x6f646e61
1a004f5c:	73616c20 	.word	0x73616c20
1a004f60:	64657220 	.word	0x64657220
1a004f64:	57207365 	.word	0x57207365
1a004f68:	69462d69 	.word	0x69462d69
1a004f6c:	73696420 	.word	0x73696420
1a004f70:	696e6f70 	.word	0x696e6f70
1a004f74:	73656c62 	.word	0x73656c62
1a004f78:	3e0a0d2e 	.word	0x3e0a0d2e
1a004f7c:	203e3e3e 	.word	0x203e3e3e
1a004f80:	45202020 	.word	0x45202020
1a004f84:	6169766e 	.word	0x6169766e
1a004f88:	206f646e 	.word	0x206f646e
1a004f8c:	2b544122 	.word	0x2b544122
1a004f90:	414c5743 	.word	0x414c5743
1a004f94:	2e2e2250 	.word	0x2e2e2250
1a004f98:	0000002e 	.word	0x0000002e
1a004f9c:	432b5441 	.word	0x432b5441
1a004fa0:	50414c57 	.word	0x50414c57
1a004fa4:	00000a0d 	.word	0x00000a0d
1a004fa8:	0d0a0d29 	.word	0x0d0a0d29
1a004fac:	0d4b4f0a 	.word	0x0d4b4f0a
1a004fb0:	0000000a 	.word	0x0000000a
1a004fb4:	3e3e3e3e 	.word	0x3e3e3e3e
1a004fb8:	20202020 	.word	0x20202020
1a004fbc:	6f727245 	.word	0x6f727245
1a004fc0:	4e203a72 	.word	0x4e203a72
1a004fc4:	6573206f 	.word	0x6573206f
1a004fc8:	636e6520 	.word	0x636e6520
1a004fcc:	746e6575 	.word	0x746e6575
1a004fd0:	206e6172 	.word	0x206e6172
1a004fd4:	65646572 	.word	0x65646572
1a004fd8:	69642073 	.word	0x69642073
1a004fdc:	6e6f7073 	.word	0x6e6f7073
1a004fe0:	656c6269 	.word	0x656c6269
1a004fe4:	0d212173 	.word	0x0d212173
1a004fe8:	0000000a 	.word	0x0000000a
1a004fec:	3e3e3e3e 	.word	0x3e3e3e3e
1a004ff0:	52415520 	.word	0x52415520
1a004ff4:	53555f54 	.word	0x53555f54
1a004ff8:	6f632042 	.word	0x6f632042
1a004ffc:	6769666e 	.word	0x6769666e
1a005000:	64617275 	.word	0x64617275
1a005004:	6f632061 	.word	0x6f632061
1a005008:	73206f6d 	.word	0x73206f6d
1a00500c:	64696c61 	.word	0x64696c61
1a005010:	65642061 	.word	0x65642061
1a005014:	62656420 	.word	0x62656420
1a005018:	002e6775 	.word	0x002e6775
1a00501c:	3e3e3e3e 	.word	0x3e3e3e3e
1a005020:	52415520 	.word	0x52415520
1a005024:	53455f54 	.word	0x53455f54
1a005028:	64282050 	.word	0x64282050
1a00502c:	65646e6f 	.word	0x65646e6f
1a005030:	20657320 	.word	0x20657320
1a005034:	656e6f63 	.word	0x656e6f63
1a005038:	20617463 	.word	0x20617463
1a00503c:	45206c65 	.word	0x45206c65
1a005040:	31305053 	.word	0x31305053
1a005044:	0d202c29 	.word	0x0d202c29
1a005048:	3e3e3e0a 	.word	0x3e3e3e0a
1a00504c:	6f63203e 	.word	0x6f63203e
1a005050:	6769666e 	.word	0x6769666e
1a005054:	64617275 	.word	0x64617275
1a005058:	6f632061 	.word	0x6f632061
1a00505c:	73206f6d 	.word	0x73206f6d
1a005060:	64696c61 	.word	0x64696c61
1a005064:	65642061 	.word	0x65642061
1a005068:	6e6f6320 	.word	0x6e6f6320
1a00506c:	616c6f73 	.word	0x616c6f73
1a005070:	000a0d2e 	.word	0x000a0d2e
1a005074:	3e3e3e3e 	.word	0x3e3e3e3e
1a005078:	65684320 	.word	0x65684320
1a00507c:	61657571 	.word	0x61657571
1a005080:	69732072 	.word	0x69732072
1a005084:	20657320 	.word	0x20657320
1a005088:	75636e65 	.word	0x75636e65
1a00508c:	72746e65 	.word	0x72746e65
1a005090:	6c652061 	.word	0x6c652061
1a005094:	646f6d20 	.word	0x646f6d20
1a005098:	206f6c75 	.word	0x206f6c75
1a00509c:	462d6957 	.word	0x462d6957
1a0050a0:	0a0d2e69 	.word	0x0a0d2e69
1a0050a4:	3e3e3e3e 	.word	0x3e3e3e3e
1a0050a8:	20202020 	.word	0x20202020
1a0050ac:	69766e45 	.word	0x69766e45
1a0050b0:	6f646e61 	.word	0x6f646e61
1a0050b4:	54412220 	.word	0x54412220
1a0050b8:	2e2e2e22 	.word	0x2e2e2e22
1a0050bc:	00000000 	.word	0x00000000
1a0050c0:	0a0d5441 	.word	0x0a0d5441
1a0050c4:	00000000 	.word	0x00000000
1a0050c8:	3e3e3e3e 	.word	0x3e3e3e3e
1a0050cc:	20202020 	.word	0x20202020
1a0050d0:	75646f4d 	.word	0x75646f4d
1a0050d4:	45206f6c 	.word	0x45206f6c
1a0050d8:	31305053 	.word	0x31305053
1a0050dc:	2d695720 	.word	0x2d695720
1a0050e0:	64206946 	.word	0x64206946
1a0050e4:	63657465 	.word	0x63657465
1a0050e8:	6f646174 	.word	0x6f646174
1a0050ec:	000a0d2e 	.word	0x000a0d2e
1a0050f0:	3e3e3e3e 	.word	0x3e3e3e3e
1a0050f4:	20202020 	.word	0x20202020
1a0050f8:	6f727245 	.word	0x6f727245
1a0050fc:	4d203a72 	.word	0x4d203a72
1a005100:	6c75646f 	.word	0x6c75646f
1a005104:	5345206f 	.word	0x5345206f
1a005108:	20313050 	.word	0x20313050
1a00510c:	462d6957 	.word	0x462d6957
1a005110:	6f4e2069 	.word	0x6f4e2069
1a005114:	74656420 	.word	0x74656420
1a005118:	61746365 	.word	0x61746365
1a00511c:	21216f64 	.word	0x21216f64
1a005120:	ff000a0d 	.word	0xff000a0d
1a005124:	7778797a 	.word	0x7778797a
1a005128:	73747576 	.word	0x73747576
1a00512c:	6f707172 	.word	0x6f707172
1a005130:	6b6c6d6e 	.word	0x6b6c6d6e
1a005134:	6768696a 	.word	0x6768696a
1a005138:	63646566 	.word	0x63646566
1a00513c:	38396162 	.word	0x38396162
1a005140:	34353637 	.word	0x34353637
1a005144:	30313233 	.word	0x30313233
1a005148:	34333231 	.word	0x34333231
1a00514c:	38373635 	.word	0x38373635
1a005150:	63626139 	.word	0x63626139
1a005154:	67666564 	.word	0x67666564
1a005158:	6b6a6968 	.word	0x6b6a6968
1a00515c:	6f6e6d6c 	.word	0x6f6e6d6c
1a005160:	73727170 	.word	0x73727170
1a005164:	77767574 	.word	0x77767574
1a005168:	007a7978 	.word	0x007a7978
1a00516c:	0000202c 	.word	0x0000202c
1a005170:	0000002f 	.word	0x0000002f
1a005174:	00000030 	.word	0x00000030
1a005178:	0000003a 	.word	0x0000003a
1a00517c:	3a314843 	.word	0x3a314843
1a005180:	00000000 	.word	0x00000000
1a005184:	3a324843 	.word	0x3a324843
1a005188:	00000000 	.word	0x00000000
1a00518c:	3a334843 	.word	0x3a334843
1a005190:	00000000 	.word	0x00000000
1a005194:	4677656e 	.word	0x4677656e
1a005198:	2e656c69 	.word	0x2e656c69
1a00519c:	00747874 	.word	0x00747874
1a0051a0:	49564e49 	.word	0x49564e49
1a0051a4:	4f444154 	.word	0x4f444154
1a0051a8:	41432d53 	.word	0x41432d53
1a0051ac:	45454944 	.word	0x45454944
1a0051b0:	0000004c 	.word	0x0000004c
1a0051b4:	44524f43 	.word	0x44524f43
1a0051b8:	3941424f 	.word	0x3941424f
1a0051bc:	00343035 	.word	0x00343035
1a0051c0:	20544547 	.word	0x20544547
1a0051c4:	6470752f 	.word	0x6470752f
1a0051c8:	3f657461 	.word	0x3f657461
1a0051cc:	5f697061 	.word	0x5f697061
1a0051d0:	3d79656b 	.word	0x3d79656b
1a0051d4:	00000000 	.word	0x00000000
1a0051d8:	4e303239 	.word	0x4e303239
1a0051dc:	51483944 	.word	0x51483944
1a0051e0:	5150304f 	.word	0x5150304f
1a0051e4:	38544338 	.word	0x38544338
1a0051e8:	00000000 	.word	0x00000000
1a0051ec:	65696626 	.word	0x65696626
1a0051f0:	0000646c 	.word	0x0000646c
1a0051f4:	0000003d 	.word	0x0000003d
1a0051f8:	2e697061 	.word	0x2e697061
1a0051fc:	6e696874 	.word	0x6e696874
1a005200:	65707367 	.word	0x65707367
1a005204:	632e6b61 	.word	0x632e6b61
1a005208:	ff006d6f 	.word	0xff006d6f
1a00520c:	2c2b2a22 	.word	0x2c2b2a22
1a005210:	3d3c3b3a 	.word	0x3d3c3b3a
1a005214:	5d5b3f3e 	.word	0x5d5b3f3e
1a005218:	ff007f7c 	.word	0xff007f7c
1a00521c:	33323130 	.word	0x33323130
1a005220:	37363534 	.word	0x37363534
1a005224:	42413938 	.word	0x42413938
1a005228:	46454443 	.word	0x46454443
1a00522c:	ffffff00 	.word	0xffffff00

1a005230 <gpioPinsInit>:
1a005230:	02000104 00050701 05010d03 04080100     ................
1a005240:	02020002 02000304 00000403 04070002     ................
1a005250:	030c0300 09050402 05040103 04030208     ................
1a005260:	04020305 06040504 0802000c 03000b06     ................
1a005270:	00090607 07060503 060f0504 03030004     ................
1a005280:	02000404 00050404 06040502 04060200     ................
1a005290:	0c050408 05040a04 0003010e 14010a00     ................
1a0052a0:	010f0000 0d000012 00001101 0010010c     ................
1a0052b0:	07070300 000f0300 01000001 00000000     ................
1a0052c0:	000a0600 08060603 06100504 04030005     ................
1a0052d0:	03000106 04090400 04010d05 010b0000     ................
1a0052e0:	0200000f 00000001 00010104 02010800     ................
1a0052f0:	01090000 09010006 05040002 04010200     ................
1a005300:	02020105 02020504 0e00000a 01000b02     ................
1a005310:	000c020b 00040c01 04000200 01020001     ................
1a005320:	02000204 00030402 03070302 070b0300     ................
1a005330:	0c030004 03000507 0006070d 01020e03     ................
1a005340:	04010504 06020006 02000504 00040405     ................
1a005350:	08040402 040c0504 0d050409 05040a04     ................
1a005360:	0005010e ffff0801                       ........

1a005368 <lpcUarts>:
1a005368:	40081000 06020406 00180205 40081000     ...@...........@
1a005378:	09070509 00180706 40082000 00000000     ......... .@....
1a005388:	00190000 400c1000 07060107 001a0602     .......@........
1a005398:	400c1000 01010f01 001a0110 400c2000     ...@......... .@
1a0053a8:	02020302 001b0204                       ........

1a0053b0 <GpioPorts>:
1a0053b0:	03030003 0f050403 05031005 07030603     ................
1a0053c0:	ffff0802                                ....

1a0053c4 <OscRateIn>:
1a0053c4:	00b71b00                                ....

1a0053c8 <ExtRateIn>:
1a0053c8:	00000000                                ....

1a0053cc <GpioButtons>:
1a0053cc:	08000400 09010900                       ........

1a0053d4 <GpioLeds>:
1a0053d4:	01050005 0e000205 0c010b01              ............

1a0053e0 <InitClkStates>:
1a0053e0:	00010308 00010307 01010f01              ............

1a0053ec <pinmuxing>:
1a0053ec:	00440002 00440102 00440202 00400a02     ..D...D...D...@.
1a0053fc:	00400b02 00400c02 00500001 00500101     ..@...@...P...P.
1a00540c:	00500201 00500601 00500106 00500406     ..P...P...P...P.
1a00541c:	00500506 00540706 00540806 00500906     ..P...T...T...P.
1a00542c:	00500a06 00500b06 00500c06 00f0040f     ..P...P...P.....
1a00543c:	00d50301 00d50401 00160107 00560207     ..............V.
1a00544c:	00520302 00520402 00520509 00570609     ..R...R...R...W.
1a00545c:	00570206 00f30f01 00f71001 00f31101     ..W.............
1a00546c:	00b31201 00f01301 00b31401 00b60707     ................
1a00547c:	00f20000 00b60100                       ........

1a005484 <UART_BClock>:
1a005484:	01a201c2 01620182                       ......b.

1a00548c <UART_PClock>:
1a00548c:	00820081 00a200a1 08040201 0f0f0f03     ................
1a00549c:	000000ff                                ....

1a0054a0 <periph_to_base>:
1a0054a0:	00050000 0020000a 00090024 00400040     ...... .$...@.@.
1a0054b0:	00600005 000400a6 00c300c0 00e00002     ..`.............
1a0054c0:	000100e0 01000100 01200003 00060120     .......... . ...
1a0054d0:	01400140 0142000c 00190142 01620162     @.@...B.B...b.b.
1a0054e0:	01820013 00120182 01a201a2 01c20011     ................
1a0054f0:	001001c2 01e201e2 0202000f 000e0202     ................
1a005500:	02220222 0223000d 001c0223              "."...#.#...

1a00550c <InitClkStates>:
1a00550c:	00010100 00010909 0001090a 01010701     ................
1a00551c:	00010902 00010906 0101090c 0001090d     ................
1a00552c:	0001090e 0001090f 00010910 00010911     ................
1a00553c:	00010912 00010913 00011114 00011119     ................
1a00554c:	0001111a 0001111b                       ........
